TN:
SF:/opt/github/cppalliance/gcovr-development/boost-root/boost/json/array.hpp
FNL:0,1285,1288
FNA:0,1,_ZN5boost4json4swapERNS0_5arrayES2_
FNL:1,1304,1309
FNA:1,76,_ZN5boost4jsoneqERKNS0_5arrayES3_
FNL:2,1325,1330
FNA:2,9,_ZN5boost4jsonneERKNS0_5arrayES3_
FNL:3,242,245
FNA:3,79,_ZN5boost4json5arrayC2Ev
FNL:4,253,258
FNA:4,644,_ZN5boost4json5arrayC2ENS0_11storage_ptrE
FNL:5,321,326
FNA:5,188,_ZN5boost4json5arrayC2EOS1_
FNL:6,335,340
FNA:6,6,_ZN5boost4json5arrayC2ENS0_8pilferedIS1_EE
FNL:7,406,409
FNA:7,15208,_ZNK5boost4json5array7storageEv
FNL:8,423,426
FNA:8,1,_ZNK5boost4json5array13get_allocatorEv
FNF:9
FNH:9
DA:242,79
DA:243,79
DA:245,79
DA:253,644
DA:254,644
DA:255,644
DA:256,644
DA:258,644
DA:321,188
DA:322,188
DA:323,376
DA:324,188
DA:326,188
DA:335,6
DA:336,6
DA:337,12
DA:338,6
DA:340,6
DA:406,15208
DA:408,15208
DA:423,1
DA:425,1
DA:1285,1
DA:1287,1
DA:1288,1
DA:1304,76
DA:1308,76
DA:1325,9
DA:1329,9
LF:29
LH:29
end_of_record
TN:
SF:/opt/github/cppalliance/gcovr-development/boost-root/boost/json/basic_parser.hpp
FNL:0,445,448
FNA:0,20152,_ZNK5boost4json12basic_parserINS0_11fail_parser7handlerEE5depthEv
FNA:0,0,_ZNK5boost4json12basic_parserINS0_11null_parser7handlerEE5depthEv
FNA:0,19965,_ZNK5boost4json12basic_parserINS0_12throw_parser7handlerEE5depthEv
FNA:0,15,_ZNK5boost4json12basic_parserINS0_17basic_parser_test11utf8_parser7handlerEE5depthEv
FNA:0,0,_ZNK5boost4json12basic_parserINS0_17basic_parser_test14comment_parser7handlerEE5depthEv
FNA:0,172,_ZNK5boost4json12basic_parserINS0_17basic_parser_test14literal_parser7handlerEE5depthEv
FNA:0,0,_ZNK5boost4json12basic_parserINS0_17basic_parser_test15std_null_parser7handlerEE5depthEv
FNA:0,28,_ZNK5boost4json12basic_parserINS0_6detail12into_handlerIDnEEE5depthEv
FNA:0,0,_ZNK5boost4json12basic_parserINS0_6detail12into_handlerINS0_6stringEEEE5depthEv
FNA:0,2,_ZNK5boost4json12basic_parserINS0_6detail12into_handlerINS_8variant27variantIJNS4_9monostateEEEEEEE5depthEv
FNA:0,35,_ZNK5boost4json12basic_parserINS0_6detail12into_handlerINS_8variant27variantIJNS4_9monostateESt6vectorIiSaIiEEEEEEEE5depthEv
FNA:0,85,_ZNK5boost4json12basic_parserINS0_6detail12into_handlerINS_8variant27variantIJNS4_9monostateEiNSt7__cxx1112basic_stringIcSt11char_traitsIcESaIcEEEEEEEEE5depthEv
FNA:0,2,_ZNK5boost4json12basic_parserINS0_6detail12into_handlerINS_8variant27variantIJNS4_9monostateEibEEEEEE5depthEv
FNA:0,35,_ZNK5boost4json12basic_parserINS0_6detail12into_handlerINS_8variant27variantIJSt6vectorIiSaIiEEEEEEEE5depthEv
FNA:0,58,_ZNK5boost4json12basic_parserINS0_6detail12into_handlerINS_8variant27variantIJSt6vectorIiSaIiEESt5tupleIJiNSt7__cxx1112basic_stringIcSt11char_traitsIcESaIcEEESt3mapISF_iSt4lessISF_ESaISt4pairIKSF_iEEEEES9_IJiSF_SG_ISF_dSI_SaISJ_ISK_dEEEEEEEEEEE5depthEv
FNA:0,72,_ZNK5boost4json12basic_parserINS0_6detail12into_handlerINS_8variant27variantIJbmEEEEEE5depthEv
FNA:0,27,_ZNK5boost4json12basic_parserINS0_6detail12into_handlerINS_8variant27variantIJiEEEEEE5depthEv
FNA:0,57,_ZNK5boost4json12basic_parserINS0_6detail12into_handlerINS_8variant27variantIJiNSt7__cxx1112basic_stringIcSt11char_traitsIcESaIcEEEEEEEEE5depthEv
FNA:0,57,_ZNK5boost4json12basic_parserINS0_6detail12into_handlerINSt7__cxx1112basic_stringIcSt11char_traitsIcESaIcEEEEEE5depthEv
FNA:0,92,_ZNK5boost4json12basic_parserINS0_6detail12into_handlerISt3mapINSt7__cxx1112basic_stringIcSt11char_traitsIcESaIcEEES4_ISA_iSt4lessISA_ESaISt4pairIKSA_iEEESC_SaISD_ISE_SH_EEEEEE5depthEv
FNA:0,8,_ZNK5boost4json12basic_parserINS0_6detail12into_handlerISt3mapINSt7__cxx1112basic_stringIcSt11char_traitsIcESaIcEEESt5tupleIJiiEESt4lessISA_ESaISt4pairIKSA_SC_EEEEEE5depthEv
FNA:0,105,_ZNK5boost4json12basic_parserINS0_6detail12into_handlerISt3mapINSt7__cxx1112basic_stringIcSt11char_traitsIcESaIcEEESt6vectorISt4pairIiiESaISD_EESt4lessISA_ESaISC_IKSA_SF_EEEEEE5depthEv
FNA:0,73,_ZNK5boost4json12basic_parserINS0_6detail12into_handlerISt3mapINSt7__cxx1112basic_stringIcSt11char_traitsIcESaIcEEESt6vectorIiSaIiEESt4lessISA_ESaISt4pairIKSA_SD_EEEEEE5depthEv
FNA:0,134,_ZNK5boost4json12basic_parserINS0_6detail12into_handlerISt3mapINSt7__cxx1112basic_stringIcSt11char_traitsIcESaIcEEEiSt4lessISA_ESaISt4pairIKSA_iEEEEEE5depthEv
FNA:0,51,_ZNK5boost4json12basic_parserINS0_6detail12into_handlerISt4pairIDnmEEEE5depthEv
FNA:0,81,_ZNK5boost4json12basic_parserINS0_6detail12into_handlerISt4pairISt6vectorIiSaIiEESt3mapINSt7__cxx1112basic_stringIcSt11char_traitsIcESaIcEEES4_IibESt4lessISE_ESaIS4_IKSE_SF_EEEEEEE5depthEv
FNA:0,5,_ZNK5boost4json12basic_parserINS0_6detail12into_handlerISt4pairIiiEEEE5depthEv
FNA:0,53,_ZNK5boost4json12basic_parserINS0_6detail12into_handlerISt5arrayIiLm4EEEEE5depthEv
FNA:0,7,_ZNK5boost4json12basic_parserINS0_6detail12into_handlerISt5tupleIJSt6vectorIiSaIiEEEEEEE5depthEv
FNA:0,89,_ZNK5boost4json12basic_parserINS0_6detail12into_handlerISt5tupleIJifNSt7__cxx1112basic_stringIcSt11char_traitsIcESaIcEEEEEEEE5depthEv
FNA:0,4,_ZNK5boost4json12basic_parserINS0_6detail12into_handlerISt5tupleIJiiiEEEEE5depthEv
FNA:0,35,_ZNK5boost4json12basic_parserINS0_6detail12into_handlerISt6vectorIDnSaIDnEEEEE5depthEv
FNA:0,56,_ZNK5boost4json12basic_parserINS0_6detail12into_handlerISt6vectorINS_8variant27variantIJiNSt7__cxx1112basic_stringIcSt11char_traitsIcESaIcEEEEEESaISD_EEEEE5depthEv
FNA:0,71,_ZNK5boost4json12basic_parserINS0_6detail12into_handlerISt6vectorINSt7__cxx1112basic_stringIcSt11char_traitsIcESaIcEEESaISA_EEEEE5depthEv
FNA:0,118,_ZNK5boost4json12basic_parserINS0_6detail12into_handlerISt6vectorIS4_ISt4pairIiiESaIS6_EESaIS8_EEEEE5depthEv
FNA:0,73,_ZNK5boost4json12basic_parserINS0_6detail12into_handlerISt6vectorIS4_IiSaIiEESaIS6_EEEEE5depthEv
FNA:0,50,_ZNK5boost4json12basic_parserINS0_6detail12into_handlerISt6vectorISt3mapINSt7__cxx1112basic_stringIcSt11char_traitsIcESaIcEEEiSt4lessISB_ESaISt4pairIKSB_iEEESaISI_EEEEE5depthEv
FNA:0,63,_ZNK5boost4json12basic_parserINS0_6detail12into_handlerISt6vectorISt4pairIiiESaIS6_EEEEE5depthEv
FNA:0,67,_ZNK5boost4json12basic_parserINS0_6detail12into_handlerISt6vectorISt5arrayIiLm4EESaIS6_EEEEE5depthEv
FNA:0,62,_ZNK5boost4json12basic_parserINS0_6detail12into_handlerISt6vectorIbSaIbEEEEE5depthEv
FNA:0,1,_ZNK5boost4json12basic_parserINS0_6detail12into_handlerISt6vectorIcSaIcEEEEE5depthEv
FNA:0,112,_ZNK5boost4json12basic_parserINS0_6detail12into_handlerISt6vectorIfSaIfEEEEE5depthEv
FNA:0,57,_ZNK5boost4json12basic_parserINS0_6detail12into_handlerISt6vectorIiSaIiEEEEE5depthEv
FNA:0,50,_ZNK5boost4json12basic_parserINS0_6detail12into_handlerISt6vectorImSaImEEEEE5depthEv
FNA:0,28,_ZNK5boost4json12basic_parserINS0_6detail12into_handlerIaEEE5depthEv
FNA:0,60,_ZNK5boost4json12basic_parserINS0_6detail12into_handlerIbEEE5depthEv
FNA:0,26,_ZNK5boost4json12basic_parserINS0_6detail12into_handlerIcEEE5depthEv
FNA:0,31,_ZNK5boost4json12basic_parserINS0_6detail12into_handlerIdEEE5depthEv
FNA:0,30,_ZNK5boost4json12basic_parserINS0_6detail12into_handlerIfEEE5depthEv
FNA:0,27,_ZNK5boost4json12basic_parserINS0_6detail12into_handlerIhEEE5depthEv
FNA:0,74,_ZNK5boost4json12basic_parserINS0_6detail12into_handlerIiEEE5depthEv
FNA:0,29,_ZNK5boost4json12basic_parserINS0_6detail12into_handlerIjEEE5depthEv
FNA:0,44,_ZNK5boost4json12basic_parserINS0_6detail12into_handlerIlEEE5depthEv
FNA:0,44,_ZNK5boost4json12basic_parserINS0_6detail12into_handlerImEEE5depthEv
FNA:0,30,_ZNK5boost4json12basic_parserINS0_6detail12into_handlerIsEEE5depthEv
FNA:0,29,_ZNK5boost4json12basic_parserINS0_6detail12into_handlerItEEE5depthEv
FNA:0,44,_ZNK5boost4json12basic_parserINS0_6detail12into_handlerIxEEE5depthEv
FNA:0,44,_ZNK5boost4json12basic_parserINS0_6detail12into_handlerIyEEE5depthEv
FNA:0,130256,_ZNK5boost4json12basic_parserINS0_6detail7handlerEE5depthEv
FNL:1,466,466
FNA:1,46630,_ZN5boost4json12basic_parserINS0_11fail_parser7handlerEED2Ev
FNA:1,7,_ZN5boost4json12basic_parserINS0_11null_parser7handlerEED2Ev
FNA:1,40340,_ZN5boost4json12basic_parserINS0_12throw_parser7handlerEED2Ev
FNA:1,9,_ZN5boost4json12basic_parserINS0_17basic_parser_test11utf8_parser7handlerEED2Ev
FNA:1,15,_ZN5boost4json12basic_parserINS0_17basic_parser_test14comment_parser7handlerEED2Ev
FNA:1,191,_ZN5boost4json12basic_parserINS0_17basic_parser_test14literal_parser7handlerEED2Ev
FNA:1,1,_ZN5boost4json12basic_parserINS0_17basic_parser_test15std_null_parser7handlerEED2Ev
FNA:1,9,_ZN5boost4json12basic_parserINS0_6detail12into_handlerIDnEEED2Ev
FNA:1,2,_ZN5boost4json12basic_parserINS0_6detail12into_handlerINS0_6stringEEEED2Ev
FNA:1,2,_ZN5boost4json12basic_parserINS0_6detail12into_handlerINS_8variant27variantIJNS4_9monostateEEEEEEED2Ev
FNA:1,7,_ZN5boost4json12basic_parserINS0_6detail12into_handlerINS_8variant27variantIJNS4_9monostateESt6vectorIiSaIiEEEEEEEED2Ev
FNA:1,21,_ZN5boost4json12basic_parserINS0_6detail12into_handlerINS_8variant27variantIJNS4_9monostateEiNSt7__cxx1112basic_stringIcSt11char_traitsIcESaIcEEEEEEEEED2Ev
FNA:1,2,_ZN5boost4json12basic_parserINS0_6detail12into_handlerINS_8variant27variantIJNS4_9monostateEibEEEEEED2Ev
FNA:1,7,_ZN5boost4json12basic_parserINS0_6detail12into_handlerINS_8variant27variantIJSt6vectorIiSaIiEEEEEEEED2Ev
FNA:1,7,_ZN5boost4json12basic_parserINS0_6detail12into_handlerINS_8variant27variantIJSt6vectorIiSaIiEESt5tupleIJiNSt7__cxx1112basic_stringIcSt11char_traitsIcESaIcEEESt3mapISF_iSt4lessISF_ESaISt4pairIKSF_iEEEEES9_IJiSF_SG_ISF_dSI_SaISJ_ISK_dEEEEEEEEEEED2Ev
FNA:1,14,_ZN5boost4json12basic_parserINS0_6detail12into_handlerINS_8variant27variantIJbmEEEEEED2Ev
FNA:1,9,_ZN5boost4json12basic_parserINS0_6detail12into_handlerINS_8variant27variantIJiEEEEEED2Ev
FNA:1,14,_ZN5boost4json12basic_parserINS0_6detail12into_handlerINS_8variant27variantIJiNSt7__cxx1112basic_stringIcSt11char_traitsIcESaIcEEEEEEEEED2Ev
FNA:1,16,_ZN5boost4json12basic_parserINS0_6detail12into_handlerINSt7__cxx1112basic_stringIcSt11char_traitsIcESaIcEEEEEED2Ev
FNA:1,16,_ZN5boost4json12basic_parserINS0_6detail12into_handlerISt3mapINSt7__cxx1112basic_stringIcSt11char_traitsIcESaIcEEES4_ISA_iSt4lessISA_ESaISt4pairIKSA_iEEESC_SaISD_ISE_SH_EEEEEED2Ev
FNA:1,2,_ZN5boost4json12basic_parserINS0_6detail12into_handlerISt3mapINSt7__cxx1112basic_stringIcSt11char_traitsIcESaIcEEESt5tupleIJiiEESt4lessISA_ESaISt4pairIKSA_SC_EEEEEED2Ev
FNA:1,21,_ZN5boost4json12basic_parserINS0_6detail12into_handlerISt3mapINSt7__cxx1112basic_stringIcSt11char_traitsIcESaIcEEESt6vectorISt4pairIiiESaISD_EESt4lessISA_ESaISC_IKSA_SF_EEEEEED2Ev
FNA:1,15,_ZN5boost4json12basic_parserINS0_6detail12into_handlerISt3mapINSt7__cxx1112basic_stringIcSt11char_traitsIcESaIcEEESt6vectorIiSaIiEESt4lessISA_ESaISt4pairIKSA_SD_EEEEEED2Ev
FNA:1,32,_ZN5boost4json12basic_parserINS0_6detail12into_handlerISt3mapINSt7__cxx1112basic_stringIcSt11char_traitsIcESaIcEEEiSt4lessISA_ESaISt4pairIKSA_iEEEEEED2Ev
FNA:1,7,_ZN5boost4json12basic_parserINS0_6detail12into_handlerISt4pairIDnmEEEED2Ev
FNA:1,14,_ZN5boost4json12basic_parserINS0_6detail12into_handlerISt4pairISt6vectorIiSaIiEESt3mapINSt7__cxx1112basic_stringIcSt11char_traitsIcESaIcEEES4_IibESt4lessISE_ESaIS4_IKSE_SF_EEEEEEED2Ev
FNA:1,4,_ZN5boost4json12basic_parserINS0_6detail12into_handlerISt4pairIiiEEEED2Ev
FNA:1,11,_ZN5boost4json12basic_parserINS0_6detail12into_handlerISt5arrayIiLm4EEEEED2Ev
FNA:1,2,_ZN5boost4json12basic_parserINS0_6detail12into_handlerISt5tupleIJSt6vectorIiSaIiEEEEEEED2Ev
FNA:1,14,_ZN5boost4json12basic_parserINS0_6detail12into_handlerISt5tupleIJifNSt7__cxx1112basic_stringIcSt11char_traitsIcESaIcEEEEEEEED2Ev
FNA:1,2,_ZN5boost4json12basic_parserINS0_6detail12into_handlerISt5tupleIJiiiEEEEED2Ev
FNA:1,7,_ZN5boost4json12basic_parserINS0_6detail12into_handlerISt6vectorIDnSaIDnEEEEED2Ev
FNA:1,7,_ZN5boost4json12basic_parserINS0_6detail12into_handlerISt6vectorINS_8variant27variantIJiNSt7__cxx1112basic_stringIcSt11char_traitsIcESaIcEEEEEESaISD_EEEEED2Ev
FNA:1,14,_ZN5boost4json12basic_parserINS0_6detail12into_handlerISt6vectorINSt7__cxx1112basic_stringIcSt11char_traitsIcESaIcEEESaISA_EEEEED2Ev
FNA:1,21,_ZN5boost4json12basic_parserINS0_6detail12into_handlerISt6vectorIS4_ISt4pairIiiESaIS6_EESaIS8_EEEEED2Ev
FNA:1,16,_ZN5boost4json12basic_parserINS0_6detail12into_handlerISt6vectorIS4_IiSaIiEESaIS6_EEEEED2Ev
FNA:1,7,_ZN5boost4json12basic_parserINS0_6detail12into_handlerISt6vectorISt3mapINSt7__cxx1112basic_stringIcSt11char_traitsIcESaIcEEEiSt4lessISB_ESaISt4pairIKSB_iEEESaISI_EEEEED2Ev
FNA:1,14,_ZN5boost4json12basic_parserINS0_6detail12into_handlerISt6vectorISt4pairIiiESaIS6_EEEEED2Ev
FNA:1,7,_ZN5boost4json12basic_parserINS0_6detail12into_handlerISt6vectorISt5arrayIiLm4EESaIS6_EEEEED2Ev
FNA:1,14,_ZN5boost4json12basic_parserINS0_6detail12into_handlerISt6vectorIbSaIbEEEEED2Ev
FNA:1,2,_ZN5boost4json12basic_parserINS0_6detail12into_handlerISt6vectorIcSaIcEEEEED2Ev
FNA:1,14,_ZN5boost4json12basic_parserINS0_6detail12into_handlerISt6vectorIfSaIfEEEEED2Ev
FNA:1,18,_ZN5boost4json12basic_parserINS0_6detail12into_handlerISt6vectorIiSaIiEEEEED2Ev
FNA:1,7,_ZN5boost4json12basic_parserINS0_6detail12into_handlerISt6vectorImSaImEEEEED2Ev
FNA:1,7,_ZN5boost4json12basic_parserINS0_6detail12into_handlerIaEEED2Ev
FNA:1,16,_ZN5boost4json12basic_parserINS0_6detail12into_handlerIbEEED2Ev
FNA:1,7,_ZN5boost4json12basic_parserINS0_6detail12into_handlerIcEEED2Ev
FNA:1,11,_ZN5boost4json12basic_parserINS0_6detail12into_handlerIdEEED2Ev
FNA:1,7,_ZN5boost4json12basic_parserINS0_6detail12into_handlerIfEEED2Ev
FNA:1,7,_ZN5boost4json12basic_parserINS0_6detail12into_handlerIhEEED2Ev
FNA:1,20,_ZN5boost4json12basic_parserINS0_6detail12into_handlerIiEEED2Ev
FNA:1,7,_ZN5boost4json12basic_parserINS0_6detail12into_handlerIjEEED2Ev
FNA:1,7,_ZN5boost4json12basic_parserINS0_6detail12into_handlerIlEEED2Ev
FNA:1,7,_ZN5boost4json12basic_parserINS0_6detail12into_handlerImEEED2Ev
FNA:1,7,_ZN5boost4json12basic_parserINS0_6detail12into_handlerIsEEED2Ev
FNA:1,7,_ZN5boost4json12basic_parserINS0_6detail12into_handlerItEEED2Ev
FNA:1,7,_ZN5boost4json12basic_parserINS0_6detail12into_handlerIxEEED2Ev
FNA:1,7,_ZN5boost4json12basic_parserINS0_6detail12into_handlerIyEEED2Ev
FNA:1,2076889,_ZN5boost4json12basic_parserINS0_6detail7handlerEED2Ev
FNL:2,521,524
FNA:2,40339,_ZN5boost4json12basic_parserINS0_11fail_parser7handlerEE7handlerEv
FNA:2,40340,_ZN5boost4json12basic_parserINS0_12throw_parser7handlerEE7handlerEv
FNA:2,191,_ZN5boost4json12basic_parserINS0_17basic_parser_test14literal_parser7handlerEE7handlerEv
FNA:2,6229764,_ZN5boost4json12basic_parserINS0_6detail7handlerEE7handlerEv
FNL:3,527,530
FNA:3,9,_ZNK5boost4json12basic_parserINS0_17basic_parser_test11utf8_parser7handlerEE7handlerEv
FNA:3,15,_ZNK5boost4json12basic_parserINS0_17basic_parser_test14comment_parser7handlerEE7handlerEv
FNL:4,546,549
FNA:4,8,_ZNK5boost4json12basic_parserINS0_6detail7handlerEE10last_errorEv
FNL:5,567,570
FNA:5,34,_ZNK5boost4json12basic_parserINS0_11fail_parser7handlerEE4doneEv
FNA:5,4078197,_ZNK5boost4json12basic_parserINS0_6detail7handlerEE4doneEv
FNF:6
FNH:6
DA:445,173075
DA:447,173075
DA:466,2164604
DA:521,6310634
DA:523,6310634
DA:527,24
DA:529,24
DA:546,8
DA:548,8
DA:567,4078231
DA:569,4078231
LF:11
LH:11
end_of_record
TN:
SF:/opt/github/cppalliance/gcovr-development/boost-root/boost/json/basic_parser_impl.hpp
FNL:0,1125,1688
FNA:0,2048,_ZN5boost4json12basic_parserINS0_11fail_parser7handlerEE13parse_escapedILb0EEEPKcS7_RmSt17integral_constantIbXT_EEbb
FNA:0,5259,_ZN5boost4json12basic_parserINS0_11fail_parser7handlerEE13parse_escapedILb1EEEPKcS7_RmSt17integral_constantIbXT_EEbb
FNA:0,0,_ZN5boost4json12basic_parserINS0_11null_parser7handlerEE13parse_escapedILb0EEEPKcS7_RmSt17integral_constantIbXT_EEbb
FNA:0,0,_ZN5boost4json12basic_parserINS0_11null_parser7handlerEE13parse_escapedILb1EEEPKcS7_RmSt17integral_constantIbXT_EEbb
FNA:0,2048,_ZN5boost4json12basic_parserINS0_12throw_parser7handlerEE13parse_escapedILb0EEEPKcS7_RmSt17integral_constantIbXT_EEbb
FNA:0,3807,_ZN5boost4json12basic_parserINS0_12throw_parser7handlerEE13parse_escapedILb1EEEPKcS7_RmSt17integral_constantIbXT_EEbb
FNA:0,0,_ZN5boost4json12basic_parserINS0_17basic_parser_test11utf8_parser7handlerEE13parse_escapedILb0EEEPKcS8_RmSt17integral_constantIbXT_EEbb
FNA:0,0,_ZN5boost4json12basic_parserINS0_17basic_parser_test11utf8_parser7handlerEE13parse_escapedILb1EEEPKcS8_RmSt17integral_constantIbXT_EEbb
FNA:0,0,_ZN5boost4json12basic_parserINS0_17basic_parser_test14comment_parser7handlerEE13parse_escapedILb0EEEPKcS8_RmSt17integral_constantIbXT_EEbb
FNA:0,0,_ZN5boost4json12basic_parserINS0_17basic_parser_test14comment_parser7handlerEE13parse_escapedILb1EEEPKcS8_RmSt17integral_constantIbXT_EEbb
FNA:0,0,_ZN5boost4json12basic_parserINS0_17basic_parser_test14literal_parser7handlerEE13parse_escapedILb0EEEPKcS8_RmSt17integral_constantIbXT_EEbb
FNA:0,0,_ZN5boost4json12basic_parserINS0_17basic_parser_test14literal_parser7handlerEE13parse_escapedILb1EEEPKcS8_RmSt17integral_constantIbXT_EEbb
FNA:0,0,_ZN5boost4json12basic_parserINS0_17basic_parser_test15std_null_parser7handlerEE13parse_escapedILb0EEEPKcS8_RmSt17integral_constantIbXT_EEbb
FNA:0,0,_ZN5boost4json12basic_parserINS0_17basic_parser_test15std_null_parser7handlerEE13parse_escapedILb1EEEPKcS8_RmSt17integral_constantIbXT_EEbb
FNA:0,0,_ZN5boost4json12basic_parserINS0_6detail12into_handlerIDnEEE13parse_escapedILb0EEEPKcS8_RmSt17integral_constantIbXT_EEbb
FNA:0,0,_ZN5boost4json12basic_parserINS0_6detail12into_handlerIDnEEE13parse_escapedILb1EEEPKcS8_RmSt17integral_constantIbXT_EEbb
FNA:0,0,_ZN5boost4json12basic_parserINS0_6detail12into_handlerINS0_6stringEEEE13parse_escapedILb0EEEPKcS9_RmSt17integral_constantIbXT_EEbb
FNA:0,0,_ZN5boost4json12basic_parserINS0_6detail12into_handlerINS0_6stringEEEE13parse_escapedILb1EEEPKcS9_RmSt17integral_constantIbXT_EEbb
FNA:0,0,_ZN5boost4json12basic_parserINS0_6detail12into_handlerINS_8variant27variantIJNS4_9monostateEEEEEEE13parse_escapedILb0EEEPKcSC_RmSt17integral_constantIbXT_EEbb
FNA:0,0,_ZN5boost4json12basic_parserINS0_6detail12into_handlerINS_8variant27variantIJNS4_9monostateEEEEEEE13parse_escapedILb1EEEPKcSC_RmSt17integral_constantIbXT_EEbb
FNA:0,0,_ZN5boost4json12basic_parserINS0_6detail12into_handlerINS_8variant27variantIJNS4_9monostateESt6vectorIiSaIiEEEEEEEE13parse_escapedILb0EEEPKcSF_RmSt17integral_constantIbXT_EEbb
FNA:0,0,_ZN5boost4json12basic_parserINS0_6detail12into_handlerINS_8variant27variantIJNS4_9monostateESt6vectorIiSaIiEEEEEEEE13parse_escapedILb1EEEPKcSF_RmSt17integral_constantIbXT_EEbb
FNA:0,0,_ZN5boost4json12basic_parserINS0_6detail12into_handlerINS_8variant27variantIJNS4_9monostateEiNSt7__cxx1112basic_stringIcSt11char_traitsIcESaIcEEEEEEEEE13parse_escapedILb0EEEPKcSI_RmSt17integral_constantIbXT_EEbb
FNA:0,0,_ZN5boost4json12basic_parserINS0_6detail12into_handlerINS_8variant27variantIJNS4_9monostateEiNSt7__cxx1112basic_stringIcSt11char_traitsIcESaIcEEEEEEEEE13parse_escapedILb1EEEPKcSI_RmSt17integral_constantIbXT_EEbb
FNA:0,0,_ZN5boost4json12basic_parserINS0_6detail12into_handlerINS_8variant27variantIJNS4_9monostateEibEEEEEE13parse_escapedILb0EEEPKcSC_RmSt17integral_constantIbXT_EEbb
FNA:0,0,_ZN5boost4json12basic_parserINS0_6detail12into_handlerINS_8variant27variantIJNS4_9monostateEibEEEEEE13parse_escapedILb1EEEPKcSC_RmSt17integral_constantIbXT_EEbb
FNA:0,0,_ZN5boost4json12basic_parserINS0_6detail12into_handlerINS_8variant27variantIJSt6vectorIiSaIiEEEEEEEE13parse_escapedILb0EEEPKcSE_RmSt17integral_constantIbXT_EEbb
FNA:0,0,_ZN5boost4json12basic_parserINS0_6detail12into_handlerINS_8variant27variantIJSt6vectorIiSaIiEEEEEEEE13parse_escapedILb1EEEPKcSE_RmSt17integral_constantIbXT_EEbb
FNA:0,0,_ZN5boost4json12basic_parserINS0_6detail12into_handlerINS_8variant27variantIJSt6vectorIiSaIiEESt5tupleIJiNSt7__cxx1112basic_stringIcSt11char_traitsIcESaIcEEESt3mapISF_iSt4lessISF_ESaISt4pairIKSF_iEEEEES9_IJiSF_SG_ISF_dSI_SaISJ_ISK_dEEEEEEEEEEE13parse_escapedILb0EEEPKcSY_RmSt17integral_constantIbXT_EEbb
FNA:0,0,_ZN5boost4json12basic_parserINS0_6detail12into_handlerINS_8variant27variantIJSt6vectorIiSaIiEESt5tupleIJiNSt7__cxx1112basic_stringIcSt11char_traitsIcESaIcEEESt3mapISF_iSt4lessISF_ESaISt4pairIKSF_iEEEEES9_IJiSF_SG_ISF_dSI_SaISJ_ISK_dEEEEEEEEEEE13parse_escapedILb1EEEPKcSY_RmSt17integral_constantIbXT_EEbb
FNA:0,0,_ZN5boost4json12basic_parserINS0_6detail12into_handlerINS_8variant27variantIJbmEEEEEE13parse_escapedILb0EEEPKcSB_RmSt17integral_constantIbXT_EEbb
FNA:0,0,_ZN5boost4json12basic_parserINS0_6detail12into_handlerINS_8variant27variantIJbmEEEEEE13parse_escapedILb1EEEPKcSB_RmSt17integral_constantIbXT_EEbb
FNA:0,0,_ZN5boost4json12basic_parserINS0_6detail12into_handlerINS_8variant27variantIJiEEEEEE13parse_escapedILb0EEEPKcSB_RmSt17integral_constantIbXT_EEbb
FNA:0,0,_ZN5boost4json12basic_parserINS0_6detail12into_handlerINS_8variant27variantIJiEEEEEE13parse_escapedILb1EEEPKcSB_RmSt17integral_constantIbXT_EEbb
FNA:0,0,_ZN5boost4json12basic_parserINS0_6detail12into_handlerINS_8variant27variantIJiNSt7__cxx1112basic_stringIcSt11char_traitsIcESaIcEEEEEEEEE13parse_escapedILb0EEEPKcSH_RmSt17integral_constantIbXT_EEbb
FNA:0,0,_ZN5boost4json12basic_parserINS0_6detail12into_handlerINS_8variant27variantIJiNSt7__cxx1112basic_stringIcSt11char_traitsIcESaIcEEEEEEEEE13parse_escapedILb1EEEPKcSH_RmSt17integral_constantIbXT_EEbb
FNA:0,0,_ZN5boost4json12basic_parserINS0_6detail12into_handlerINSt7__cxx1112basic_stringIcSt11char_traitsIcESaIcEEEEEE13parse_escapedILb0EEEPKcSE_RmSt17integral_constantIbXT_EEbb
FNA:0,0,_ZN5boost4json12basic_parserINS0_6detail12into_handlerINSt7__cxx1112basic_stringIcSt11char_traitsIcESaIcEEEEEE13parse_escapedILb1EEEPKcSE_RmSt17integral_constantIbXT_EEbb
FNA:0,0,_ZN5boost4json12basic_parserINS0_6detail12into_handlerISt3mapINSt7__cxx1112basic_stringIcSt11char_traitsIcESaIcEEES4_ISA_iSt4lessISA_ESaISt4pairIKSA_iEEESC_SaISD_ISE_SH_EEEEEE13parse_escapedILb0EEEPKcSP_RmSt17integral_constantIbXT_EEbb
FNA:0,0,_ZN5boost4json12basic_parserINS0_6detail12into_handlerISt3mapINSt7__cxx1112basic_stringIcSt11char_traitsIcESaIcEEES4_ISA_iSt4lessISA_ESaISt4pairIKSA_iEEESC_SaISD_ISE_SH_EEEEEE13parse_escapedILb1EEEPKcSP_RmSt17integral_constantIbXT_EEbb
FNA:0,0,_ZN5boost4json12basic_parserINS0_6detail12into_handlerISt3mapINSt7__cxx1112basic_stringIcSt11char_traitsIcESaIcEEESt5tupleIJiiEESt4lessISA_ESaISt4pairIKSA_SC_EEEEEE13parse_escapedILb0EEEPKcSO_RmSt17integral_constantIbXT_EEbb
FNA:0,0,_ZN5boost4json12basic_parserINS0_6detail12into_handlerISt3mapINSt7__cxx1112basic_stringIcSt11char_traitsIcESaIcEEESt5tupleIJiiEESt4lessISA_ESaISt4pairIKSA_SC_EEEEEE13parse_escapedILb1EEEPKcSO_RmSt17integral_constantIbXT_EEbb
FNA:0,0,_ZN5boost4json12basic_parserINS0_6detail12into_handlerISt3mapINSt7__cxx1112basic_stringIcSt11char_traitsIcESaIcEEESt6vectorISt4pairIiiESaISD_EESt4lessISA_ESaISC_IKSA_SF_EEEEEE13parse_escapedILb0EEEPKcSQ_RmSt17integral_constantIbXT_EEbb
FNA:0,0,_ZN5boost4json12basic_parserINS0_6detail12into_handlerISt3mapINSt7__cxx1112basic_stringIcSt11char_traitsIcESaIcEEESt6vectorISt4pairIiiESaISD_EESt4lessISA_ESaISC_IKSA_SF_EEEEEE13parse_escapedILb1EEEPKcSQ_RmSt17integral_constantIbXT_EEbb
FNA:0,0,_ZN5boost4json12basic_parserINS0_6detail12into_handlerISt3mapINSt7__cxx1112basic_stringIcSt11char_traitsIcESaIcEEESt6vectorIiSaIiEESt4lessISA_ESaISt4pairIKSA_SD_EEEEEE13parse_escapedILb0EEEPKcSP_RmSt17integral_constantIbXT_EEbb
FNA:0,0,_ZN5boost4json12basic_parserINS0_6detail12into_handlerISt3mapINSt7__cxx1112basic_stringIcSt11char_traitsIcESaIcEEESt6vectorIiSaIiEESt4lessISA_ESaISt4pairIKSA_SD_EEEEEE13parse_escapedILb1EEEPKcSP_RmSt17integral_constantIbXT_EEbb
FNA:0,0,_ZN5boost4json12basic_parserINS0_6detail12into_handlerISt3mapINSt7__cxx1112basic_stringIcSt11char_traitsIcESaIcEEEiSt4lessISA_ESaISt4pairIKSA_iEEEEEE13parse_escapedILb0EEEPKcSM_RmSt17integral_constantIbXT_EEbb
FNA:0,0,_ZN5boost4json12basic_parserINS0_6detail12into_handlerISt3mapINSt7__cxx1112basic_stringIcSt11char_traitsIcESaIcEEEiSt4lessISA_ESaISt4pairIKSA_iEEEEEE13parse_escapedILb1EEEPKcSM_RmSt17integral_constantIbXT_EEbb
FNA:0,0,_ZN5boost4json12basic_parserINS0_6detail12into_handlerISt4pairIDnmEEEE13parse_escapedILb0EEEPKcSA_RmSt17integral_constantIbXT_EEbb
FNA:0,0,_ZN5boost4json12basic_parserINS0_6detail12into_handlerISt4pairIDnmEEEE13parse_escapedILb1EEEPKcSA_RmSt17integral_constantIbXT_EEbb
FNA:0,0,_ZN5boost4json12basic_parserINS0_6detail12into_handlerISt4pairISt6vectorIiSaIiEESt3mapINSt7__cxx1112basic_stringIcSt11char_traitsIcESaIcEEES4_IibESt4lessISE_ESaIS4_IKSE_SF_EEEEEEE13parse_escapedILb0EEEPKcSR_RmSt17integral_constantIbXT_EEbb
FNA:0,0,_ZN5boost4json12basic_parserINS0_6detail12into_handlerISt4pairISt6vectorIiSaIiEESt3mapINSt7__cxx1112basic_stringIcSt11char_traitsIcESaIcEEES4_IibESt4lessISE_ESaIS4_IKSE_SF_EEEEEEE13parse_escapedILb1EEEPKcSR_RmSt17integral_constantIbXT_EEbb
FNA:0,0,_ZN5boost4json12basic_parserINS0_6detail12into_handlerISt4pairIiiEEEE13parse_escapedILb0EEEPKcSA_RmSt17integral_constantIbXT_EEbb
FNA:0,0,_ZN5boost4json12basic_parserINS0_6detail12into_handlerISt4pairIiiEEEE13parse_escapedILb1EEEPKcSA_RmSt17integral_constantIbXT_EEbb
FNA:0,0,_ZN5boost4json12basic_parserINS0_6detail12into_handlerISt5arrayIiLm4EEEEE13parse_escapedILb0EEEPKcSA_RmSt17integral_constantIbXT_EEbb
FNA:0,0,_ZN5boost4json12basic_parserINS0_6detail12into_handlerISt5arrayIiLm4EEEEE13parse_escapedILb1EEEPKcSA_RmSt17integral_constantIbXT_EEbb
FNA:0,0,_ZN5boost4json12basic_parserINS0_6detail12into_handlerISt5tupleIJSt6vectorIiSaIiEEEEEEE13parse_escapedILb0EEEPKcSD_RmSt17integral_constantIbXT_EEbb
FNA:0,0,_ZN5boost4json12basic_parserINS0_6detail12into_handlerISt5tupleIJSt6vectorIiSaIiEEEEEEE13parse_escapedILb1EEEPKcSD_RmSt17integral_constantIbXT_EEbb
FNA:0,0,_ZN5boost4json12basic_parserINS0_6detail12into_handlerISt5tupleIJifNSt7__cxx1112basic_stringIcSt11char_traitsIcESaIcEEEEEEEE13parse_escapedILb0EEEPKcSG_RmSt17integral_constantIbXT_EEbb
FNA:0,0,_ZN5boost4json12basic_parserINS0_6detail12into_handlerISt5tupleIJifNSt7__cxx1112basic_stringIcSt11char_traitsIcESaIcEEEEEEEE13parse_escapedILb1EEEPKcSG_RmSt17integral_constantIbXT_EEbb
FNA:0,0,_ZN5boost4json12basic_parserINS0_6detail12into_handlerISt5tupleIJiiiEEEEE13parse_escapedILb0EEEPKcSA_RmSt17integral_constantIbXT_EEbb
FNA:0,0,_ZN5boost4json12basic_parserINS0_6detail12into_handlerISt5tupleIJiiiEEEEE13parse_escapedILb1EEEPKcSA_RmSt17integral_constantIbXT_EEbb
FNA:0,0,_ZN5boost4json12basic_parserINS0_6detail12into_handlerISt6vectorIDnSaIDnEEEEE13parse_escapedILb0EEEPKcSB_RmSt17integral_constantIbXT_EEbb
FNA:0,0,_ZN5boost4json12basic_parserINS0_6detail12into_handlerISt6vectorIDnSaIDnEEEEE13parse_escapedILb1EEEPKcSB_RmSt17integral_constantIbXT_EEbb
FNA:0,0,_ZN5boost4json12basic_parserINS0_6detail12into_handlerISt6vectorINS_8variant27variantIJiNSt7__cxx1112basic_stringIcSt11char_traitsIcESaIcEEEEEESaISD_EEEEE13parse_escapedILb0EEEPKcSK_RmSt17integral_constantIbXT_EEbb
FNA:0,0,_ZN5boost4json12basic_parserINS0_6detail12into_handlerISt6vectorINS_8variant27variantIJiNSt7__cxx1112basic_stringIcSt11char_traitsIcESaIcEEEEEESaISD_EEEEE13parse_escapedILb1EEEPKcSK_RmSt17integral_constantIbXT_EEbb
FNA:0,0,_ZN5boost4json12basic_parserINS0_6detail12into_handlerISt6vectorINSt7__cxx1112basic_stringIcSt11char_traitsIcESaIcEEESaISA_EEEEE13parse_escapedILb0EEEPKcSH_RmSt17integral_constantIbXT_EEbb
FNA:0,0,_ZN5boost4json12basic_parserINS0_6detail12into_handlerISt6vectorINSt7__cxx1112basic_stringIcSt11char_traitsIcESaIcEEESaISA_EEEEE13parse_escapedILb1EEEPKcSH_RmSt17integral_constantIbXT_EEbb
FNA:0,0,_ZN5boost4json12basic_parserINS0_6detail12into_handlerISt6vectorIS4_ISt4pairIiiESaIS6_EESaIS8_EEEEE13parse_escapedILb0EEEPKcSF_RmSt17integral_constantIbXT_EEbb
FNA:0,0,_ZN5boost4json12basic_parserINS0_6detail12into_handlerISt6vectorIS4_ISt4pairIiiESaIS6_EESaIS8_EEEEE13parse_escapedILb1EEEPKcSF_RmSt17integral_constantIbXT_EEbb
FNA:0,0,_ZN5boost4json12basic_parserINS0_6detail12into_handlerISt6vectorIS4_IiSaIiEESaIS6_EEEEE13parse_escapedILb0EEEPKcSD_RmSt17integral_constantIbXT_EEbb
FNA:0,0,_ZN5boost4json12basic_parserINS0_6detail12into_handlerISt6vectorIS4_IiSaIiEESaIS6_EEEEE13parse_escapedILb1EEEPKcSD_RmSt17integral_constantIbXT_EEbb
FNA:0,0,_ZN5boost4json12basic_parserINS0_6detail12into_handlerISt6vectorISt3mapINSt7__cxx1112basic_stringIcSt11char_traitsIcESaIcEEEiSt4lessISB_ESaISt4pairIKSB_iEEESaISI_EEEEE13parse_escapedILb0EEEPKcSP_RmSt17integral_constantIbXT_EEbb
FNA:0,0,_ZN5boost4json12basic_parserINS0_6detail12into_handlerISt6vectorISt3mapINSt7__cxx1112basic_stringIcSt11char_traitsIcESaIcEEEiSt4lessISB_ESaISt4pairIKSB_iEEESaISI_EEEEE13parse_escapedILb1EEEPKcSP_RmSt17integral_constantIbXT_EEbb
FNA:0,0,_ZN5boost4json12basic_parserINS0_6detail12into_handlerISt6vectorISt4pairIiiESaIS6_EEEEE13parse_escapedILb0EEEPKcSD_RmSt17integral_constantIbXT_EEbb
FNA:0,0,_ZN5boost4json12basic_parserINS0_6detail12into_handlerISt6vectorISt4pairIiiESaIS6_EEEEE13parse_escapedILb1EEEPKcSD_RmSt17integral_constantIbXT_EEbb
FNA:0,0,_ZN5boost4json12basic_parserINS0_6detail12into_handlerISt6vectorISt5arrayIiLm4EESaIS6_EEEEE13parse_escapedILb0EEEPKcSD_RmSt17integral_constantIbXT_EEbb
FNA:0,0,_ZN5boost4json12basic_parserINS0_6detail12into_handlerISt6vectorISt5arrayIiLm4EESaIS6_EEEEE13parse_escapedILb1EEEPKcSD_RmSt17integral_constantIbXT_EEbb
FNA:0,0,_ZN5boost4json12basic_parserINS0_6detail12into_handlerISt6vectorIbSaIbEEEEE13parse_escapedILb0EEEPKcSB_RmSt17integral_constantIbXT_EEbb
FNA:0,0,_ZN5boost4json12basic_parserINS0_6detail12into_handlerISt6vectorIbSaIbEEEEE13parse_escapedILb1EEEPKcSB_RmSt17integral_constantIbXT_EEbb
FNA:0,0,_ZN5boost4json12basic_parserINS0_6detail12into_handlerISt6vectorIcSaIcEEEEE13parse_escapedILb0EEEPKcSB_RmSt17integral_constantIbXT_EEbb
FNA:0,0,_ZN5boost4json12basic_parserINS0_6detail12into_handlerISt6vectorIcSaIcEEEEE13parse_escapedILb1EEEPKcSB_RmSt17integral_constantIbXT_EEbb
FNA:0,0,_ZN5boost4json12basic_parserINS0_6detail12into_handlerISt6vectorIfSaIfEEEEE13parse_escapedILb0EEEPKcSB_RmSt17integral_constantIbXT_EEbb
FNA:0,0,_ZN5boost4json12basic_parserINS0_6detail12into_handlerISt6vectorIfSaIfEEEEE13parse_escapedILb1EEEPKcSB_RmSt17integral_constantIbXT_EEbb
FNA:0,0,_ZN5boost4json12basic_parserINS0_6detail12into_handlerISt6vectorIiSaIiEEEEE13parse_escapedILb0EEEPKcSB_RmSt17integral_constantIbXT_EEbb
FNA:0,0,_ZN5boost4json12basic_parserINS0_6detail12into_handlerISt6vectorIiSaIiEEEEE13parse_escapedILb1EEEPKcSB_RmSt17integral_constantIbXT_EEbb
FNA:0,0,_ZN5boost4json12basic_parserINS0_6detail12into_handlerISt6vectorImSaImEEEEE13parse_escapedILb0EEEPKcSB_RmSt17integral_constantIbXT_EEbb
FNA:0,0,_ZN5boost4json12basic_parserINS0_6detail12into_handlerISt6vectorImSaImEEEEE13parse_escapedILb1EEEPKcSB_RmSt17integral_constantIbXT_EEbb
FNA:0,0,_ZN5boost4json12basic_parserINS0_6detail12into_handlerIaEEE13parse_escapedILb0EEEPKcS8_RmSt17integral_constantIbXT_EEbb
FNA:0,0,_ZN5boost4json12basic_parserINS0_6detail12into_handlerIaEEE13parse_escapedILb1EEEPKcS8_RmSt17integral_constantIbXT_EEbb
FNA:0,0,_ZN5boost4json12basic_parserINS0_6detail12into_handlerIbEEE13parse_escapedILb0EEEPKcS8_RmSt17integral_constantIbXT_EEbb
FNA:0,0,_ZN5boost4json12basic_parserINS0_6detail12into_handlerIbEEE13parse_escapedILb1EEEPKcS8_RmSt17integral_constantIbXT_EEbb
FNA:0,0,_ZN5boost4json12basic_parserINS0_6detail12into_handlerIcEEE13parse_escapedILb0EEEPKcS8_RmSt17integral_constantIbXT_EEbb
FNA:0,0,_ZN5boost4json12basic_parserINS0_6detail12into_handlerIcEEE13parse_escapedILb1EEEPKcS8_RmSt17integral_constantIbXT_EEbb
FNA:0,0,_ZN5boost4json12basic_parserINS0_6detail12into_handlerIdEEE13parse_escapedILb0EEEPKcS8_RmSt17integral_constantIbXT_EEbb
FNA:0,0,_ZN5boost4json12basic_parserINS0_6detail12into_handlerIdEEE13parse_escapedILb1EEEPKcS8_RmSt17integral_constantIbXT_EEbb
FNA:0,0,_ZN5boost4json12basic_parserINS0_6detail12into_handlerIfEEE13parse_escapedILb0EEEPKcS8_RmSt17integral_constantIbXT_EEbb
FNA:0,0,_ZN5boost4json12basic_parserINS0_6detail12into_handlerIfEEE13parse_escapedILb1EEEPKcS8_RmSt17integral_constantIbXT_EEbb
FNA:0,0,_ZN5boost4json12basic_parserINS0_6detail12into_handlerIhEEE13parse_escapedILb0EEEPKcS8_RmSt17integral_constantIbXT_EEbb
FNA:0,0,_ZN5boost4json12basic_parserINS0_6detail12into_handlerIhEEE13parse_escapedILb1EEEPKcS8_RmSt17integral_constantIbXT_EEbb
FNA:0,0,_ZN5boost4json12basic_parserINS0_6detail12into_handlerIiEEE13parse_escapedILb0EEEPKcS8_RmSt17integral_constantIbXT_EEbb
FNA:0,0,_ZN5boost4json12basic_parserINS0_6detail12into_handlerIiEEE13parse_escapedILb1EEEPKcS8_RmSt17integral_constantIbXT_EEbb
FNA:0,0,_ZN5boost4json12basic_parserINS0_6detail12into_handlerIjEEE13parse_escapedILb0EEEPKcS8_RmSt17integral_constantIbXT_EEbb
FNA:0,0,_ZN5boost4json12basic_parserINS0_6detail12into_handlerIjEEE13parse_escapedILb1EEEPKcS8_RmSt17integral_constantIbXT_EEbb
FNA:0,0,_ZN5boost4json12basic_parserINS0_6detail12into_handlerIlEEE13parse_escapedILb0EEEPKcS8_RmSt17integral_constantIbXT_EEbb
FNA:0,0,_ZN5boost4json12basic_parserINS0_6detail12into_handlerIlEEE13parse_escapedILb1EEEPKcS8_RmSt17integral_constantIbXT_EEbb
FNA:0,0,_ZN5boost4json12basic_parserINS0_6detail12into_handlerImEEE13parse_escapedILb0EEEPKcS8_RmSt17integral_constantIbXT_EEbb
FNA:0,0,_ZN5boost4json12basic_parserINS0_6detail12into_handlerImEEE13parse_escapedILb1EEEPKcS8_RmSt17integral_constantIbXT_EEbb
FNA:0,0,_ZN5boost4json12basic_parserINS0_6detail12into_handlerIsEEE13parse_escapedILb0EEEPKcS8_RmSt17integral_constantIbXT_EEbb
FNA:0,0,_ZN5boost4json12basic_parserINS0_6detail12into_handlerIsEEE13parse_escapedILb1EEEPKcS8_RmSt17integral_constantIbXT_EEbb
FNA:0,0,_ZN5boost4json12basic_parserINS0_6detail12into_handlerItEEE13parse_escapedILb0EEEPKcS8_RmSt17integral_constantIbXT_EEbb
FNA:0,0,_ZN5boost4json12basic_parserINS0_6detail12into_handlerItEEE13parse_escapedILb1EEEPKcS8_RmSt17integral_constantIbXT_EEbb
FNA:0,0,_ZN5boost4json12basic_parserINS0_6detail12into_handlerIxEEE13parse_escapedILb0EEEPKcS8_RmSt17integral_constantIbXT_EEbb
FNA:0,0,_ZN5boost4json12basic_parserINS0_6detail12into_handlerIxEEE13parse_escapedILb1EEEPKcS8_RmSt17integral_constantIbXT_EEbb
FNA:0,0,_ZN5boost4json12basic_parserINS0_6detail12into_handlerIyEEE13parse_escapedILb0EEEPKcS8_RmSt17integral_constantIbXT_EEbb
FNA:0,0,_ZN5boost4json12basic_parserINS0_6detail12into_handlerIyEEE13parse_escapedILb1EEEPKcS8_RmSt17integral_constantIbXT_EEbb
FNA:0,111,_ZN5boost4json12basic_parserINS0_6detail7handlerEE13parse_escapedILb0EEEPKcS7_RmSt17integral_constantIbXT_EEbb
FNA:0,405,_ZN5boost4json12basic_parserINS0_6detail7handlerEE13parse_escapedILb1EEEPKcS7_RmSt17integral_constantIbXT_EEbb
FNL:1,148,168
FNA:1,1033693,_ZN5boost4json6detail12dec_to_floatEmib
FNL:2,1699,1857
FNA:2,8187,_ZN5boost4json12basic_parserINS0_11fail_parser7handlerEE12parse_objectILb0ELb0EEEPKcS7_St17integral_constantIbXT_EES8_IbXT0_EEbbb
FNA:2,953,_ZN5boost4json12basic_parserINS0_11fail_parser7handlerEE12parse_objectILb0ELb1EEEPKcS7_St17integral_constantIbXT_EES8_IbXT0_EEbbb
FNA:2,17951,_ZN5boost4json12basic_parserINS0_11fail_parser7handlerEE12parse_objectILb1ELb0EEEPKcS7_St17integral_constantIbXT_EES8_IbXT0_EEbbb
FNA:2,2144,_ZN5boost4json12basic_parserINS0_11fail_parser7handlerEE12parse_objectILb1ELb1EEEPKcS7_St17integral_constantIbXT_EES8_IbXT0_EEbbb
FNA:2,0,_ZN5boost4json12basic_parserINS0_11null_parser7handlerEE12parse_objectILb0ELb0EEEPKcS7_St17integral_constantIbXT_EES8_IbXT0_EEbbb
FNA:2,0,_ZN5boost4json12basic_parserINS0_11null_parser7handlerEE12parse_objectILb0ELb1EEEPKcS7_St17integral_constantIbXT_EES8_IbXT0_EEbbb
FNA:2,13,_ZN5boost4json12basic_parserINS0_11null_parser7handlerEE12parse_objectILb1ELb0EEEPKcS7_St17integral_constantIbXT_EES8_IbXT0_EEbbb
FNA:2,0,_ZN5boost4json12basic_parserINS0_11null_parser7handlerEE12parse_objectILb1ELb1EEEPKcS7_St17integral_constantIbXT_EES8_IbXT0_EEbbb
FNA:2,8187,_ZN5boost4json12basic_parserINS0_12throw_parser7handlerEE12parse_objectILb0ELb0EEEPKcS7_St17integral_constantIbXT_EES8_IbXT0_EEbbb
FNA:2,953,_ZN5boost4json12basic_parserINS0_12throw_parser7handlerEE12parse_objectILb0ELb1EEEPKcS7_St17integral_constantIbXT_EES8_IbXT0_EEbbb
FNA:2,17274,_ZN5boost4json12basic_parserINS0_12throw_parser7handlerEE12parse_objectILb1ELb0EEEPKcS7_St17integral_constantIbXT_EES8_IbXT0_EEbbb
FNA:2,1641,_ZN5boost4json12basic_parserINS0_12throw_parser7handlerEE12parse_objectILb1ELb1EEEPKcS7_St17integral_constantIbXT_EES8_IbXT0_EEbbb
FNA:2,0,_ZN5boost4json12basic_parserINS0_17basic_parser_test11utf8_parser7handlerEE12parse_objectILb0ELb0EEEPKcS8_St17integral_constantIbXT_EES9_IbXT0_EEbbb
FNA:2,0,_ZN5boost4json12basic_parserINS0_17basic_parser_test11utf8_parser7handlerEE12parse_objectILb0ELb1EEEPKcS8_St17integral_constantIbXT_EES9_IbXT0_EEbbb
FNA:2,0,_ZN5boost4json12basic_parserINS0_17basic_parser_test11utf8_parser7handlerEE12parse_objectILb1ELb0EEEPKcS8_St17integral_constantIbXT_EES9_IbXT0_EEbbb
FNA:2,0,_ZN5boost4json12basic_parserINS0_17basic_parser_test11utf8_parser7handlerEE12parse_objectILb1ELb1EEEPKcS8_St17integral_constantIbXT_EES9_IbXT0_EEbbb
FNA:2,0,_ZN5boost4json12basic_parserINS0_17basic_parser_test14comment_parser7handlerEE12parse_objectILb0ELb0EEEPKcS8_St17integral_constantIbXT_EES9_IbXT0_EEbbb
FNA:2,0,_ZN5boost4json12basic_parserINS0_17basic_parser_test14comment_parser7handlerEE12parse_objectILb0ELb1EEEPKcS8_St17integral_constantIbXT_EES9_IbXT0_EEbbb
FNA:2,0,_ZN5boost4json12basic_parserINS0_17basic_parser_test14comment_parser7handlerEE12parse_objectILb1ELb0EEEPKcS8_St17integral_constantIbXT_EES9_IbXT0_EEbbb
FNA:2,6,_ZN5boost4json12basic_parserINS0_17basic_parser_test14comment_parser7handlerEE12parse_objectILb1ELb1EEEPKcS8_St17integral_constantIbXT_EES9_IbXT0_EEbbb
FNA:2,0,_ZN5boost4json12basic_parserINS0_17basic_parser_test14literal_parser7handlerEE12parse_objectILb0ELb0EEEPKcS8_St17integral_constantIbXT_EES9_IbXT0_EEbbb
FNA:2,0,_ZN5boost4json12basic_parserINS0_17basic_parser_test14literal_parser7handlerEE12parse_objectILb0ELb1EEEPKcS8_St17integral_constantIbXT_EES9_IbXT0_EEbbb
FNA:2,0,_ZN5boost4json12basic_parserINS0_17basic_parser_test14literal_parser7handlerEE12parse_objectILb1ELb0EEEPKcS8_St17integral_constantIbXT_EES9_IbXT0_EEbbb
FNA:2,0,_ZN5boost4json12basic_parserINS0_17basic_parser_test14literal_parser7handlerEE12parse_objectILb1ELb1EEEPKcS8_St17integral_constantIbXT_EES9_IbXT0_EEbbb
FNA:2,0,_ZN5boost4json12basic_parserINS0_17basic_parser_test15std_null_parser7handlerEE12parse_objectILb0ELb0EEEPKcS8_St17integral_constantIbXT_EES9_IbXT0_EEbbb
FNA:2,0,_ZN5boost4json12basic_parserINS0_17basic_parser_test15std_null_parser7handlerEE12parse_objectILb0ELb1EEEPKcS8_St17integral_constantIbXT_EES9_IbXT0_EEbbb
FNA:2,1,_ZN5boost4json12basic_parserINS0_17basic_parser_test15std_null_parser7handlerEE12parse_objectILb1ELb0EEEPKcS8_St17integral_constantIbXT_EES9_IbXT0_EEbbb
FNA:2,0,_ZN5boost4json12basic_parserINS0_17basic_parser_test15std_null_parser7handlerEE12parse_objectILb1ELb1EEEPKcS8_St17integral_constantIbXT_EES9_IbXT0_EEbbb
FNA:2,0,_ZN5boost4json12basic_parserINS0_6detail12into_handlerIDnEEE12parse_objectILb0ELb0EEEPKcS8_St17integral_constantIbXT_EES9_IbXT0_EEbbb
FNA:2,0,_ZN5boost4json12basic_parserINS0_6detail12into_handlerIDnEEE12parse_objectILb0ELb1EEEPKcS8_St17integral_constantIbXT_EES9_IbXT0_EEbbb
FNA:2,0,_ZN5boost4json12basic_parserINS0_6detail12into_handlerIDnEEE12parse_objectILb1ELb0EEEPKcS8_St17integral_constantIbXT_EES9_IbXT0_EEbbb
FNA:2,0,_ZN5boost4json12basic_parserINS0_6detail12into_handlerIDnEEE12parse_objectILb1ELb1EEEPKcS8_St17integral_constantIbXT_EES9_IbXT0_EEbbb
FNA:2,0,_ZN5boost4json12basic_parserINS0_6detail12into_handlerINS0_6stringEEEE12parse_objectILb0ELb0EEEPKcS9_St17integral_constantIbXT_EESA_IbXT0_EEbbb
FNA:2,0,_ZN5boost4json12basic_parserINS0_6detail12into_handlerINS0_6stringEEEE12parse_objectILb0ELb1EEEPKcS9_St17integral_constantIbXT_EESA_IbXT0_EEbbb
FNA:2,0,_ZN5boost4json12basic_parserINS0_6detail12into_handlerINS0_6stringEEEE12parse_objectILb1ELb0EEEPKcS9_St17integral_constantIbXT_EESA_IbXT0_EEbbb
FNA:2,0,_ZN5boost4json12basic_parserINS0_6detail12into_handlerINS0_6stringEEEE12parse_objectILb1ELb1EEEPKcS9_St17integral_constantIbXT_EESA_IbXT0_EEbbb
FNA:2,0,_ZN5boost4json12basic_parserINS0_6detail12into_handlerINS_8variant27variantIJNS4_9monostateEEEEEEE12parse_objectILb0ELb0EEEPKcSC_St17integral_constantIbXT_EESD_IbXT0_EEbbb
FNA:2,0,_ZN5boost4json12basic_parserINS0_6detail12into_handlerINS_8variant27variantIJNS4_9monostateEEEEEEE12parse_objectILb0ELb1EEEPKcSC_St17integral_constantIbXT_EESD_IbXT0_EEbbb
FNA:2,0,_ZN5boost4json12basic_parserINS0_6detail12into_handlerINS_8variant27variantIJNS4_9monostateEEEEEEE12parse_objectILb1ELb0EEEPKcSC_St17integral_constantIbXT_EESD_IbXT0_EEbbb
FNA:2,0,_ZN5boost4json12basic_parserINS0_6detail12into_handlerINS_8variant27variantIJNS4_9monostateEEEEEEE12parse_objectILb1ELb1EEEPKcSC_St17integral_constantIbXT_EESD_IbXT0_EEbbb
FNA:2,0,_ZN5boost4json12basic_parserINS0_6detail12into_handlerINS_8variant27variantIJNS4_9monostateESt6vectorIiSaIiEEEEEEEE12parse_objectILb0ELb0EEEPKcSF_St17integral_constantIbXT_EESG_IbXT0_EEbbb
FNA:2,0,_ZN5boost4json12basic_parserINS0_6detail12into_handlerINS_8variant27variantIJNS4_9monostateESt6vectorIiSaIiEEEEEEEE12parse_objectILb0ELb1EEEPKcSF_St17integral_constantIbXT_EESG_IbXT0_EEbbb
FNA:2,0,_ZN5boost4json12basic_parserINS0_6detail12into_handlerINS_8variant27variantIJNS4_9monostateESt6vectorIiSaIiEEEEEEEE12parse_objectILb1ELb0EEEPKcSF_St17integral_constantIbXT_EESG_IbXT0_EEbbb
FNA:2,0,_ZN5boost4json12basic_parserINS0_6detail12into_handlerINS_8variant27variantIJNS4_9monostateESt6vectorIiSaIiEEEEEEEE12parse_objectILb1ELb1EEEPKcSF_St17integral_constantIbXT_EESG_IbXT0_EEbbb
FNA:2,0,_ZN5boost4json12basic_parserINS0_6detail12into_handlerINS_8variant27variantIJNS4_9monostateEiNSt7__cxx1112basic_stringIcSt11char_traitsIcESaIcEEEEEEEEE12parse_objectILb0ELb0EEEPKcSI_St17integral_constantIbXT_EESJ_IbXT0_EEbbb
FNA:2,0,_ZN5boost4json12basic_parserINS0_6detail12into_handlerINS_8variant27variantIJNS4_9monostateEiNSt7__cxx1112basic_stringIcSt11char_traitsIcESaIcEEEEEEEEE12parse_objectILb0ELb1EEEPKcSI_St17integral_constantIbXT_EESJ_IbXT0_EEbbb
FNA:2,0,_ZN5boost4json12basic_parserINS0_6detail12into_handlerINS_8variant27variantIJNS4_9monostateEiNSt7__cxx1112basic_stringIcSt11char_traitsIcESaIcEEEEEEEEE12parse_objectILb1ELb0EEEPKcSI_St17integral_constantIbXT_EESJ_IbXT0_EEbbb
FNA:2,0,_ZN5boost4json12basic_parserINS0_6detail12into_handlerINS_8variant27variantIJNS4_9monostateEiNSt7__cxx1112basic_stringIcSt11char_traitsIcESaIcEEEEEEEEE12parse_objectILb1ELb1EEEPKcSI_St17integral_constantIbXT_EESJ_IbXT0_EEbbb
FNA:2,0,_ZN5boost4json12basic_parserINS0_6detail12into_handlerINS_8variant27variantIJNS4_9monostateEibEEEEEE12parse_objectILb0ELb0EEEPKcSC_St17integral_constantIbXT_EESD_IbXT0_EEbbb
FNA:2,0,_ZN5boost4json12basic_parserINS0_6detail12into_handlerINS_8variant27variantIJNS4_9monostateEibEEEEEE12parse_objectILb0ELb1EEEPKcSC_St17integral_constantIbXT_EESD_IbXT0_EEbbb
FNA:2,0,_ZN5boost4json12basic_parserINS0_6detail12into_handlerINS_8variant27variantIJNS4_9monostateEibEEEEEE12parse_objectILb1ELb0EEEPKcSC_St17integral_constantIbXT_EESD_IbXT0_EEbbb
FNA:2,0,_ZN5boost4json12basic_parserINS0_6detail12into_handlerINS_8variant27variantIJNS4_9monostateEibEEEEEE12parse_objectILb1ELb1EEEPKcSC_St17integral_constantIbXT_EESD_IbXT0_EEbbb
FNA:2,0,_ZN5boost4json12basic_parserINS0_6detail12into_handlerINS_8variant27variantIJSt6vectorIiSaIiEEEEEEEE12parse_objectILb0ELb0EEEPKcSE_St17integral_constantIbXT_EESF_IbXT0_EEbbb
FNA:2,0,_ZN5boost4json12basic_parserINS0_6detail12into_handlerINS_8variant27variantIJSt6vectorIiSaIiEEEEEEEE12parse_objectILb0ELb1EEEPKcSE_St17integral_constantIbXT_EESF_IbXT0_EEbbb
FNA:2,0,_ZN5boost4json12basic_parserINS0_6detail12into_handlerINS_8variant27variantIJSt6vectorIiSaIiEEEEEEEE12parse_objectILb1ELb0EEEPKcSE_St17integral_constantIbXT_EESF_IbXT0_EEbbb
FNA:2,0,_ZN5boost4json12basic_parserINS0_6detail12into_handlerINS_8variant27variantIJSt6vectorIiSaIiEEEEEEEE12parse_objectILb1ELb1EEEPKcSE_St17integral_constantIbXT_EESF_IbXT0_EEbbb
FNA:2,0,_ZN5boost4json12basic_parserINS0_6detail12into_handlerINS_8variant27variantIJSt6vectorIiSaIiEESt5tupleIJiNSt7__cxx1112basic_stringIcSt11char_traitsIcESaIcEEESt3mapISF_iSt4lessISF_ESaISt4pairIKSF_iEEEEES9_IJiSF_SG_ISF_dSI_SaISJ_ISK_dEEEEEEEEEEE12parse_objectILb0ELb0EEEPKcSY_St17integral_constantIbXT_EESZ_IbXT0_EEbbb
FNA:2,22,_ZN5boost4json12basic_parserINS0_6detail12into_handlerINS_8variant27variantIJSt6vectorIiSaIiEESt5tupleIJiNSt7__cxx1112basic_stringIcSt11char_traitsIcESaIcEEESt3mapISF_iSt4lessISF_ESaISt4pairIKSF_iEEEEES9_IJiSF_SG_ISF_dSI_SaISJ_ISK_dEEEEEEEEEEE12parse_objectILb0ELb1EEEPKcSY_St17integral_constantIbXT_EESZ_IbXT0_EEbbb
FNA:2,6,_ZN5boost4json12basic_parserINS0_6detail12into_handlerINS_8variant27variantIJSt6vectorIiSaIiEESt5tupleIJiNSt7__cxx1112basic_stringIcSt11char_traitsIcESaIcEEESt3mapISF_iSt4lessISF_ESaISt4pairIKSF_iEEEEES9_IJiSF_SG_ISF_dSI_SaISJ_ISK_dEEEEEEEEEEE12parse_objectILb1ELb0EEEPKcSY_St17integral_constantIbXT_EESZ_IbXT0_EEbbb
FNA:2,1,_ZN5boost4json12basic_parserINS0_6detail12into_handlerINS_8variant27variantIJSt6vectorIiSaIiEESt5tupleIJiNSt7__cxx1112basic_stringIcSt11char_traitsIcESaIcEEESt3mapISF_iSt4lessISF_ESaISt4pairIKSF_iEEEEES9_IJiSF_SG_ISF_dSI_SaISJ_ISK_dEEEEEEEEEEE12parse_objectILb1ELb1EEEPKcSY_St17integral_constantIbXT_EESZ_IbXT0_EEbbb
FNA:2,0,_ZN5boost4json12basic_parserINS0_6detail12into_handlerINS_8variant27variantIJbmEEEEEE12parse_objectILb0ELb0EEEPKcSB_St17integral_constantIbXT_EESC_IbXT0_EEbbb
FNA:2,0,_ZN5boost4json12basic_parserINS0_6detail12into_handlerINS_8variant27variantIJbmEEEEEE12parse_objectILb0ELb1EEEPKcSB_St17integral_constantIbXT_EESC_IbXT0_EEbbb
FNA:2,0,_ZN5boost4json12basic_parserINS0_6detail12into_handlerINS_8variant27variantIJbmEEEEEE12parse_objectILb1ELb0EEEPKcSB_St17integral_constantIbXT_EESC_IbXT0_EEbbb
FNA:2,0,_ZN5boost4json12basic_parserINS0_6detail12into_handlerINS_8variant27variantIJbmEEEEEE12parse_objectILb1ELb1EEEPKcSB_St17integral_constantIbXT_EESC_IbXT0_EEbbb
FNA:2,0,_ZN5boost4json12basic_parserINS0_6detail12into_handlerINS_8variant27variantIJiEEEEEE12parse_objectILb0ELb0EEEPKcSB_St17integral_constantIbXT_EESC_IbXT0_EEbbb
FNA:2,0,_ZN5boost4json12basic_parserINS0_6detail12into_handlerINS_8variant27variantIJiEEEEEE12parse_objectILb0ELb1EEEPKcSB_St17integral_constantIbXT_EESC_IbXT0_EEbbb
FNA:2,0,_ZN5boost4json12basic_parserINS0_6detail12into_handlerINS_8variant27variantIJiEEEEEE12parse_objectILb1ELb0EEEPKcSB_St17integral_constantIbXT_EESC_IbXT0_EEbbb
FNA:2,0,_ZN5boost4json12basic_parserINS0_6detail12into_handlerINS_8variant27variantIJiEEEEEE12parse_objectILb1ELb1EEEPKcSB_St17integral_constantIbXT_EESC_IbXT0_EEbbb
FNA:2,0,_ZN5boost4json12basic_parserINS0_6detail12into_handlerINS_8variant27variantIJiNSt7__cxx1112basic_stringIcSt11char_traitsIcESaIcEEEEEEEEE12parse_objectILb0ELb0EEEPKcSH_St17integral_constantIbXT_EESI_IbXT0_EEbbb
FNA:2,0,_ZN5boost4json12basic_parserINS0_6detail12into_handlerINS_8variant27variantIJiNSt7__cxx1112basic_stringIcSt11char_traitsIcESaIcEEEEEEEEE12parse_objectILb0ELb1EEEPKcSH_St17integral_constantIbXT_EESI_IbXT0_EEbbb
FNA:2,0,_ZN5boost4json12basic_parserINS0_6detail12into_handlerINS_8variant27variantIJiNSt7__cxx1112basic_stringIcSt11char_traitsIcESaIcEEEEEEEEE12parse_objectILb1ELb0EEEPKcSH_St17integral_constantIbXT_EESI_IbXT0_EEbbb
FNA:2,0,_ZN5boost4json12basic_parserINS0_6detail12into_handlerINS_8variant27variantIJiNSt7__cxx1112basic_stringIcSt11char_traitsIcESaIcEEEEEEEEE12parse_objectILb1ELb1EEEPKcSH_St17integral_constantIbXT_EESI_IbXT0_EEbbb
FNA:2,0,_ZN5boost4json12basic_parserINS0_6detail12into_handlerINSt7__cxx1112basic_stringIcSt11char_traitsIcESaIcEEEEEE12parse_objectILb0ELb0EEEPKcSE_St17integral_constantIbXT_EESF_IbXT0_EEbbb
FNA:2,0,_ZN5boost4json12basic_parserINS0_6detail12into_handlerINSt7__cxx1112basic_stringIcSt11char_traitsIcESaIcEEEEEE12parse_objectILb0ELb1EEEPKcSE_St17integral_constantIbXT_EESF_IbXT0_EEbbb
FNA:2,0,_ZN5boost4json12basic_parserINS0_6detail12into_handlerINSt7__cxx1112basic_stringIcSt11char_traitsIcESaIcEEEEEE12parse_objectILb1ELb0EEEPKcSE_St17integral_constantIbXT_EESF_IbXT0_EEbbb
FNA:2,0,_ZN5boost4json12basic_parserINS0_6detail12into_handlerINSt7__cxx1112basic_stringIcSt11char_traitsIcESaIcEEEEEE12parse_objectILb1ELb1EEEPKcSE_St17integral_constantIbXT_EESF_IbXT0_EEbbb
FNA:2,13,_ZN5boost4json12basic_parserINS0_6detail12into_handlerISt3mapINSt7__cxx1112basic_stringIcSt11char_traitsIcESaIcEEES4_ISA_iSt4lessISA_ESaISt4pairIKSA_iEEESC_SaISD_ISE_SH_EEEEEE12parse_objectILb0ELb0EEEPKcSP_St17integral_constantIbXT_EESQ_IbXT0_EEbbb
FNA:2,43,_ZN5boost4json12basic_parserINS0_6detail12into_handlerISt3mapINSt7__cxx1112basic_stringIcSt11char_traitsIcESaIcEEES4_ISA_iSt4lessISA_ESaISt4pairIKSA_iEEESC_SaISD_ISE_SH_EEEEEE12parse_objectILb0ELb1EEEPKcSP_St17integral_constantIbXT_EESQ_IbXT0_EEbbb
FNA:2,28,_ZN5boost4json12basic_parserINS0_6detail12into_handlerISt3mapINSt7__cxx1112basic_stringIcSt11char_traitsIcESaIcEEES4_ISA_iSt4lessISA_ESaISt4pairIKSA_iEEESC_SaISD_ISE_SH_EEEEEE12parse_objectILb1ELb0EEEPKcSP_St17integral_constantIbXT_EESQ_IbXT0_EEbbb
FNA:2,4,_ZN5boost4json12basic_parserINS0_6detail12into_handlerISt3mapINSt7__cxx1112basic_stringIcSt11char_traitsIcESaIcEEES4_ISA_iSt4lessISA_ESaISt4pairIKSA_iEEESC_SaISD_ISE_SH_EEEEEE12parse_objectILb1ELb1EEEPKcSP_St17integral_constantIbXT_EESQ_IbXT0_EEbbb
FNA:2,8,_ZN5boost4json12basic_parserINS0_6detail12into_handlerISt3mapINSt7__cxx1112basic_stringIcSt11char_traitsIcESaIcEEESt5tupleIJiiEESt4lessISA_ESaISt4pairIKSA_SC_EEEEEE12parse_objectILb0ELb0EEEPKcSO_St17integral_constantIbXT_EESP_IbXT0_EEbbb
FNA:2,0,_ZN5boost4json12basic_parserINS0_6detail12into_handlerISt3mapINSt7__cxx1112basic_stringIcSt11char_traitsIcESaIcEEESt5tupleIJiiEESt4lessISA_ESaISt4pairIKSA_SC_EEEEEE12parse_objectILb0ELb1EEEPKcSO_St17integral_constantIbXT_EESP_IbXT0_EEbbb
FNA:2,2,_ZN5boost4json12basic_parserINS0_6detail12into_handlerISt3mapINSt7__cxx1112basic_stringIcSt11char_traitsIcESaIcEEESt5tupleIJiiEESt4lessISA_ESaISt4pairIKSA_SC_EEEEEE12parse_objectILb1ELb0EEEPKcSO_St17integral_constantIbXT_EESP_IbXT0_EEbbb
FNA:2,0,_ZN5boost4json12basic_parserINS0_6detail12into_handlerISt3mapINSt7__cxx1112basic_stringIcSt11char_traitsIcESaIcEEESt5tupleIJiiEESt4lessISA_ESaISt4pairIKSA_SC_EEEEEE12parse_objectILb1ELb1EEEPKcSO_St17integral_constantIbXT_EESP_IbXT0_EEbbb
FNA:2,0,_ZN5boost4json12basic_parserINS0_6detail12into_handlerISt3mapINSt7__cxx1112basic_stringIcSt11char_traitsIcESaIcEEESt6vectorISt4pairIiiESaISD_EESt4lessISA_ESaISC_IKSA_SF_EEEEEE12parse_objectILb0ELb0EEEPKcSQ_St17integral_constantIbXT_EESR_IbXT0_EEbbb
FNA:2,30,_ZN5boost4json12basic_parserINS0_6detail12into_handlerISt3mapINSt7__cxx1112basic_stringIcSt11char_traitsIcESaIcEEESt6vectorISt4pairIiiESaISD_EESt4lessISA_ESaISC_IKSA_SF_EEEEEE12parse_objectILb0ELb1EEEPKcSQ_St17integral_constantIbXT_EESR_IbXT0_EEbbb
FNA:2,18,_ZN5boost4json12basic_parserINS0_6detail12into_handlerISt3mapINSt7__cxx1112basic_stringIcSt11char_traitsIcESaIcEEESt6vectorISt4pairIiiESaISD_EESt4lessISA_ESaISC_IKSA_SF_EEEEEE12parse_objectILb1ELb0EEEPKcSQ_St17integral_constantIbXT_EESR_IbXT0_EEbbb
FNA:2,3,_ZN5boost4json12basic_parserINS0_6detail12into_handlerISt3mapINSt7__cxx1112basic_stringIcSt11char_traitsIcESaIcEEESt6vectorISt4pairIiiESaISD_EESt4lessISA_ESaISC_IKSA_SF_EEEEEE12parse_objectILb1ELb1EEEPKcSQ_St17integral_constantIbXT_EESR_IbXT0_EEbbb
FNA:2,0,_ZN5boost4json12basic_parserINS0_6detail12into_handlerISt3mapINSt7__cxx1112basic_stringIcSt11char_traitsIcESaIcEEESt6vectorIiSaIiEESt4lessISA_ESaISt4pairIKSA_SD_EEEEEE12parse_objectILb0ELb0EEEPKcSP_St17integral_constantIbXT_EESQ_IbXT0_EEbbb
FNA:2,23,_ZN5boost4json12basic_parserINS0_6detail12into_handlerISt3mapINSt7__cxx1112basic_stringIcSt11char_traitsIcESaIcEEESt6vectorIiSaIiEESt4lessISA_ESaISt4pairIKSA_SD_EEEEEE12parse_objectILb0ELb1EEEPKcSP_St17integral_constantIbXT_EESQ_IbXT0_EEbbb
FNA:2,13,_ZN5boost4json12basic_parserINS0_6detail12into_handlerISt3mapINSt7__cxx1112basic_stringIcSt11char_traitsIcESaIcEEESt6vectorIiSaIiEESt4lessISA_ESaISt4pairIKSA_SD_EEEEEE12parse_objectILb1ELb0EEEPKcSP_St17integral_constantIbXT_EESQ_IbXT0_EEbbb
FNA:2,2,_ZN5boost4json12basic_parserINS0_6detail12into_handlerISt3mapINSt7__cxx1112basic_stringIcSt11char_traitsIcESaIcEEESt6vectorIiSaIiEESt4lessISA_ESaISt4pairIKSA_SD_EEEEEE12parse_objectILb1ELb1EEEPKcSP_St17integral_constantIbXT_EESQ_IbXT0_EEbbb
FNA:2,0,_ZN5boost4json12basic_parserINS0_6detail12into_handlerISt3mapINSt7__cxx1112basic_stringIcSt11char_traitsIcESaIcEEEiSt4lessISA_ESaISt4pairIKSA_iEEEEEE12parse_objectILb0ELb0EEEPKcSM_St17integral_constantIbXT_EESN_IbXT0_EEbbb
FNA:2,34,_ZN5boost4json12basic_parserINS0_6detail12into_handlerISt3mapINSt7__cxx1112basic_stringIcSt11char_traitsIcESaIcEEEiSt4lessISA_ESaISt4pairIKSA_iEEEEEE12parse_objectILb0ELb1EEEPKcSM_St17integral_constantIbXT_EESN_IbXT0_EEbbb
FNA:2,26,_ZN5boost4json12basic_parserINS0_6detail12into_handlerISt3mapINSt7__cxx1112basic_stringIcSt11char_traitsIcESaIcEEEiSt4lessISA_ESaISt4pairIKSA_iEEEEEE12parse_objectILb1ELb0EEEPKcSM_St17integral_constantIbXT_EESN_IbXT0_EEbbb
FNA:2,4,_ZN5boost4json12basic_parserINS0_6detail12into_handlerISt3mapINSt7__cxx1112basic_stringIcSt11char_traitsIcESaIcEEEiSt4lessISA_ESaISt4pairIKSA_iEEEEEE12parse_objectILb1ELb1EEEPKcSM_St17integral_constantIbXT_EESN_IbXT0_EEbbb
FNA:2,0,_ZN5boost4json12basic_parserINS0_6detail12into_handlerISt4pairIDnmEEEE12parse_objectILb0ELb0EEEPKcSA_St17integral_constantIbXT_EESB_IbXT0_EEbbb
FNA:2,0,_ZN5boost4json12basic_parserINS0_6detail12into_handlerISt4pairIDnmEEEE12parse_objectILb0ELb1EEEPKcSA_St17integral_constantIbXT_EESB_IbXT0_EEbbb
FNA:2,0,_ZN5boost4json12basic_parserINS0_6detail12into_handlerISt4pairIDnmEEEE12parse_objectILb1ELb0EEEPKcSA_St17integral_constantIbXT_EESB_IbXT0_EEbbb
FNA:2,0,_ZN5boost4json12basic_parserINS0_6detail12into_handlerISt4pairIDnmEEEE12parse_objectILb1ELb1EEEPKcSA_St17integral_constantIbXT_EESB_IbXT0_EEbbb
FNA:2,0,_ZN5boost4json12basic_parserINS0_6detail12into_handlerISt4pairISt6vectorIiSaIiEESt3mapINSt7__cxx1112basic_stringIcSt11char_traitsIcESaIcEEES4_IibESt4lessISE_ESaIS4_IKSE_SF_EEEEEEE12parse_objectILb0ELb0EEEPKcSR_St17integral_constantIbXT_EESS_IbXT0_EEbbb
FNA:2,16,_ZN5boost4json12basic_parserINS0_6detail12into_handlerISt4pairISt6vectorIiSaIiEESt3mapINSt7__cxx1112basic_stringIcSt11char_traitsIcESaIcEEES4_IibESt4lessISE_ESaIS4_IKSE_SF_EEEEEEE12parse_objectILb0ELb1EEEPKcSR_St17integral_constantIbXT_EESS_IbXT0_EEbbb
FNA:2,12,_ZN5boost4json12basic_parserINS0_6detail12into_handlerISt4pairISt6vectorIiSaIiEESt3mapINSt7__cxx1112basic_stringIcSt11char_traitsIcESaIcEEES4_IibESt4lessISE_ESaIS4_IKSE_SF_EEEEEEE12parse_objectILb1ELb0EEEPKcSR_St17integral_constantIbXT_EESS_IbXT0_EEbbb
FNA:2,2,_ZN5boost4json12basic_parserINS0_6detail12into_handlerISt4pairISt6vectorIiSaIiEESt3mapINSt7__cxx1112basic_stringIcSt11char_traitsIcESaIcEEES4_IibESt4lessISE_ESaIS4_IKSE_SF_EEEEEEE12parse_objectILb1ELb1EEEPKcSR_St17integral_constantIbXT_EESS_IbXT0_EEbbb
FNA:2,0,_ZN5boost4json12basic_parserINS0_6detail12into_handlerISt4pairIiiEEEE12parse_objectILb0ELb0EEEPKcSA_St17integral_constantIbXT_EESB_IbXT0_EEbbb
FNA:2,0,_ZN5boost4json12basic_parserINS0_6detail12into_handlerISt4pairIiiEEEE12parse_objectILb0ELb1EEEPKcSA_St17integral_constantIbXT_EESB_IbXT0_EEbbb
FNA:2,0,_ZN5boost4json12basic_parserINS0_6detail12into_handlerISt4pairIiiEEEE12parse_objectILb1ELb0EEEPKcSA_St17integral_constantIbXT_EESB_IbXT0_EEbbb
FNA:2,0,_ZN5boost4json12basic_parserINS0_6detail12into_handlerISt4pairIiiEEEE12parse_objectILb1ELb1EEEPKcSA_St17integral_constantIbXT_EESB_IbXT0_EEbbb
FNA:2,0,_ZN5boost4json12basic_parserINS0_6detail12into_handlerISt5arrayIiLm4EEEEE12parse_objectILb0ELb0EEEPKcSA_St17integral_constantIbXT_EESB_IbXT0_EEbbb
FNA:2,0,_ZN5boost4json12basic_parserINS0_6detail12into_handlerISt5arrayIiLm4EEEEE12parse_objectILb0ELb1EEEPKcSA_St17integral_constantIbXT_EESB_IbXT0_EEbbb
FNA:2,0,_ZN5boost4json12basic_parserINS0_6detail12into_handlerISt5arrayIiLm4EEEEE12parse_objectILb1ELb0EEEPKcSA_St17integral_constantIbXT_EESB_IbXT0_EEbbb
FNA:2,0,_ZN5boost4json12basic_parserINS0_6detail12into_handlerISt5arrayIiLm4EEEEE12parse_objectILb1ELb1EEEPKcSA_St17integral_constantIbXT_EESB_IbXT0_EEbbb
FNA:2,0,_ZN5boost4json12basic_parserINS0_6detail12into_handlerISt5tupleIJSt6vectorIiSaIiEEEEEEE12parse_objectILb0ELb0EEEPKcSD_St17integral_constantIbXT_EESE_IbXT0_EEbbb
FNA:2,0,_ZN5boost4json12basic_parserINS0_6detail12into_handlerISt5tupleIJSt6vectorIiSaIiEEEEEEE12parse_objectILb0ELb1EEEPKcSD_St17integral_constantIbXT_EESE_IbXT0_EEbbb
FNA:2,0,_ZN5boost4json12basic_parserINS0_6detail12into_handlerISt5tupleIJSt6vectorIiSaIiEEEEEEE12parse_objectILb1ELb0EEEPKcSD_St17integral_constantIbXT_EESE_IbXT0_EEbbb
FNA:2,0,_ZN5boost4json12basic_parserINS0_6detail12into_handlerISt5tupleIJSt6vectorIiSaIiEEEEEEE12parse_objectILb1ELb1EEEPKcSD_St17integral_constantIbXT_EESE_IbXT0_EEbbb
FNA:2,0,_ZN5boost4json12basic_parserINS0_6detail12into_handlerISt5tupleIJifNSt7__cxx1112basic_stringIcSt11char_traitsIcESaIcEEEEEEEE12parse_objectILb0ELb0EEEPKcSG_St17integral_constantIbXT_EESH_IbXT0_EEbbb
FNA:2,0,_ZN5boost4json12basic_parserINS0_6detail12into_handlerISt5tupleIJifNSt7__cxx1112basic_stringIcSt11char_traitsIcESaIcEEEEEEEE12parse_objectILb0ELb1EEEPKcSG_St17integral_constantIbXT_EESH_IbXT0_EEbbb
FNA:2,0,_ZN5boost4json12basic_parserINS0_6detail12into_handlerISt5tupleIJifNSt7__cxx1112basic_stringIcSt11char_traitsIcESaIcEEEEEEEE12parse_objectILb1ELb0EEEPKcSG_St17integral_constantIbXT_EESH_IbXT0_EEbbb
FNA:2,0,_ZN5boost4json12basic_parserINS0_6detail12into_handlerISt5tupleIJifNSt7__cxx1112basic_stringIcSt11char_traitsIcESaIcEEEEEEEE12parse_objectILb1ELb1EEEPKcSG_St17integral_constantIbXT_EESH_IbXT0_EEbbb
FNA:2,0,_ZN5boost4json12basic_parserINS0_6detail12into_handlerISt5tupleIJiiiEEEEE12parse_objectILb0ELb0EEEPKcSA_St17integral_constantIbXT_EESB_IbXT0_EEbbb
FNA:2,0,_ZN5boost4json12basic_parserINS0_6detail12into_handlerISt5tupleIJiiiEEEEE12parse_objectILb0ELb1EEEPKcSA_St17integral_constantIbXT_EESB_IbXT0_EEbbb
FNA:2,0,_ZN5boost4json12basic_parserINS0_6detail12into_handlerISt5tupleIJiiiEEEEE12parse_objectILb1ELb0EEEPKcSA_St17integral_constantIbXT_EESB_IbXT0_EEbbb
FNA:2,0,_ZN5boost4json12basic_parserINS0_6detail12into_handlerISt5tupleIJiiiEEEEE12parse_objectILb1ELb1EEEPKcSA_St17integral_constantIbXT_EESB_IbXT0_EEbbb
FNA:2,0,_ZN5boost4json12basic_parserINS0_6detail12into_handlerISt6vectorIDnSaIDnEEEEE12parse_objectILb0ELb0EEEPKcSB_St17integral_constantIbXT_EESC_IbXT0_EEbbb
FNA:2,0,_ZN5boost4json12basic_parserINS0_6detail12into_handlerISt6vectorIDnSaIDnEEEEE12parse_objectILb0ELb1EEEPKcSB_St17integral_constantIbXT_EESC_IbXT0_EEbbb
FNA:2,0,_ZN5boost4json12basic_parserINS0_6detail12into_handlerISt6vectorIDnSaIDnEEEEE12parse_objectILb1ELb0EEEPKcSB_St17integral_constantIbXT_EESC_IbXT0_EEbbb
FNA:2,0,_ZN5boost4json12basic_parserINS0_6detail12into_handlerISt6vectorIDnSaIDnEEEEE12parse_objectILb1ELb1EEEPKcSB_St17integral_constantIbXT_EESC_IbXT0_EEbbb
FNA:2,0,_ZN5boost4json12basic_parserINS0_6detail12into_handlerISt6vectorINS_8variant27variantIJiNSt7__cxx1112basic_stringIcSt11char_traitsIcESaIcEEEEEESaISD_EEEEE12parse_objectILb0ELb0EEEPKcSK_St17integral_constantIbXT_EESL_IbXT0_EEbbb
FNA:2,0,_ZN5boost4json12basic_parserINS0_6detail12into_handlerISt6vectorINS_8variant27variantIJiNSt7__cxx1112basic_stringIcSt11char_traitsIcESaIcEEEEEESaISD_EEEEE12parse_objectILb0ELb1EEEPKcSK_St17integral_constantIbXT_EESL_IbXT0_EEbbb
FNA:2,0,_ZN5boost4json12basic_parserINS0_6detail12into_handlerISt6vectorINS_8variant27variantIJiNSt7__cxx1112basic_stringIcSt11char_traitsIcESaIcEEEEEESaISD_EEEEE12parse_objectILb1ELb0EEEPKcSK_St17integral_constantIbXT_EESL_IbXT0_EEbbb
FNA:2,0,_ZN5boost4json12basic_parserINS0_6detail12into_handlerISt6vectorINS_8variant27variantIJiNSt7__cxx1112basic_stringIcSt11char_traitsIcESaIcEEEEEESaISD_EEEEE12parse_objectILb1ELb1EEEPKcSK_St17integral_constantIbXT_EESL_IbXT0_EEbbb
FNA:2,0,_ZN5boost4json12basic_parserINS0_6detail12into_handlerISt6vectorINSt7__cxx1112basic_stringIcSt11char_traitsIcESaIcEEESaISA_EEEEE12parse_objectILb0ELb0EEEPKcSH_St17integral_constantIbXT_EESI_IbXT0_EEbbb
FNA:2,0,_ZN5boost4json12basic_parserINS0_6detail12into_handlerISt6vectorINSt7__cxx1112basic_stringIcSt11char_traitsIcESaIcEEESaISA_EEEEE12parse_objectILb0ELb1EEEPKcSH_St17integral_constantIbXT_EESI_IbXT0_EEbbb
FNA:2,0,_ZN5boost4json12basic_parserINS0_6detail12into_handlerISt6vectorINSt7__cxx1112basic_stringIcSt11char_traitsIcESaIcEEESaISA_EEEEE12parse_objectILb1ELb0EEEPKcSH_St17integral_constantIbXT_EESI_IbXT0_EEbbb
FNA:2,0,_ZN5boost4json12basic_parserINS0_6detail12into_handlerISt6vectorINSt7__cxx1112basic_stringIcSt11char_traitsIcESaIcEEESaISA_EEEEE12parse_objectILb1ELb1EEEPKcSH_St17integral_constantIbXT_EESI_IbXT0_EEbbb
FNA:2,0,_ZN5boost4json12basic_parserINS0_6detail12into_handlerISt6vectorIS4_ISt4pairIiiESaIS6_EESaIS8_EEEEE12parse_objectILb0ELb0EEEPKcSF_St17integral_constantIbXT_EESG_IbXT0_EEbbb
FNA:2,0,_ZN5boost4json12basic_parserINS0_6detail12into_handlerISt6vectorIS4_ISt4pairIiiESaIS6_EESaIS8_EEEEE12parse_objectILb0ELb1EEEPKcSF_St17integral_constantIbXT_EESG_IbXT0_EEbbb
FNA:2,0,_ZN5boost4json12basic_parserINS0_6detail12into_handlerISt6vectorIS4_ISt4pairIiiESaIS6_EESaIS8_EEEEE12parse_objectILb1ELb0EEEPKcSF_St17integral_constantIbXT_EESG_IbXT0_EEbbb
FNA:2,0,_ZN5boost4json12basic_parserINS0_6detail12into_handlerISt6vectorIS4_ISt4pairIiiESaIS6_EESaIS8_EEEEE12parse_objectILb1ELb1EEEPKcSF_St17integral_constantIbXT_EESG_IbXT0_EEbbb
FNA:2,0,_ZN5boost4json12basic_parserINS0_6detail12into_handlerISt6vectorIS4_IiSaIiEESaIS6_EEEEE12parse_objectILb0ELb0EEEPKcSD_St17integral_constantIbXT_EESE_IbXT0_EEbbb
FNA:2,0,_ZN5boost4json12basic_parserINS0_6detail12into_handlerISt6vectorIS4_IiSaIiEESaIS6_EEEEE12parse_objectILb0ELb1EEEPKcSD_St17integral_constantIbXT_EESE_IbXT0_EEbbb
FNA:2,0,_ZN5boost4json12basic_parserINS0_6detail12into_handlerISt6vectorIS4_IiSaIiEESaIS6_EEEEE12parse_objectILb1ELb0EEEPKcSD_St17integral_constantIbXT_EESE_IbXT0_EEbbb
FNA:2,0,_ZN5boost4json12basic_parserINS0_6detail12into_handlerISt6vectorIS4_IiSaIiEESaIS6_EEEEE12parse_objectILb1ELb1EEEPKcSD_St17integral_constantIbXT_EESE_IbXT0_EEbbb
FNA:2,0,_ZN5boost4json12basic_parserINS0_6detail12into_handlerISt6vectorISt3mapINSt7__cxx1112basic_stringIcSt11char_traitsIcESaIcEEEiSt4lessISB_ESaISt4pairIKSB_iEEESaISI_EEEEE12parse_objectILb0ELb0EEEPKcSP_St17integral_constantIbXT_EESQ_IbXT0_EEbbb
FNA:2,19,_ZN5boost4json12basic_parserINS0_6detail12into_handlerISt6vectorISt3mapINSt7__cxx1112basic_stringIcSt11char_traitsIcESaIcEEEiSt4lessISB_ESaISt4pairIKSB_iEEESaISI_EEEEE12parse_objectILb0ELb1EEEPKcSP_St17integral_constantIbXT_EESQ_IbXT0_EEbbb
FNA:2,18,_ZN5boost4json12basic_parserINS0_6detail12into_handlerISt6vectorISt3mapINSt7__cxx1112basic_stringIcSt11char_traitsIcESaIcEEEiSt4lessISB_ESaISt4pairIKSB_iEEESaISI_EEEEE12parse_objectILb1ELb0EEEPKcSP_St17integral_constantIbXT_EESQ_IbXT0_EEbbb
FNA:2,3,_ZN5boost4json12basic_parserINS0_6detail12into_handlerISt6vectorISt3mapINSt7__cxx1112basic_stringIcSt11char_traitsIcESaIcEEEiSt4lessISB_ESaISt4pairIKSB_iEEESaISI_EEEEE12parse_objectILb1ELb1EEEPKcSP_St17integral_constantIbXT_EESQ_IbXT0_EEbbb
FNA:2,0,_ZN5boost4json12basic_parserINS0_6detail12into_handlerISt6vectorISt4pairIiiESaIS6_EEEEE12parse_objectILb0ELb0EEEPKcSD_St17integral_constantIbXT_EESE_IbXT0_EEbbb
FNA:2,0,_ZN5boost4json12basic_parserINS0_6detail12into_handlerISt6vectorISt4pairIiiESaIS6_EEEEE12parse_objectILb0ELb1EEEPKcSD_St17integral_constantIbXT_EESE_IbXT0_EEbbb
FNA:2,0,_ZN5boost4json12basic_parserINS0_6detail12into_handlerISt6vectorISt4pairIiiESaIS6_EEEEE12parse_objectILb1ELb0EEEPKcSD_St17integral_constantIbXT_EESE_IbXT0_EEbbb
FNA:2,0,_ZN5boost4json12basic_parserINS0_6detail12into_handlerISt6vectorISt4pairIiiESaIS6_EEEEE12parse_objectILb1ELb1EEEPKcSD_St17integral_constantIbXT_EESE_IbXT0_EEbbb
FNA:2,0,_ZN5boost4json12basic_parserINS0_6detail12into_handlerISt6vectorISt5arrayIiLm4EESaIS6_EEEEE12parse_objectILb0ELb0EEEPKcSD_St17integral_constantIbXT_EESE_IbXT0_EEbbb
FNA:2,0,_ZN5boost4json12basic_parserINS0_6detail12into_handlerISt6vectorISt5arrayIiLm4EESaIS6_EEEEE12parse_objectILb0ELb1EEEPKcSD_St17integral_constantIbXT_EESE_IbXT0_EEbbb
FNA:2,0,_ZN5boost4json12basic_parserINS0_6detail12into_handlerISt6vectorISt5arrayIiLm4EESaIS6_EEEEE12parse_objectILb1ELb0EEEPKcSD_St17integral_constantIbXT_EESE_IbXT0_EEbbb
FNA:2,0,_ZN5boost4json12basic_parserINS0_6detail12into_handlerISt6vectorISt5arrayIiLm4EESaIS6_EEEEE12parse_objectILb1ELb1EEEPKcSD_St17integral_constantIbXT_EESE_IbXT0_EEbbb
FNA:2,0,_ZN5boost4json12basic_parserINS0_6detail12into_handlerISt6vectorIbSaIbEEEEE12parse_objectILb0ELb0EEEPKcSB_St17integral_constantIbXT_EESC_IbXT0_EEbbb
FNA:2,0,_ZN5boost4json12basic_parserINS0_6detail12into_handlerISt6vectorIbSaIbEEEEE12parse_objectILb0ELb1EEEPKcSB_St17integral_constantIbXT_EESC_IbXT0_EEbbb
FNA:2,0,_ZN5boost4json12basic_parserINS0_6detail12into_handlerISt6vectorIbSaIbEEEEE12parse_objectILb1ELb0EEEPKcSB_St17integral_constantIbXT_EESC_IbXT0_EEbbb
FNA:2,0,_ZN5boost4json12basic_parserINS0_6detail12into_handlerISt6vectorIbSaIbEEEEE12parse_objectILb1ELb1EEEPKcSB_St17integral_constantIbXT_EESC_IbXT0_EEbbb
FNA:2,0,_ZN5boost4json12basic_parserINS0_6detail12into_handlerISt6vectorIcSaIcEEEEE12parse_objectILb0ELb0EEEPKcSB_St17integral_constantIbXT_EESC_IbXT0_EEbbb
FNA:2,0,_ZN5boost4json12basic_parserINS0_6detail12into_handlerISt6vectorIcSaIcEEEEE12parse_objectILb0ELb1EEEPKcSB_St17integral_constantIbXT_EESC_IbXT0_EEbbb
FNA:2,0,_ZN5boost4json12basic_parserINS0_6detail12into_handlerISt6vectorIcSaIcEEEEE12parse_objectILb1ELb0EEEPKcSB_St17integral_constantIbXT_EESC_IbXT0_EEbbb
FNA:2,0,_ZN5boost4json12basic_parserINS0_6detail12into_handlerISt6vectorIcSaIcEEEEE12parse_objectILb1ELb1EEEPKcSB_St17integral_constantIbXT_EESC_IbXT0_EEbbb
FNA:2,0,_ZN5boost4json12basic_parserINS0_6detail12into_handlerISt6vectorIfSaIfEEEEE12parse_objectILb0ELb0EEEPKcSB_St17integral_constantIbXT_EESC_IbXT0_EEbbb
FNA:2,0,_ZN5boost4json12basic_parserINS0_6detail12into_handlerISt6vectorIfSaIfEEEEE12parse_objectILb0ELb1EEEPKcSB_St17integral_constantIbXT_EESC_IbXT0_EEbbb
FNA:2,0,_ZN5boost4json12basic_parserINS0_6detail12into_handlerISt6vectorIfSaIfEEEEE12parse_objectILb1ELb0EEEPKcSB_St17integral_constantIbXT_EESC_IbXT0_EEbbb
FNA:2,0,_ZN5boost4json12basic_parserINS0_6detail12into_handlerISt6vectorIfSaIfEEEEE12parse_objectILb1ELb1EEEPKcSB_St17integral_constantIbXT_EESC_IbXT0_EEbbb
FNA:2,0,_ZN5boost4json12basic_parserINS0_6detail12into_handlerISt6vectorIiSaIiEEEEE12parse_objectILb0ELb0EEEPKcSB_St17integral_constantIbXT_EESC_IbXT0_EEbbb
FNA:2,0,_ZN5boost4json12basic_parserINS0_6detail12into_handlerISt6vectorIiSaIiEEEEE12parse_objectILb0ELb1EEEPKcSB_St17integral_constantIbXT_EESC_IbXT0_EEbbb
FNA:2,0,_ZN5boost4json12basic_parserINS0_6detail12into_handlerISt6vectorIiSaIiEEEEE12parse_objectILb1ELb0EEEPKcSB_St17integral_constantIbXT_EESC_IbXT0_EEbbb
FNA:2,0,_ZN5boost4json12basic_parserINS0_6detail12into_handlerISt6vectorIiSaIiEEEEE12parse_objectILb1ELb1EEEPKcSB_St17integral_constantIbXT_EESC_IbXT0_EEbbb
FNA:2,0,_ZN5boost4json12basic_parserINS0_6detail12into_handlerISt6vectorImSaImEEEEE12parse_objectILb0ELb0EEEPKcSB_St17integral_constantIbXT_EESC_IbXT0_EEbbb
FNA:2,0,_ZN5boost4json12basic_parserINS0_6detail12into_handlerISt6vectorImSaImEEEEE12parse_objectILb0ELb1EEEPKcSB_St17integral_constantIbXT_EESC_IbXT0_EEbbb
FNA:2,0,_ZN5boost4json12basic_parserINS0_6detail12into_handlerISt6vectorImSaImEEEEE12parse_objectILb1ELb0EEEPKcSB_St17integral_constantIbXT_EESC_IbXT0_EEbbb
FNA:2,0,_ZN5boost4json12basic_parserINS0_6detail12into_handlerISt6vectorImSaImEEEEE12parse_objectILb1ELb1EEEPKcSB_St17integral_constantIbXT_EESC_IbXT0_EEbbb
FNA:2,0,_ZN5boost4json12basic_parserINS0_6detail12into_handlerIaEEE12parse_objectILb0ELb0EEEPKcS8_St17integral_constantIbXT_EES9_IbXT0_EEbbb
FNA:2,0,_ZN5boost4json12basic_parserINS0_6detail12into_handlerIaEEE12parse_objectILb0ELb1EEEPKcS8_St17integral_constantIbXT_EES9_IbXT0_EEbbb
FNA:2,0,_ZN5boost4json12basic_parserINS0_6detail12into_handlerIaEEE12parse_objectILb1ELb0EEEPKcS8_St17integral_constantIbXT_EES9_IbXT0_EEbbb
FNA:2,0,_ZN5boost4json12basic_parserINS0_6detail12into_handlerIaEEE12parse_objectILb1ELb1EEEPKcS8_St17integral_constantIbXT_EES9_IbXT0_EEbbb
FNA:2,0,_ZN5boost4json12basic_parserINS0_6detail12into_handlerIbEEE12parse_objectILb0ELb0EEEPKcS8_St17integral_constantIbXT_EES9_IbXT0_EEbbb
FNA:2,0,_ZN5boost4json12basic_parserINS0_6detail12into_handlerIbEEE12parse_objectILb0ELb1EEEPKcS8_St17integral_constantIbXT_EES9_IbXT0_EEbbb
FNA:2,0,_ZN5boost4json12basic_parserINS0_6detail12into_handlerIbEEE12parse_objectILb1ELb0EEEPKcS8_St17integral_constantIbXT_EES9_IbXT0_EEbbb
FNA:2,0,_ZN5boost4json12basic_parserINS0_6detail12into_handlerIbEEE12parse_objectILb1ELb1EEEPKcS8_St17integral_constantIbXT_EES9_IbXT0_EEbbb
FNA:2,0,_ZN5boost4json12basic_parserINS0_6detail12into_handlerIcEEE12parse_objectILb0ELb0EEEPKcS8_St17integral_constantIbXT_EES9_IbXT0_EEbbb
FNA:2,0,_ZN5boost4json12basic_parserINS0_6detail12into_handlerIcEEE12parse_objectILb0ELb1EEEPKcS8_St17integral_constantIbXT_EES9_IbXT0_EEbbb
FNA:2,0,_ZN5boost4json12basic_parserINS0_6detail12into_handlerIcEEE12parse_objectILb1ELb0EEEPKcS8_St17integral_constantIbXT_EES9_IbXT0_EEbbb
FNA:2,0,_ZN5boost4json12basic_parserINS0_6detail12into_handlerIcEEE12parse_objectILb1ELb1EEEPKcS8_St17integral_constantIbXT_EES9_IbXT0_EEbbb
FNA:2,0,_ZN5boost4json12basic_parserINS0_6detail12into_handlerIdEEE12parse_objectILb0ELb0EEEPKcS8_St17integral_constantIbXT_EES9_IbXT0_EEbbb
FNA:2,0,_ZN5boost4json12basic_parserINS0_6detail12into_handlerIdEEE12parse_objectILb0ELb1EEEPKcS8_St17integral_constantIbXT_EES9_IbXT0_EEbbb
FNA:2,2,_ZN5boost4json12basic_parserINS0_6detail12into_handlerIdEEE12parse_objectILb1ELb0EEEPKcS8_St17integral_constantIbXT_EES9_IbXT0_EEbbb
FNA:2,0,_ZN5boost4json12basic_parserINS0_6detail12into_handlerIdEEE12parse_objectILb1ELb1EEEPKcS8_St17integral_constantIbXT_EES9_IbXT0_EEbbb
FNA:2,0,_ZN5boost4json12basic_parserINS0_6detail12into_handlerIfEEE12parse_objectILb0ELb0EEEPKcS8_St17integral_constantIbXT_EES9_IbXT0_EEbbb
FNA:2,0,_ZN5boost4json12basic_parserINS0_6detail12into_handlerIfEEE12parse_objectILb0ELb1EEEPKcS8_St17integral_constantIbXT_EES9_IbXT0_EEbbb
FNA:2,0,_ZN5boost4json12basic_parserINS0_6detail12into_handlerIfEEE12parse_objectILb1ELb0EEEPKcS8_St17integral_constantIbXT_EES9_IbXT0_EEbbb
FNA:2,0,_ZN5boost4json12basic_parserINS0_6detail12into_handlerIfEEE12parse_objectILb1ELb1EEEPKcS8_St17integral_constantIbXT_EES9_IbXT0_EEbbb
FNA:2,0,_ZN5boost4json12basic_parserINS0_6detail12into_handlerIhEEE12parse_objectILb0ELb0EEEPKcS8_St17integral_constantIbXT_EES9_IbXT0_EEbbb
FNA:2,0,_ZN5boost4json12basic_parserINS0_6detail12into_handlerIhEEE12parse_objectILb0ELb1EEEPKcS8_St17integral_constantIbXT_EES9_IbXT0_EEbbb
FNA:2,0,_ZN5boost4json12basic_parserINS0_6detail12into_handlerIhEEE12parse_objectILb1ELb0EEEPKcS8_St17integral_constantIbXT_EES9_IbXT0_EEbbb
FNA:2,0,_ZN5boost4json12basic_parserINS0_6detail12into_handlerIhEEE12parse_objectILb1ELb1EEEPKcS8_St17integral_constantIbXT_EES9_IbXT0_EEbbb
FNA:2,0,_ZN5boost4json12basic_parserINS0_6detail12into_handlerIiEEE12parse_objectILb0ELb0EEEPKcS8_St17integral_constantIbXT_EES9_IbXT0_EEbbb
FNA:2,0,_ZN5boost4json12basic_parserINS0_6detail12into_handlerIiEEE12parse_objectILb0ELb1EEEPKcS8_St17integral_constantIbXT_EES9_IbXT0_EEbbb
FNA:2,0,_ZN5boost4json12basic_parserINS0_6detail12into_handlerIiEEE12parse_objectILb1ELb0EEEPKcS8_St17integral_constantIbXT_EES9_IbXT0_EEbbb
FNA:2,0,_ZN5boost4json12basic_parserINS0_6detail12into_handlerIiEEE12parse_objectILb1ELb1EEEPKcS8_St17integral_constantIbXT_EES9_IbXT0_EEbbb
FNA:2,0,_ZN5boost4json12basic_parserINS0_6detail12into_handlerIjEEE12parse_objectILb0ELb0EEEPKcS8_St17integral_constantIbXT_EES9_IbXT0_EEbbb
FNA:2,0,_ZN5boost4json12basic_parserINS0_6detail12into_handlerIjEEE12parse_objectILb0ELb1EEEPKcS8_St17integral_constantIbXT_EES9_IbXT0_EEbbb
FNA:2,0,_ZN5boost4json12basic_parserINS0_6detail12into_handlerIjEEE12parse_objectILb1ELb0EEEPKcS8_St17integral_constantIbXT_EES9_IbXT0_EEbbb
FNA:2,0,_ZN5boost4json12basic_parserINS0_6detail12into_handlerIjEEE12parse_objectILb1ELb1EEEPKcS8_St17integral_constantIbXT_EES9_IbXT0_EEbbb
FNA:2,0,_ZN5boost4json12basic_parserINS0_6detail12into_handlerIlEEE12parse_objectILb0ELb0EEEPKcS8_St17integral_constantIbXT_EES9_IbXT0_EEbbb
FNA:2,0,_ZN5boost4json12basic_parserINS0_6detail12into_handlerIlEEE12parse_objectILb0ELb1EEEPKcS8_St17integral_constantIbXT_EES9_IbXT0_EEbbb
FNA:2,0,_ZN5boost4json12basic_parserINS0_6detail12into_handlerIlEEE12parse_objectILb1ELb0EEEPKcS8_St17integral_constantIbXT_EES9_IbXT0_EEbbb
FNA:2,0,_ZN5boost4json12basic_parserINS0_6detail12into_handlerIlEEE12parse_objectILb1ELb1EEEPKcS8_St17integral_constantIbXT_EES9_IbXT0_EEbbb
FNA:2,0,_ZN5boost4json12basic_parserINS0_6detail12into_handlerImEEE12parse_objectILb0ELb0EEEPKcS8_St17integral_constantIbXT_EES9_IbXT0_EEbbb
FNA:2,0,_ZN5boost4json12basic_parserINS0_6detail12into_handlerImEEE12parse_objectILb0ELb1EEEPKcS8_St17integral_constantIbXT_EES9_IbXT0_EEbbb
FNA:2,0,_ZN5boost4json12basic_parserINS0_6detail12into_handlerImEEE12parse_objectILb1ELb0EEEPKcS8_St17integral_constantIbXT_EES9_IbXT0_EEbbb
FNA:2,0,_ZN5boost4json12basic_parserINS0_6detail12into_handlerImEEE12parse_objectILb1ELb1EEEPKcS8_St17integral_constantIbXT_EES9_IbXT0_EEbbb
FNA:2,0,_ZN5boost4json12basic_parserINS0_6detail12into_handlerIsEEE12parse_objectILb0ELb0EEEPKcS8_St17integral_constantIbXT_EES9_IbXT0_EEbbb
FNA:2,0,_ZN5boost4json12basic_parserINS0_6detail12into_handlerIsEEE12parse_objectILb0ELb1EEEPKcS8_St17integral_constantIbXT_EES9_IbXT0_EEbbb
FNA:2,0,_ZN5boost4json12basic_parserINS0_6detail12into_handlerIsEEE12parse_objectILb1ELb0EEEPKcS8_St17integral_constantIbXT_EES9_IbXT0_EEbbb
FNA:2,0,_ZN5boost4json12basic_parserINS0_6detail12into_handlerIsEEE12parse_objectILb1ELb1EEEPKcS8_St17integral_constantIbXT_EES9_IbXT0_EEbbb
FNA:2,0,_ZN5boost4json12basic_parserINS0_6detail12into_handlerItEEE12parse_objectILb0ELb0EEEPKcS8_St17integral_constantIbXT_EES9_IbXT0_EEbbb
FNA:2,0,_ZN5boost4json12basic_parserINS0_6detail12into_handlerItEEE12parse_objectILb0ELb1EEEPKcS8_St17integral_constantIbXT_EES9_IbXT0_EEbbb
FNA:2,0,_ZN5boost4json12basic_parserINS0_6detail12into_handlerItEEE12parse_objectILb1ELb0EEEPKcS8_St17integral_constantIbXT_EES9_IbXT0_EEbbb
FNA:2,0,_ZN5boost4json12basic_parserINS0_6detail12into_handlerItEEE12parse_objectILb1ELb1EEEPKcS8_St17integral_constantIbXT_EES9_IbXT0_EEbbb
FNA:2,0,_ZN5boost4json12basic_parserINS0_6detail12into_handlerIxEEE12parse_objectILb0ELb0EEEPKcS8_St17integral_constantIbXT_EES9_IbXT0_EEbbb
FNA:2,0,_ZN5boost4json12basic_parserINS0_6detail12into_handlerIxEEE12parse_objectILb0ELb1EEEPKcS8_St17integral_constantIbXT_EES9_IbXT0_EEbbb
FNA:2,0,_ZN5boost4json12basic_parserINS0_6detail12into_handlerIxEEE12parse_objectILb1ELb0EEEPKcS8_St17integral_constantIbXT_EES9_IbXT0_EEbbb
FNA:2,0,_ZN5boost4json12basic_parserINS0_6detail12into_handlerIxEEE12parse_objectILb1ELb1EEEPKcS8_St17integral_constantIbXT_EES9_IbXT0_EEbbb
FNA:2,0,_ZN5boost4json12basic_parserINS0_6detail12into_handlerIyEEE12parse_objectILb0ELb0EEEPKcS8_St17integral_constantIbXT_EES9_IbXT0_EEbbb
FNA:2,0,_ZN5boost4json12basic_parserINS0_6detail12into_handlerIyEEE12parse_objectILb0ELb1EEEPKcS8_St17integral_constantIbXT_EES9_IbXT0_EEbbb
FNA:2,0,_ZN5boost4json12basic_parserINS0_6detail12into_handlerIyEEE12parse_objectILb1ELb0EEEPKcS8_St17integral_constantIbXT_EES9_IbXT0_EEbbb
FNA:2,0,_ZN5boost4json12basic_parserINS0_6detail12into_handlerIyEEE12parse_objectILb1ELb1EEEPKcS8_St17integral_constantIbXT_EES9_IbXT0_EEbbb
FNA:2,16337,_ZN5boost4json12basic_parserINS0_6detail7handlerEE12parse_objectILb0ELb0EEEPKcS7_St17integral_constantIbXT_EES8_IbXT0_EEbbb
FNA:2,222,_ZN5boost4json12basic_parserINS0_6detail7handlerEE12parse_objectILb0ELb1EEEPKcS7_St17integral_constantIbXT_EES8_IbXT0_EEbbb
FNA:2,34324,_ZN5boost4json12basic_parserINS0_6detail7handlerEE12parse_objectILb1ELb0EEEPKcS7_St17integral_constantIbXT_EES8_IbXT0_EEbbb
FNA:2,630,_ZN5boost4json12basic_parserINS0_6detail7handlerEE12parse_objectILb1ELb1EEEPKcS7_St17integral_constantIbXT_EES8_IbXT0_EEbbb
FNL:3,179,188
FNA:3,66931,_ZN5boost4json6detail9hex_digitEh
FNL:4,1868,1974
FNA:4,1886,_ZN5boost4json12basic_parserINS0_11fail_parser7handlerEE11parse_arrayILb0ELb0EEEPKcS7_St17integral_constantIbXT_EES8_IbXT0_EEbbb
FNA:4,479,_ZN5boost4json12basic_parserINS0_11fail_parser7handlerEE11parse_arrayILb0ELb1EEEPKcS7_St17integral_constantIbXT_EES8_IbXT0_EEbbb
FNA:4,8311,_ZN5boost4json12basic_parserINS0_11fail_parser7handlerEE11parse_arrayILb1ELb0EEEPKcS7_St17integral_constantIbXT_EES8_IbXT0_EEbbb
FNA:4,3583,_ZN5boost4json12basic_parserINS0_11fail_parser7handlerEE11parse_arrayILb1ELb1EEEPKcS7_St17integral_constantIbXT_EES8_IbXT0_EEbbb
FNA:4,0,_ZN5boost4json12basic_parserINS0_11null_parser7handlerEE11parse_arrayILb0ELb0EEEPKcS7_St17integral_constantIbXT_EES8_IbXT0_EEbbb
FNA:4,0,_ZN5boost4json12basic_parserINS0_11null_parser7handlerEE11parse_arrayILb0ELb1EEEPKcS7_St17integral_constantIbXT_EES8_IbXT0_EEbbb
FNA:4,15,_ZN5boost4json12basic_parserINS0_11null_parser7handlerEE11parse_arrayILb1ELb0EEEPKcS7_St17integral_constantIbXT_EES8_IbXT0_EEbbb
FNA:4,0,_ZN5boost4json12basic_parserINS0_11null_parser7handlerEE11parse_arrayILb1ELb1EEEPKcS7_St17integral_constantIbXT_EES8_IbXT0_EEbbb
FNA:4,1886,_ZN5boost4json12basic_parserINS0_12throw_parser7handlerEE11parse_arrayILb0ELb0EEEPKcS7_St17integral_constantIbXT_EES8_IbXT0_EEbbb
FNA:4,479,_ZN5boost4json12basic_parserINS0_12throw_parser7handlerEE11parse_arrayILb0ELb1EEEPKcS7_St17integral_constantIbXT_EES8_IbXT0_EEbbb
FNA:4,5217,_ZN5boost4json12basic_parserINS0_12throw_parser7handlerEE11parse_arrayILb1ELb0EEEPKcS7_St17integral_constantIbXT_EES8_IbXT0_EEbbb
FNA:4,930,_ZN5boost4json12basic_parserINS0_12throw_parser7handlerEE11parse_arrayILb1ELb1EEEPKcS7_St17integral_constantIbXT_EES8_IbXT0_EEbbb
FNA:4,0,_ZN5boost4json12basic_parserINS0_17basic_parser_test11utf8_parser7handlerEE11parse_arrayILb0ELb0EEEPKcS8_St17integral_constantIbXT_EES9_IbXT0_EEbbb
FNA:4,0,_ZN5boost4json12basic_parserINS0_17basic_parser_test11utf8_parser7handlerEE11parse_arrayILb0ELb1EEEPKcS8_St17integral_constantIbXT_EES9_IbXT0_EEbbb
FNA:4,0,_ZN5boost4json12basic_parserINS0_17basic_parser_test11utf8_parser7handlerEE11parse_arrayILb1ELb0EEEPKcS8_St17integral_constantIbXT_EES9_IbXT0_EEbbb
FNA:4,0,_ZN5boost4json12basic_parserINS0_17basic_parser_test11utf8_parser7handlerEE11parse_arrayILb1ELb1EEEPKcS8_St17integral_constantIbXT_EES9_IbXT0_EEbbb
FNA:4,0,_ZN5boost4json12basic_parserINS0_17basic_parser_test14comment_parser7handlerEE11parse_arrayILb0ELb0EEEPKcS8_St17integral_constantIbXT_EES9_IbXT0_EEbbb
FNA:4,0,_ZN5boost4json12basic_parserINS0_17basic_parser_test14comment_parser7handlerEE11parse_arrayILb0ELb1EEEPKcS8_St17integral_constantIbXT_EES9_IbXT0_EEbbb
FNA:4,0,_ZN5boost4json12basic_parserINS0_17basic_parser_test14comment_parser7handlerEE11parse_arrayILb1ELb0EEEPKcS8_St17integral_constantIbXT_EES9_IbXT0_EEbbb
FNA:4,6,_ZN5boost4json12basic_parserINS0_17basic_parser_test14comment_parser7handlerEE11parse_arrayILb1ELb1EEEPKcS8_St17integral_constantIbXT_EES9_IbXT0_EEbbb
FNA:4,0,_ZN5boost4json12basic_parserINS0_17basic_parser_test14literal_parser7handlerEE11parse_arrayILb0ELb0EEEPKcS8_St17integral_constantIbXT_EES9_IbXT0_EEbbb
FNA:4,0,_ZN5boost4json12basic_parserINS0_17basic_parser_test14literal_parser7handlerEE11parse_arrayILb0ELb1EEEPKcS8_St17integral_constantIbXT_EES9_IbXT0_EEbbb
FNA:4,0,_ZN5boost4json12basic_parserINS0_17basic_parser_test14literal_parser7handlerEE11parse_arrayILb1ELb0EEEPKcS8_St17integral_constantIbXT_EES9_IbXT0_EEbbb
FNA:4,0,_ZN5boost4json12basic_parserINS0_17basic_parser_test14literal_parser7handlerEE11parse_arrayILb1ELb1EEEPKcS8_St17integral_constantIbXT_EES9_IbXT0_EEbbb
FNA:4,0,_ZN5boost4json12basic_parserINS0_17basic_parser_test15std_null_parser7handlerEE11parse_arrayILb0ELb0EEEPKcS8_St17integral_constantIbXT_EES9_IbXT0_EEbbb
FNA:4,0,_ZN5boost4json12basic_parserINS0_17basic_parser_test15std_null_parser7handlerEE11parse_arrayILb0ELb1EEEPKcS8_St17integral_constantIbXT_EES9_IbXT0_EEbbb
FNA:4,0,_ZN5boost4json12basic_parserINS0_17basic_parser_test15std_null_parser7handlerEE11parse_arrayILb1ELb0EEEPKcS8_St17integral_constantIbXT_EES9_IbXT0_EEbbb
FNA:4,0,_ZN5boost4json12basic_parserINS0_17basic_parser_test15std_null_parser7handlerEE11parse_arrayILb1ELb1EEEPKcS8_St17integral_constantIbXT_EES9_IbXT0_EEbbb
FNA:4,0,_ZN5boost4json12basic_parserINS0_6detail12into_handlerIDnEEE11parse_arrayILb0ELb0EEEPKcS8_St17integral_constantIbXT_EES9_IbXT0_EEbbb
FNA:4,0,_ZN5boost4json12basic_parserINS0_6detail12into_handlerIDnEEE11parse_arrayILb0ELb1EEEPKcS8_St17integral_constantIbXT_EES9_IbXT0_EEbbb
FNA:4,0,_ZN5boost4json12basic_parserINS0_6detail12into_handlerIDnEEE11parse_arrayILb1ELb0EEEPKcS8_St17integral_constantIbXT_EES9_IbXT0_EEbbb
FNA:4,0,_ZN5boost4json12basic_parserINS0_6detail12into_handlerIDnEEE11parse_arrayILb1ELb1EEEPKcS8_St17integral_constantIbXT_EES9_IbXT0_EEbbb
FNA:4,0,_ZN5boost4json12basic_parserINS0_6detail12into_handlerINS0_6stringEEEE11parse_arrayILb0ELb0EEEPKcS9_St17integral_constantIbXT_EESA_IbXT0_EEbbb
FNA:4,0,_ZN5boost4json12basic_parserINS0_6detail12into_handlerINS0_6stringEEEE11parse_arrayILb0ELb1EEEPKcS9_St17integral_constantIbXT_EESA_IbXT0_EEbbb
FNA:4,0,_ZN5boost4json12basic_parserINS0_6detail12into_handlerINS0_6stringEEEE11parse_arrayILb1ELb0EEEPKcS9_St17integral_constantIbXT_EESA_IbXT0_EEbbb
FNA:4,0,_ZN5boost4json12basic_parserINS0_6detail12into_handlerINS0_6stringEEEE11parse_arrayILb1ELb1EEEPKcS9_St17integral_constantIbXT_EESA_IbXT0_EEbbb
FNA:4,0,_ZN5boost4json12basic_parserINS0_6detail12into_handlerINS_8variant27variantIJNS4_9monostateEEEEEEE11parse_arrayILb0ELb0EEEPKcSC_St17integral_constantIbXT_EESD_IbXT0_EEbbb
FNA:4,0,_ZN5boost4json12basic_parserINS0_6detail12into_handlerINS_8variant27variantIJNS4_9monostateEEEEEEE11parse_arrayILb0ELb1EEEPKcSC_St17integral_constantIbXT_EESD_IbXT0_EEbbb
FNA:4,0,_ZN5boost4json12basic_parserINS0_6detail12into_handlerINS_8variant27variantIJNS4_9monostateEEEEEEE11parse_arrayILb1ELb0EEEPKcSC_St17integral_constantIbXT_EESD_IbXT0_EEbbb
FNA:4,0,_ZN5boost4json12basic_parserINS0_6detail12into_handlerINS_8variant27variantIJNS4_9monostateEEEEEEE11parse_arrayILb1ELb1EEEPKcSC_St17integral_constantIbXT_EESD_IbXT0_EEbbb
FNA:4,0,_ZN5boost4json12basic_parserINS0_6detail12into_handlerINS_8variant27variantIJNS4_9monostateESt6vectorIiSaIiEEEEEEEE11parse_arrayILb0ELb0EEEPKcSF_St17integral_constantIbXT_EESG_IbXT0_EEbbb
FNA:4,10,_ZN5boost4json12basic_parserINS0_6detail12into_handlerINS_8variant27variantIJNS4_9monostateESt6vectorIiSaIiEEEEEEEE11parse_arrayILb0ELb1EEEPKcSF_St17integral_constantIbXT_EESG_IbXT0_EEbbb
FNA:4,6,_ZN5boost4json12basic_parserINS0_6detail12into_handlerINS_8variant27variantIJNS4_9monostateESt6vectorIiSaIiEEEEEEEE11parse_arrayILb1ELb0EEEPKcSF_St17integral_constantIbXT_EESG_IbXT0_EEbbb
FNA:4,1,_ZN5boost4json12basic_parserINS0_6detail12into_handlerINS_8variant27variantIJNS4_9monostateESt6vectorIiSaIiEEEEEEEE11parse_arrayILb1ELb1EEEPKcSF_St17integral_constantIbXT_EESG_IbXT0_EEbbb
FNA:4,0,_ZN5boost4json12basic_parserINS0_6detail12into_handlerINS_8variant27variantIJNS4_9monostateEiNSt7__cxx1112basic_stringIcSt11char_traitsIcESaIcEEEEEEEEE11parse_arrayILb0ELb0EEEPKcSI_St17integral_constantIbXT_EESJ_IbXT0_EEbbb
FNA:4,0,_ZN5boost4json12basic_parserINS0_6detail12into_handlerINS_8variant27variantIJNS4_9monostateEiNSt7__cxx1112basic_stringIcSt11char_traitsIcESaIcEEEEEEEEE11parse_arrayILb0ELb1EEEPKcSI_St17integral_constantIbXT_EESJ_IbXT0_EEbbb
FNA:4,0,_ZN5boost4json12basic_parserINS0_6detail12into_handlerINS_8variant27variantIJNS4_9monostateEiNSt7__cxx1112basic_stringIcSt11char_traitsIcESaIcEEEEEEEEE11parse_arrayILb1ELb0EEEPKcSI_St17integral_constantIbXT_EESJ_IbXT0_EEbbb
FNA:4,0,_ZN5boost4json12basic_parserINS0_6detail12into_handlerINS_8variant27variantIJNS4_9monostateEiNSt7__cxx1112basic_stringIcSt11char_traitsIcESaIcEEEEEEEEE11parse_arrayILb1ELb1EEEPKcSI_St17integral_constantIbXT_EESJ_IbXT0_EEbbb
FNA:4,0,_ZN5boost4json12basic_parserINS0_6detail12into_handlerINS_8variant27variantIJNS4_9monostateEibEEEEEE11parse_arrayILb0ELb0EEEPKcSC_St17integral_constantIbXT_EESD_IbXT0_EEbbb
FNA:4,0,_ZN5boost4json12basic_parserINS0_6detail12into_handlerINS_8variant27variantIJNS4_9monostateEibEEEEEE11parse_arrayILb0ELb1EEEPKcSC_St17integral_constantIbXT_EESD_IbXT0_EEbbb
FNA:4,0,_ZN5boost4json12basic_parserINS0_6detail12into_handlerINS_8variant27variantIJNS4_9monostateEibEEEEEE11parse_arrayILb1ELb0EEEPKcSC_St17integral_constantIbXT_EESD_IbXT0_EEbbb
FNA:4,0,_ZN5boost4json12basic_parserINS0_6detail12into_handlerINS_8variant27variantIJNS4_9monostateEibEEEEEE11parse_arrayILb1ELb1EEEPKcSC_St17integral_constantIbXT_EESD_IbXT0_EEbbb
FNA:4,0,_ZN5boost4json12basic_parserINS0_6detail12into_handlerINS_8variant27variantIJSt6vectorIiSaIiEEEEEEEE11parse_arrayILb0ELb0EEEPKcSE_St17integral_constantIbXT_EESF_IbXT0_EEbbb
FNA:4,10,_ZN5boost4json12basic_parserINS0_6detail12into_handlerINS_8variant27variantIJSt6vectorIiSaIiEEEEEEEE11parse_arrayILb0ELb1EEEPKcSE_St17integral_constantIbXT_EESF_IbXT0_EEbbb
FNA:4,6,_ZN5boost4json12basic_parserINS0_6detail12into_handlerINS_8variant27variantIJSt6vectorIiSaIiEEEEEEEE11parse_arrayILb1ELb0EEEPKcSE_St17integral_constantIbXT_EESF_IbXT0_EEbbb
FNA:4,1,_ZN5boost4json12basic_parserINS0_6detail12into_handlerINS_8variant27variantIJSt6vectorIiSaIiEEEEEEEE11parse_arrayILb1ELb1EEEPKcSE_St17integral_constantIbXT_EESF_IbXT0_EEbbb
FNA:4,0,_ZN5boost4json12basic_parserINS0_6detail12into_handlerINS_8variant27variantIJSt6vectorIiSaIiEESt5tupleIJiNSt7__cxx1112basic_stringIcSt11char_traitsIcESaIcEEESt3mapISF_iSt4lessISF_ESaISt4pairIKSF_iEEEEES9_IJiSF_SG_ISF_dSI_SaISJ_ISK_dEEEEEEEEEEE11parse_arrayILb0ELb0EEEPKcSY_St17integral_constantIbXT_EESZ_IbXT0_EEbbb
FNA:4,33,_ZN5boost4json12basic_parserINS0_6detail12into_handlerINS_8variant27variantIJSt6vectorIiSaIiEESt5tupleIJiNSt7__cxx1112basic_stringIcSt11char_traitsIcESaIcEEESt3mapISF_iSt4lessISF_ESaISt4pairIKSF_iEEEEES9_IJiSF_SG_ISF_dSI_SaISJ_ISK_dEEEEEEEEEEE11parse_arrayILb0ELb1EEEPKcSY_St17integral_constantIbXT_EESZ_IbXT0_EEbbb
FNA:4,6,_ZN5boost4json12basic_parserINS0_6detail12into_handlerINS_8variant27variantIJSt6vectorIiSaIiEESt5tupleIJiNSt7__cxx1112basic_stringIcSt11char_traitsIcESaIcEEESt3mapISF_iSt4lessISF_ESaISt4pairIKSF_iEEEEES9_IJiSF_SG_ISF_dSI_SaISJ_ISK_dEEEEEEEEEEE11parse_arrayILb1ELb0EEEPKcSY_St17integral_constantIbXT_EESZ_IbXT0_EEbbb
FNA:4,1,_ZN5boost4json12basic_parserINS0_6detail12into_handlerINS_8variant27variantIJSt6vectorIiSaIiEESt5tupleIJiNSt7__cxx1112basic_stringIcSt11char_traitsIcESaIcEEESt3mapISF_iSt4lessISF_ESaISt4pairIKSF_iEEEEES9_IJiSF_SG_ISF_dSI_SaISJ_ISK_dEEEEEEEEEEE11parse_arrayILb1ELb1EEEPKcSY_St17integral_constantIbXT_EESZ_IbXT0_EEbbb
FNA:4,0,_ZN5boost4json12basic_parserINS0_6detail12into_handlerINS_8variant27variantIJbmEEEEEE11parse_arrayILb0ELb0EEEPKcSB_St17integral_constantIbXT_EESC_IbXT0_EEbbb
FNA:4,0,_ZN5boost4json12basic_parserINS0_6detail12into_handlerINS_8variant27variantIJbmEEEEEE11parse_arrayILb0ELb1EEEPKcSB_St17integral_constantIbXT_EESC_IbXT0_EEbbb
FNA:4,0,_ZN5boost4json12basic_parserINS0_6detail12into_handlerINS_8variant27variantIJbmEEEEEE11parse_arrayILb1ELb0EEEPKcSB_St17integral_constantIbXT_EESC_IbXT0_EEbbb
FNA:4,0,_ZN5boost4json12basic_parserINS0_6detail12into_handlerINS_8variant27variantIJbmEEEEEE11parse_arrayILb1ELb1EEEPKcSB_St17integral_constantIbXT_EESC_IbXT0_EEbbb
FNA:4,0,_ZN5boost4json12basic_parserINS0_6detail12into_handlerINS_8variant27variantIJiEEEEEE11parse_arrayILb0ELb0EEEPKcSB_St17integral_constantIbXT_EESC_IbXT0_EEbbb
FNA:4,0,_ZN5boost4json12basic_parserINS0_6detail12into_handlerINS_8variant27variantIJiEEEEEE11parse_arrayILb0ELb1EEEPKcSB_St17integral_constantIbXT_EESC_IbXT0_EEbbb
FNA:4,0,_ZN5boost4json12basic_parserINS0_6detail12into_handlerINS_8variant27variantIJiEEEEEE11parse_arrayILb1ELb0EEEPKcSB_St17integral_constantIbXT_EESC_IbXT0_EEbbb
FNA:4,0,_ZN5boost4json12basic_parserINS0_6detail12into_handlerINS_8variant27variantIJiEEEEEE11parse_arrayILb1ELb1EEEPKcSB_St17integral_constantIbXT_EESC_IbXT0_EEbbb
FNA:4,0,_ZN5boost4json12basic_parserINS0_6detail12into_handlerINS_8variant27variantIJiNSt7__cxx1112basic_stringIcSt11char_traitsIcESaIcEEEEEEEEE11parse_arrayILb0ELb0EEEPKcSH_St17integral_constantIbXT_EESI_IbXT0_EEbbb
FNA:4,0,_ZN5boost4json12basic_parserINS0_6detail12into_handlerINS_8variant27variantIJiNSt7__cxx1112basic_stringIcSt11char_traitsIcESaIcEEEEEEEEE11parse_arrayILb0ELb1EEEPKcSH_St17integral_constantIbXT_EESI_IbXT0_EEbbb
FNA:4,0,_ZN5boost4json12basic_parserINS0_6detail12into_handlerINS_8variant27variantIJiNSt7__cxx1112basic_stringIcSt11char_traitsIcESaIcEEEEEEEEE11parse_arrayILb1ELb0EEEPKcSH_St17integral_constantIbXT_EESI_IbXT0_EEbbb
FNA:4,0,_ZN5boost4json12basic_parserINS0_6detail12into_handlerINS_8variant27variantIJiNSt7__cxx1112basic_stringIcSt11char_traitsIcESaIcEEEEEEEEE11parse_arrayILb1ELb1EEEPKcSH_St17integral_constantIbXT_EESI_IbXT0_EEbbb
FNA:4,0,_ZN5boost4json12basic_parserINS0_6detail12into_handlerINSt7__cxx1112basic_stringIcSt11char_traitsIcESaIcEEEEEE11parse_arrayILb0ELb0EEEPKcSE_St17integral_constantIbXT_EESF_IbXT0_EEbbb
FNA:4,0,_ZN5boost4json12basic_parserINS0_6detail12into_handlerINSt7__cxx1112basic_stringIcSt11char_traitsIcESaIcEEEEEE11parse_arrayILb0ELb1EEEPKcSE_St17integral_constantIbXT_EESF_IbXT0_EEbbb
FNA:4,0,_ZN5boost4json12basic_parserINS0_6detail12into_handlerINSt7__cxx1112basic_stringIcSt11char_traitsIcESaIcEEEEEE11parse_arrayILb1ELb0EEEPKcSE_St17integral_constantIbXT_EESF_IbXT0_EEbbb
FNA:4,0,_ZN5boost4json12basic_parserINS0_6detail12into_handlerINSt7__cxx1112basic_stringIcSt11char_traitsIcESaIcEEEEEE11parse_arrayILb1ELb1EEEPKcSE_St17integral_constantIbXT_EESF_IbXT0_EEbbb
FNA:4,0,_ZN5boost4json12basic_parserINS0_6detail12into_handlerISt3mapINSt7__cxx1112basic_stringIcSt11char_traitsIcESaIcEEES4_ISA_iSt4lessISA_ESaISt4pairIKSA_iEEESC_SaISD_ISE_SH_EEEEEE11parse_arrayILb0ELb0EEEPKcSP_St17integral_constantIbXT_EESQ_IbXT0_EEbbb
FNA:4,0,_ZN5boost4json12basic_parserINS0_6detail12into_handlerISt3mapINSt7__cxx1112basic_stringIcSt11char_traitsIcESaIcEEES4_ISA_iSt4lessISA_ESaISt4pairIKSA_iEEESC_SaISD_ISE_SH_EEEEEE11parse_arrayILb0ELb1EEEPKcSP_St17integral_constantIbXT_EESQ_IbXT0_EEbbb
FNA:4,2,_ZN5boost4json12basic_parserINS0_6detail12into_handlerISt3mapINSt7__cxx1112basic_stringIcSt11char_traitsIcESaIcEEES4_ISA_iSt4lessISA_ESaISt4pairIKSA_iEEESC_SaISD_ISE_SH_EEEEEE11parse_arrayILb1ELb0EEEPKcSP_St17integral_constantIbXT_EESQ_IbXT0_EEbbb
FNA:4,0,_ZN5boost4json12basic_parserINS0_6detail12into_handlerISt3mapINSt7__cxx1112basic_stringIcSt11char_traitsIcESaIcEEES4_ISA_iSt4lessISA_ESaISt4pairIKSA_iEEESC_SaISD_ISE_SH_EEEEEE11parse_arrayILb1ELb1EEEPKcSP_St17integral_constantIbXT_EESQ_IbXT0_EEbbb
FNA:4,1,_ZN5boost4json12basic_parserINS0_6detail12into_handlerISt3mapINSt7__cxx1112basic_stringIcSt11char_traitsIcESaIcEEESt5tupleIJiiEESt4lessISA_ESaISt4pairIKSA_SC_EEEEEE11parse_arrayILb0ELb0EEEPKcSO_St17integral_constantIbXT_EESP_IbXT0_EEbbb
FNA:4,0,_ZN5boost4json12basic_parserINS0_6detail12into_handlerISt3mapINSt7__cxx1112basic_stringIcSt11char_traitsIcESaIcEEESt5tupleIJiiEESt4lessISA_ESaISt4pairIKSA_SC_EEEEEE11parse_arrayILb0ELb1EEEPKcSO_St17integral_constantIbXT_EESP_IbXT0_EEbbb
FNA:4,2,_ZN5boost4json12basic_parserINS0_6detail12into_handlerISt3mapINSt7__cxx1112basic_stringIcSt11char_traitsIcESaIcEEESt5tupleIJiiEESt4lessISA_ESaISt4pairIKSA_SC_EEEEEE11parse_arrayILb1ELb0EEEPKcSO_St17integral_constantIbXT_EESP_IbXT0_EEbbb
FNA:4,0,_ZN5boost4json12basic_parserINS0_6detail12into_handlerISt3mapINSt7__cxx1112basic_stringIcSt11char_traitsIcESaIcEEESt5tupleIJiiEESt4lessISA_ESaISt4pairIKSA_SC_EEEEEE11parse_arrayILb1ELb1EEEPKcSO_St17integral_constantIbXT_EESP_IbXT0_EEbbb
FNA:4,0,_ZN5boost4json12basic_parserINS0_6detail12into_handlerISt3mapINSt7__cxx1112basic_stringIcSt11char_traitsIcESaIcEEESt6vectorISt4pairIiiESaISD_EESt4lessISA_ESaISC_IKSA_SF_EEEEEE11parse_arrayILb0ELb0EEEPKcSQ_St17integral_constantIbXT_EESR_IbXT0_EEbbb
FNA:4,21,_ZN5boost4json12basic_parserINS0_6detail12into_handlerISt3mapINSt7__cxx1112basic_stringIcSt11char_traitsIcESaIcEEESt6vectorISt4pairIiiESaISD_EESt4lessISA_ESaISC_IKSA_SF_EEEEEE11parse_arrayILb0ELb1EEEPKcSQ_St17integral_constantIbXT_EESR_IbXT0_EEbbb
FNA:4,24,_ZN5boost4json12basic_parserINS0_6detail12into_handlerISt3mapINSt7__cxx1112basic_stringIcSt11char_traitsIcESaIcEEESt6vectorISt4pairIiiESaISD_EESt4lessISA_ESaISC_IKSA_SF_EEEEEE11parse_arrayILb1ELb0EEEPKcSQ_St17integral_constantIbXT_EESR_IbXT0_EEbbb
FNA:4,4,_ZN5boost4json12basic_parserINS0_6detail12into_handlerISt3mapINSt7__cxx1112basic_stringIcSt11char_traitsIcESaIcEEESt6vectorISt4pairIiiESaISD_EESt4lessISA_ESaISC_IKSA_SF_EEEEEE11parse_arrayILb1ELb1EEEPKcSQ_St17integral_constantIbXT_EESR_IbXT0_EEbbb
FNA:4,0,_ZN5boost4json12basic_parserINS0_6detail12into_handlerISt3mapINSt7__cxx1112basic_stringIcSt11char_traitsIcESaIcEEESt6vectorIiSaIiEESt4lessISA_ESaISt4pairIKSA_SD_EEEEEE11parse_arrayILb0ELb0EEEPKcSP_St17integral_constantIbXT_EESQ_IbXT0_EEbbb
FNA:4,6,_ZN5boost4json12basic_parserINS0_6detail12into_handlerISt3mapINSt7__cxx1112basic_stringIcSt11char_traitsIcESaIcEEESt6vectorIiSaIiEESt4lessISA_ESaISt4pairIKSA_SD_EEEEEE11parse_arrayILb0ELb1EEEPKcSP_St17integral_constantIbXT_EESQ_IbXT0_EEbbb
FNA:4,14,_ZN5boost4json12basic_parserINS0_6detail12into_handlerISt3mapINSt7__cxx1112basic_stringIcSt11char_traitsIcESaIcEEESt6vectorIiSaIiEESt4lessISA_ESaISt4pairIKSA_SD_EEEEEE11parse_arrayILb1ELb0EEEPKcSP_St17integral_constantIbXT_EESQ_IbXT0_EEbbb
FNA:4,2,_ZN5boost4json12basic_parserINS0_6detail12into_handlerISt3mapINSt7__cxx1112basic_stringIcSt11char_traitsIcESaIcEEESt6vectorIiSaIiEESt4lessISA_ESaISt4pairIKSA_SD_EEEEEE11parse_arrayILb1ELb1EEEPKcSP_St17integral_constantIbXT_EESQ_IbXT0_EEbbb
FNA:4,0,_ZN5boost4json12basic_parserINS0_6detail12into_handlerISt3mapINSt7__cxx1112basic_stringIcSt11char_traitsIcESaIcEEEiSt4lessISA_ESaISt4pairIKSA_iEEEEEE11parse_arrayILb0ELb0EEEPKcSM_St17integral_constantIbXT_EESN_IbXT0_EEbbb
FNA:4,0,_ZN5boost4json12basic_parserINS0_6detail12into_handlerISt3mapINSt7__cxx1112basic_stringIcSt11char_traitsIcESaIcEEEiSt4lessISA_ESaISt4pairIKSA_iEEEEEE11parse_arrayILb0ELb1EEEPKcSM_St17integral_constantIbXT_EESN_IbXT0_EEbbb
FNA:4,2,_ZN5boost4json12basic_parserINS0_6detail12into_handlerISt3mapINSt7__cxx1112basic_stringIcSt11char_traitsIcESaIcEEEiSt4lessISA_ESaISt4pairIKSA_iEEEEEE11parse_arrayILb1ELb0EEEPKcSM_St17integral_constantIbXT_EESN_IbXT0_EEbbb
FNA:4,0,_ZN5boost4json12basic_parserINS0_6detail12into_handlerISt3mapINSt7__cxx1112basic_stringIcSt11char_traitsIcESaIcEEEiSt4lessISA_ESaISt4pairIKSA_iEEEEEE11parse_arrayILb1ELb1EEEPKcSM_St17integral_constantIbXT_EESN_IbXT0_EEbbb
FNA:4,0,_ZN5boost4json12basic_parserINS0_6detail12into_handlerISt4pairIDnmEEEE11parse_arrayILb0ELb0EEEPKcSA_St17integral_constantIbXT_EESB_IbXT0_EEbbb
FNA:4,26,_ZN5boost4json12basic_parserINS0_6detail12into_handlerISt4pairIDnmEEEE11parse_arrayILb0ELb1EEEPKcSA_St17integral_constantIbXT_EESB_IbXT0_EEbbb
FNA:4,6,_ZN5boost4json12basic_parserINS0_6detail12into_handlerISt4pairIDnmEEEE11parse_arrayILb1ELb0EEEPKcSA_St17integral_constantIbXT_EESB_IbXT0_EEbbb
FNA:4,1,_ZN5boost4json12basic_parserINS0_6detail12into_handlerISt4pairIDnmEEEE11parse_arrayILb1ELb1EEEPKcSA_St17integral_constantIbXT_EESB_IbXT0_EEbbb
FNA:4,0,_ZN5boost4json12basic_parserINS0_6detail12into_handlerISt4pairISt6vectorIiSaIiEESt3mapINSt7__cxx1112basic_stringIcSt11char_traitsIcESaIcEEES4_IibESt4lessISE_ESaIS4_IKSE_SF_EEEEEEE11parse_arrayILb0ELb0EEEPKcSR_St17integral_constantIbXT_EESS_IbXT0_EEbbb
FNA:4,45,_ZN5boost4json12basic_parserINS0_6detail12into_handlerISt4pairISt6vectorIiSaIiEESt3mapINSt7__cxx1112basic_stringIcSt11char_traitsIcESaIcEEES4_IibESt4lessISE_ESaIS4_IKSE_SF_EEEEEEE11parse_arrayILb0ELb1EEEPKcSR_St17integral_constantIbXT_EESS_IbXT0_EEbbb
FNA:4,30,_ZN5boost4json12basic_parserINS0_6detail12into_handlerISt4pairISt6vectorIiSaIiEESt3mapINSt7__cxx1112basic_stringIcSt11char_traitsIcESaIcEEES4_IibESt4lessISE_ESaIS4_IKSE_SF_EEEEEEE11parse_arrayILb1ELb0EEEPKcSR_St17integral_constantIbXT_EESS_IbXT0_EEbbb
FNA:4,5,_ZN5boost4json12basic_parserINS0_6detail12into_handlerISt4pairISt6vectorIiSaIiEESt3mapINSt7__cxx1112basic_stringIcSt11char_traitsIcESaIcEEES4_IibESt4lessISE_ESaIS4_IKSE_SF_EEEEEEE11parse_arrayILb1ELb1EEEPKcSR_St17integral_constantIbXT_EESS_IbXT0_EEbbb
FNA:4,5,_ZN5boost4json12basic_parserINS0_6detail12into_handlerISt4pairIiiEEEE11parse_arrayILb0ELb0EEEPKcSA_St17integral_constantIbXT_EESB_IbXT0_EEbbb
FNA:4,0,_ZN5boost4json12basic_parserINS0_6detail12into_handlerISt4pairIiiEEEE11parse_arrayILb0ELb1EEEPKcSA_St17integral_constantIbXT_EESB_IbXT0_EEbbb
FNA:4,2,_ZN5boost4json12basic_parserINS0_6detail12into_handlerISt4pairIiiEEEE11parse_arrayILb1ELb0EEEPKcSA_St17integral_constantIbXT_EESB_IbXT0_EEbbb
FNA:4,0,_ZN5boost4json12basic_parserINS0_6detail12into_handlerISt4pairIiiEEEE11parse_arrayILb1ELb1EEEPKcSA_St17integral_constantIbXT_EESB_IbXT0_EEbbb
FNA:4,16,_ZN5boost4json12basic_parserINS0_6detail12into_handlerISt5arrayIiLm4EEEEE11parse_arrayILb0ELb0EEEPKcSA_St17integral_constantIbXT_EESB_IbXT0_EEbbb
FNA:4,12,_ZN5boost4json12basic_parserINS0_6detail12into_handlerISt5arrayIiLm4EEEEE11parse_arrayILb0ELb1EEEPKcSA_St17integral_constantIbXT_EESB_IbXT0_EEbbb
FNA:4,10,_ZN5boost4json12basic_parserINS0_6detail12into_handlerISt5arrayIiLm4EEEEE11parse_arrayILb1ELb0EEEPKcSA_St17integral_constantIbXT_EESB_IbXT0_EEbbb
FNA:4,1,_ZN5boost4json12basic_parserINS0_6detail12into_handlerISt5arrayIiLm4EEEEE11parse_arrayILb1ELb1EEEPKcSA_St17integral_constantIbXT_EESB_IbXT0_EEbbb
FNA:4,11,_ZN5boost4json12basic_parserINS0_6detail12into_handlerISt5tupleIJSt6vectorIiSaIiEEEEEEE11parse_arrayILb0ELb0EEEPKcSD_St17integral_constantIbXT_EESE_IbXT0_EEbbb
FNA:4,0,_ZN5boost4json12basic_parserINS0_6detail12into_handlerISt5tupleIJSt6vectorIiSaIiEEEEEEE11parse_arrayILb0ELb1EEEPKcSD_St17integral_constantIbXT_EESE_IbXT0_EEbbb
FNA:4,6,_ZN5boost4json12basic_parserINS0_6detail12into_handlerISt5tupleIJSt6vectorIiSaIiEEEEEEE11parse_arrayILb1ELb0EEEPKcSD_St17integral_constantIbXT_EESE_IbXT0_EEbbb
FNA:4,0,_ZN5boost4json12basic_parserINS0_6detail12into_handlerISt5tupleIJSt6vectorIiSaIiEEEEEEE11parse_arrayILb1ELb1EEEPKcSD_St17integral_constantIbXT_EESE_IbXT0_EEbbb
FNA:4,0,_ZN5boost4json12basic_parserINS0_6detail12into_handlerISt5tupleIJifNSt7__cxx1112basic_stringIcSt11char_traitsIcESaIcEEEEEEEE11parse_arrayILb0ELb0EEEPKcSG_St17integral_constantIbXT_EESH_IbXT0_EEbbb
FNA:4,39,_ZN5boost4json12basic_parserINS0_6detail12into_handlerISt5tupleIJifNSt7__cxx1112basic_stringIcSt11char_traitsIcESaIcEEEEEEEE11parse_arrayILb0ELb1EEEPKcSG_St17integral_constantIbXT_EESH_IbXT0_EEbbb
FNA:4,12,_ZN5boost4json12basic_parserINS0_6detail12into_handlerISt5tupleIJifNSt7__cxx1112basic_stringIcSt11char_traitsIcESaIcEEEEEEEE11parse_arrayILb1ELb0EEEPKcSG_St17integral_constantIbXT_EESH_IbXT0_EEbbb
FNA:4,2,_ZN5boost4json12basic_parserINS0_6detail12into_handlerISt5tupleIJifNSt7__cxx1112basic_stringIcSt11char_traitsIcESaIcEEEEEEEE11parse_arrayILb1ELb1EEEPKcSG_St17integral_constantIbXT_EESH_IbXT0_EEbbb
FNA:4,4,_ZN5boost4json12basic_parserINS0_6detail12into_handlerISt5tupleIJiiiEEEEE11parse_arrayILb0ELb0EEEPKcSA_St17integral_constantIbXT_EESB_IbXT0_EEbbb
FNA:4,0,_ZN5boost4json12basic_parserINS0_6detail12into_handlerISt5tupleIJiiiEEEEE11parse_arrayILb0ELb1EEEPKcSA_St17integral_constantIbXT_EESB_IbXT0_EEbbb
FNA:4,2,_ZN5boost4json12basic_parserINS0_6detail12into_handlerISt5tupleIJiiiEEEEE11parse_arrayILb1ELb0EEEPKcSA_St17integral_constantIbXT_EESB_IbXT0_EEbbb
FNA:4,0,_ZN5boost4json12basic_parserINS0_6detail12into_handlerISt5tupleIJiiiEEEEE11parse_arrayILb1ELb1EEEPKcSA_St17integral_constantIbXT_EESB_IbXT0_EEbbb
FNA:4,0,_ZN5boost4json12basic_parserINS0_6detail12into_handlerISt6vectorIDnSaIDnEEEEE11parse_arrayILb0ELb0EEEPKcSB_St17integral_constantIbXT_EESC_IbXT0_EEbbb
FNA:4,10,_ZN5boost4json12basic_parserINS0_6detail12into_handlerISt6vectorIDnSaIDnEEEEE11parse_arrayILb0ELb1EEEPKcSB_St17integral_constantIbXT_EESC_IbXT0_EEbbb
FNA:4,6,_ZN5boost4json12basic_parserINS0_6detail12into_handlerISt6vectorIDnSaIDnEEEEE11parse_arrayILb1ELb0EEEPKcSB_St17integral_constantIbXT_EESC_IbXT0_EEbbb
FNA:4,1,_ZN5boost4json12basic_parserINS0_6detail12into_handlerISt6vectorIDnSaIDnEEEEE11parse_arrayILb1ELb1EEEPKcSB_St17integral_constantIbXT_EESC_IbXT0_EEbbb
FNA:4,0,_ZN5boost4json12basic_parserINS0_6detail12into_handlerISt6vectorINS_8variant27variantIJiNSt7__cxx1112basic_stringIcSt11char_traitsIcESaIcEEEEEESaISD_EEEEE11parse_arrayILb0ELb0EEEPKcSK_St17integral_constantIbXT_EESL_IbXT0_EEbbb
FNA:4,31,_ZN5boost4json12basic_parserINS0_6detail12into_handlerISt6vectorINS_8variant27variantIJiNSt7__cxx1112basic_stringIcSt11char_traitsIcESaIcEEEEEESaISD_EEEEE11parse_arrayILb0ELb1EEEPKcSK_St17integral_constantIbXT_EESL_IbXT0_EEbbb
FNA:4,6,_ZN5boost4json12basic_parserINS0_6detail12into_handlerISt6vectorINS_8variant27variantIJiNSt7__cxx1112basic_stringIcSt11char_traitsIcESaIcEEEEEESaISD_EEEEE11parse_arrayILb1ELb0EEEPKcSK_St17integral_constantIbXT_EESL_IbXT0_EEbbb
FNA:4,1,_ZN5boost4json12basic_parserINS0_6detail12into_handlerISt6vectorINS_8variant27variantIJiNSt7__cxx1112basic_stringIcSt11char_traitsIcESaIcEEEEEESaISD_EEEEE11parse_arrayILb1ELb1EEEPKcSK_St17integral_constantIbXT_EESL_IbXT0_EEbbb
FNA:4,0,_ZN5boost4json12basic_parserINS0_6detail12into_handlerISt6vectorINSt7__cxx1112basic_stringIcSt11char_traitsIcESaIcEEESaISA_EEEEE11parse_arrayILb0ELb0EEEPKcSH_St17integral_constantIbXT_EESI_IbXT0_EEbbb
FNA:4,21,_ZN5boost4json12basic_parserINS0_6detail12into_handlerISt6vectorINSt7__cxx1112basic_stringIcSt11char_traitsIcESaIcEEESaISA_EEEEE11parse_arrayILb0ELb1EEEPKcSH_St17integral_constantIbXT_EESI_IbXT0_EEbbb
FNA:4,12,_ZN5boost4json12basic_parserINS0_6detail12into_handlerISt6vectorINSt7__cxx1112basic_stringIcSt11char_traitsIcESaIcEEESaISA_EEEEE11parse_arrayILb1ELb0EEEPKcSH_St17integral_constantIbXT_EESI_IbXT0_EEbbb
FNA:4,2,_ZN5boost4json12basic_parserINS0_6detail12into_handlerISt6vectorINSt7__cxx1112basic_stringIcSt11char_traitsIcESaIcEEESaISA_EEEEE11parse_arrayILb1ELb1EEEPKcSH_St17integral_constantIbXT_EESI_IbXT0_EEbbb
FNA:4,0,_ZN5boost4json12basic_parserINS0_6detail12into_handlerISt6vectorIS4_ISt4pairIiiESaIS6_EESaIS8_EEEEE11parse_arrayILb0ELb0EEEPKcSF_St17integral_constantIbXT_EESG_IbXT0_EEbbb
FNA:4,103,_ZN5boost4json12basic_parserINS0_6detail12into_handlerISt6vectorIS4_ISt4pairIiiESaIS6_EESaIS8_EEEEE11parse_arrayILb0ELb1EEEPKcSF_St17integral_constantIbXT_EESG_IbXT0_EEbbb
FNA:4,72,_ZN5boost4json12basic_parserINS0_6detail12into_handlerISt6vectorIS4_ISt4pairIiiESaIS6_EESaIS8_EEEEE11parse_arrayILb1ELb0EEEPKcSF_St17integral_constantIbXT_EESG_IbXT0_EEbbb
FNA:4,12,_ZN5boost4json12basic_parserINS0_6detail12into_handlerISt6vectorIS4_ISt4pairIiiESaIS6_EESaIS8_EEEEE11parse_arrayILb1ELb1EEEPKcSF_St17integral_constantIbXT_EESG_IbXT0_EEbbb
FNA:4,1,_ZN5boost4json12basic_parserINS0_6detail12into_handlerISt6vectorIS4_IiSaIiEESaIS6_EEEEE11parse_arrayILb0ELb0EEEPKcSD_St17integral_constantIbXT_EESE_IbXT0_EEbbb
FNA:4,35,_ZN5boost4json12basic_parserINS0_6detail12into_handlerISt6vectorIS4_IiSaIiEESaIS6_EEEEE11parse_arrayILb0ELb1EEEPKcSD_St17integral_constantIbXT_EESE_IbXT0_EEbbb
FNA:4,38,_ZN5boost4json12basic_parserINS0_6detail12into_handlerISt6vectorIS4_IiSaIiEESaIS6_EEEEE11parse_arrayILb1ELb0EEEPKcSD_St17integral_constantIbXT_EESE_IbXT0_EEbbb
FNA:4,6,_ZN5boost4json12basic_parserINS0_6detail12into_handlerISt6vectorIS4_IiSaIiEESaIS6_EEEEE11parse_arrayILb1ELb1EEEPKcSD_St17integral_constantIbXT_EESE_IbXT0_EEbbb
FNA:4,0,_ZN5boost4json12basic_parserINS0_6detail12into_handlerISt6vectorISt3mapINSt7__cxx1112basic_stringIcSt11char_traitsIcESaIcEEEiSt4lessISB_ESaISt4pairIKSB_iEEESaISI_EEEEE11parse_arrayILb0ELb0EEEPKcSP_St17integral_constantIbXT_EESQ_IbXT0_EEbbb
FNA:4,25,_ZN5boost4json12basic_parserINS0_6detail12into_handlerISt6vectorISt3mapINSt7__cxx1112basic_stringIcSt11char_traitsIcESaIcEEEiSt4lessISB_ESaISt4pairIKSB_iEEESaISI_EEEEE11parse_arrayILb0ELb1EEEPKcSP_St17integral_constantIbXT_EESQ_IbXT0_EEbbb
FNA:4,6,_ZN5boost4json12basic_parserINS0_6detail12into_handlerISt6vectorISt3mapINSt7__cxx1112basic_stringIcSt11char_traitsIcESaIcEEEiSt4lessISB_ESaISt4pairIKSB_iEEESaISI_EEEEE11parse_arrayILb1ELb0EEEPKcSP_St17integral_constantIbXT_EESQ_IbXT0_EEbbb
FNA:4,1,_ZN5boost4json12basic_parserINS0_6detail12into_handlerISt6vectorISt3mapINSt7__cxx1112basic_stringIcSt11char_traitsIcESaIcEEEiSt4lessISB_ESaISt4pairIKSB_iEEESaISI_EEEEE11parse_arrayILb1ELb1EEEPKcSP_St17integral_constantIbXT_EESQ_IbXT0_EEbbb
FNA:4,0,_ZN5boost4json12basic_parserINS0_6detail12into_handlerISt6vectorISt4pairIiiESaIS6_EEEEE11parse_arrayILb0ELb0EEEPKcSD_St17integral_constantIbXT_EESE_IbXT0_EEbbb
FNA:4,21,_ZN5boost4json12basic_parserINS0_6detail12into_handlerISt6vectorISt4pairIiiESaIS6_EEEEE11parse_arrayILb0ELb1EEEPKcSD_St17integral_constantIbXT_EESE_IbXT0_EEbbb
FNA:4,24,_ZN5boost4json12basic_parserINS0_6detail12into_handlerISt6vectorISt4pairIiiESaIS6_EEEEE11parse_arrayILb1ELb0EEEPKcSD_St17integral_constantIbXT_EESE_IbXT0_EEbbb
FNA:4,4,_ZN5boost4json12basic_parserINS0_6detail12into_handlerISt6vectorISt4pairIiiESaIS6_EEEEE11parse_arrayILb1ELb1EEEPKcSD_St17integral_constantIbXT_EESE_IbXT0_EEbbb
FNA:4,0,_ZN5boost4json12basic_parserINS0_6detail12into_handlerISt6vectorISt5arrayIiLm4EESaIS6_EEEEE11parse_arrayILb0ELb0EEEPKcSD_St17integral_constantIbXT_EESE_IbXT0_EEbbb
FNA:4,78,_ZN5boost4json12basic_parserINS0_6detail12into_handlerISt6vectorISt5arrayIiLm4EESaIS6_EEEEE11parse_arrayILb0ELb1EEEPKcSD_St17integral_constantIbXT_EESE_IbXT0_EEbbb
FNA:4,24,_ZN5boost4json12basic_parserINS0_6detail12into_handlerISt6vectorISt5arrayIiLm4EESaIS6_EEEEE11parse_arrayILb1ELb0EEEPKcSD_St17integral_constantIbXT_EESE_IbXT0_EEbbb
FNA:4,4,_ZN5boost4json12basic_parserINS0_6detail12into_handlerISt6vectorISt5arrayIiLm4EESaIS6_EEEEE11parse_arrayILb1ELb1EEEPKcSD_St17integral_constantIbXT_EESE_IbXT0_EEbbb
FNA:4,0,_ZN5boost4json12basic_parserINS0_6detail12into_handlerISt6vectorIbSaIbEEEEE11parse_arrayILb0ELb0EEEPKcSB_St17integral_constantIbXT_EESC_IbXT0_EEbbb
FNA:4,12,_ZN5boost4json12basic_parserINS0_6detail12into_handlerISt6vectorIbSaIbEEEEE11parse_arrayILb0ELb1EEEPKcSB_St17integral_constantIbXT_EESC_IbXT0_EEbbb
FNA:4,12,_ZN5boost4json12basic_parserINS0_6detail12into_handlerISt6vectorIbSaIbEEEEE11parse_arrayILb1ELb0EEEPKcSB_St17integral_constantIbXT_EESC_IbXT0_EEbbb
FNA:4,2,_ZN5boost4json12basic_parserINS0_6detail12into_handlerISt6vectorIbSaIbEEEEE11parse_arrayILb1ELb1EEEPKcSB_St17integral_constantIbXT_EESC_IbXT0_EEbbb
FNA:4,0,_ZN5boost4json12basic_parserINS0_6detail12into_handlerISt6vectorIcSaIcEEEEE11parse_arrayILb0ELb0EEEPKcSB_St17integral_constantIbXT_EESC_IbXT0_EEbbb
FNA:4,0,_ZN5boost4json12basic_parserINS0_6detail12into_handlerISt6vectorIcSaIcEEEEE11parse_arrayILb0ELb1EEEPKcSB_St17integral_constantIbXT_EESC_IbXT0_EEbbb
FNA:4,0,_ZN5boost4json12basic_parserINS0_6detail12into_handlerISt6vectorIcSaIcEEEEE11parse_arrayILb1ELb0EEEPKcSB_St17integral_constantIbXT_EESC_IbXT0_EEbbb
FNA:4,0,_ZN5boost4json12basic_parserINS0_6detail12into_handlerISt6vectorIcSaIcEEEEE11parse_arrayILb1ELb1EEEPKcSB_St17integral_constantIbXT_EESC_IbXT0_EEbbb
FNA:4,0,_ZN5boost4json12basic_parserINS0_6detail12into_handlerISt6vectorIfSaIfEEEEE11parse_arrayILb0ELb0EEEPKcSB_St17integral_constantIbXT_EESC_IbXT0_EEbbb
FNA:4,62,_ZN5boost4json12basic_parserINS0_6detail12into_handlerISt6vectorIfSaIfEEEEE11parse_arrayILb0ELb1EEEPKcSB_St17integral_constantIbXT_EESC_IbXT0_EEbbb
FNA:4,12,_ZN5boost4json12basic_parserINS0_6detail12into_handlerISt6vectorIfSaIfEEEEE11parse_arrayILb1ELb0EEEPKcSB_St17integral_constantIbXT_EESC_IbXT0_EEbbb
FNA:4,2,_ZN5boost4json12basic_parserINS0_6detail12into_handlerISt6vectorIfSaIfEEEEE11parse_arrayILb1ELb1EEEPKcSB_St17integral_constantIbXT_EESC_IbXT0_EEbbb
FNA:4,0,_ZN5boost4json12basic_parserINS0_6detail12into_handlerISt6vectorIiSaIiEEEEE11parse_arrayILb0ELb0EEEPKcSB_St17integral_constantIbXT_EESC_IbXT0_EEbbb
FNA:4,7,_ZN5boost4json12basic_parserINS0_6detail12into_handlerISt6vectorIiSaIiEEEEE11parse_arrayILb0ELb1EEEPKcSB_St17integral_constantIbXT_EESC_IbXT0_EEbbb
FNA:4,14,_ZN5boost4json12basic_parserINS0_6detail12into_handlerISt6vectorIiSaIiEEEEE11parse_arrayILb1ELb0EEEPKcSB_St17integral_constantIbXT_EESC_IbXT0_EEbbb
FNA:4,2,_ZN5boost4json12basic_parserINS0_6detail12into_handlerISt6vectorIiSaIiEEEEE11parse_arrayILb1ELb1EEEPKcSB_St17integral_constantIbXT_EESC_IbXT0_EEbbb
FNA:4,0,_ZN5boost4json12basic_parserINS0_6detail12into_handlerISt6vectorImSaImEEEEE11parse_arrayILb0ELb0EEEPKcSB_St17integral_constantIbXT_EESC_IbXT0_EEbbb
FNA:4,25,_ZN5boost4json12basic_parserINS0_6detail12into_handlerISt6vectorImSaImEEEEE11parse_arrayILb0ELb1EEEPKcSB_St17integral_constantIbXT_EESC_IbXT0_EEbbb
FNA:4,6,_ZN5boost4json12basic_parserINS0_6detail12into_handlerISt6vectorImSaImEEEEE11parse_arrayILb1ELb0EEEPKcSB_St17integral_constantIbXT_EESC_IbXT0_EEbbb
FNA:4,1,_ZN5boost4json12basic_parserINS0_6detail12into_handlerISt6vectorImSaImEEEEE11parse_arrayILb1ELb1EEEPKcSB_St17integral_constantIbXT_EESC_IbXT0_EEbbb
FNA:4,0,_ZN5boost4json12basic_parserINS0_6detail12into_handlerIaEEE11parse_arrayILb0ELb0EEEPKcS8_St17integral_constantIbXT_EES9_IbXT0_EEbbb
FNA:4,0,_ZN5boost4json12basic_parserINS0_6detail12into_handlerIaEEE11parse_arrayILb0ELb1EEEPKcS8_St17integral_constantIbXT_EES9_IbXT0_EEbbb
FNA:4,0,_ZN5boost4json12basic_parserINS0_6detail12into_handlerIaEEE11parse_arrayILb1ELb0EEEPKcS8_St17integral_constantIbXT_EES9_IbXT0_EEbbb
FNA:4,0,_ZN5boost4json12basic_parserINS0_6detail12into_handlerIaEEE11parse_arrayILb1ELb1EEEPKcS8_St17integral_constantIbXT_EES9_IbXT0_EEbbb
FNA:4,0,_ZN5boost4json12basic_parserINS0_6detail12into_handlerIbEEE11parse_arrayILb0ELb0EEEPKcS8_St17integral_constantIbXT_EES9_IbXT0_EEbbb
FNA:4,0,_ZN5boost4json12basic_parserINS0_6detail12into_handlerIbEEE11parse_arrayILb0ELb1EEEPKcS8_St17integral_constantIbXT_EES9_IbXT0_EEbbb
FNA:4,0,_ZN5boost4json12basic_parserINS0_6detail12into_handlerIbEEE11parse_arrayILb1ELb0EEEPKcS8_St17integral_constantIbXT_EES9_IbXT0_EEbbb
FNA:4,0,_ZN5boost4json12basic_parserINS0_6detail12into_handlerIbEEE11parse_arrayILb1ELb1EEEPKcS8_St17integral_constantIbXT_EES9_IbXT0_EEbbb
FNA:4,0,_ZN5boost4json12basic_parserINS0_6detail12into_handlerIcEEE11parse_arrayILb0ELb0EEEPKcS8_St17integral_constantIbXT_EES9_IbXT0_EEbbb
FNA:4,0,_ZN5boost4json12basic_parserINS0_6detail12into_handlerIcEEE11parse_arrayILb0ELb1EEEPKcS8_St17integral_constantIbXT_EES9_IbXT0_EEbbb
FNA:4,0,_ZN5boost4json12basic_parserINS0_6detail12into_handlerIcEEE11parse_arrayILb1ELb0EEEPKcS8_St17integral_constantIbXT_EES9_IbXT0_EEbbb
FNA:4,0,_ZN5boost4json12basic_parserINS0_6detail12into_handlerIcEEE11parse_arrayILb1ELb1EEEPKcS8_St17integral_constantIbXT_EES9_IbXT0_EEbbb
FNA:4,0,_ZN5boost4json12basic_parserINS0_6detail12into_handlerIdEEE11parse_arrayILb0ELb0EEEPKcS8_St17integral_constantIbXT_EES9_IbXT0_EEbbb
FNA:4,0,_ZN5boost4json12basic_parserINS0_6detail12into_handlerIdEEE11parse_arrayILb0ELb1EEEPKcS8_St17integral_constantIbXT_EES9_IbXT0_EEbbb
FNA:4,0,_ZN5boost4json12basic_parserINS0_6detail12into_handlerIdEEE11parse_arrayILb1ELb0EEEPKcS8_St17integral_constantIbXT_EES9_IbXT0_EEbbb
FNA:4,0,_ZN5boost4json12basic_parserINS0_6detail12into_handlerIdEEE11parse_arrayILb1ELb1EEEPKcS8_St17integral_constantIbXT_EES9_IbXT0_EEbbb
FNA:4,0,_ZN5boost4json12basic_parserINS0_6detail12into_handlerIfEEE11parse_arrayILb0ELb0EEEPKcS8_St17integral_constantIbXT_EES9_IbXT0_EEbbb
FNA:4,0,_ZN5boost4json12basic_parserINS0_6detail12into_handlerIfEEE11parse_arrayILb0ELb1EEEPKcS8_St17integral_constantIbXT_EES9_IbXT0_EEbbb
FNA:4,0,_ZN5boost4json12basic_parserINS0_6detail12into_handlerIfEEE11parse_arrayILb1ELb0EEEPKcS8_St17integral_constantIbXT_EES9_IbXT0_EEbbb
FNA:4,0,_ZN5boost4json12basic_parserINS0_6detail12into_handlerIfEEE11parse_arrayILb1ELb1EEEPKcS8_St17integral_constantIbXT_EES9_IbXT0_EEbbb
FNA:4,0,_ZN5boost4json12basic_parserINS0_6detail12into_handlerIhEEE11parse_arrayILb0ELb0EEEPKcS8_St17integral_constantIbXT_EES9_IbXT0_EEbbb
FNA:4,0,_ZN5boost4json12basic_parserINS0_6detail12into_handlerIhEEE11parse_arrayILb0ELb1EEEPKcS8_St17integral_constantIbXT_EES9_IbXT0_EEbbb
FNA:4,0,_ZN5boost4json12basic_parserINS0_6detail12into_handlerIhEEE11parse_arrayILb1ELb0EEEPKcS8_St17integral_constantIbXT_EES9_IbXT0_EEbbb
FNA:4,0,_ZN5boost4json12basic_parserINS0_6detail12into_handlerIhEEE11parse_arrayILb1ELb1EEEPKcS8_St17integral_constantIbXT_EES9_IbXT0_EEbbb
FNA:4,0,_ZN5boost4json12basic_parserINS0_6detail12into_handlerIiEEE11parse_arrayILb0ELb0EEEPKcS8_St17integral_constantIbXT_EES9_IbXT0_EEbbb
FNA:4,0,_ZN5boost4json12basic_parserINS0_6detail12into_handlerIiEEE11parse_arrayILb0ELb1EEEPKcS8_St17integral_constantIbXT_EES9_IbXT0_EEbbb
FNA:4,0,_ZN5boost4json12basic_parserINS0_6detail12into_handlerIiEEE11parse_arrayILb1ELb0EEEPKcS8_St17integral_constantIbXT_EES9_IbXT0_EEbbb
FNA:4,0,_ZN5boost4json12basic_parserINS0_6detail12into_handlerIiEEE11parse_arrayILb1ELb1EEEPKcS8_St17integral_constantIbXT_EES9_IbXT0_EEbbb
FNA:4,0,_ZN5boost4json12basic_parserINS0_6detail12into_handlerIjEEE11parse_arrayILb0ELb0EEEPKcS8_St17integral_constantIbXT_EES9_IbXT0_EEbbb
FNA:4,0,_ZN5boost4json12basic_parserINS0_6detail12into_handlerIjEEE11parse_arrayILb0ELb1EEEPKcS8_St17integral_constantIbXT_EES9_IbXT0_EEbbb
FNA:4,0,_ZN5boost4json12basic_parserINS0_6detail12into_handlerIjEEE11parse_arrayILb1ELb0EEEPKcS8_St17integral_constantIbXT_EES9_IbXT0_EEbbb
FNA:4,0,_ZN5boost4json12basic_parserINS0_6detail12into_handlerIjEEE11parse_arrayILb1ELb1EEEPKcS8_St17integral_constantIbXT_EES9_IbXT0_EEbbb
FNA:4,0,_ZN5boost4json12basic_parserINS0_6detail12into_handlerIlEEE11parse_arrayILb0ELb0EEEPKcS8_St17integral_constantIbXT_EES9_IbXT0_EEbbb
FNA:4,0,_ZN5boost4json12basic_parserINS0_6detail12into_handlerIlEEE11parse_arrayILb0ELb1EEEPKcS8_St17integral_constantIbXT_EES9_IbXT0_EEbbb
FNA:4,0,_ZN5boost4json12basic_parserINS0_6detail12into_handlerIlEEE11parse_arrayILb1ELb0EEEPKcS8_St17integral_constantIbXT_EES9_IbXT0_EEbbb
FNA:4,0,_ZN5boost4json12basic_parserINS0_6detail12into_handlerIlEEE11parse_arrayILb1ELb1EEEPKcS8_St17integral_constantIbXT_EES9_IbXT0_EEbbb
FNA:4,0,_ZN5boost4json12basic_parserINS0_6detail12into_handlerImEEE11parse_arrayILb0ELb0EEEPKcS8_St17integral_constantIbXT_EES9_IbXT0_EEbbb
FNA:4,0,_ZN5boost4json12basic_parserINS0_6detail12into_handlerImEEE11parse_arrayILb0ELb1EEEPKcS8_St17integral_constantIbXT_EES9_IbXT0_EEbbb
FNA:4,0,_ZN5boost4json12basic_parserINS0_6detail12into_handlerImEEE11parse_arrayILb1ELb0EEEPKcS8_St17integral_constantIbXT_EES9_IbXT0_EEbbb
FNA:4,0,_ZN5boost4json12basic_parserINS0_6detail12into_handlerImEEE11parse_arrayILb1ELb1EEEPKcS8_St17integral_constantIbXT_EES9_IbXT0_EEbbb
FNA:4,0,_ZN5boost4json12basic_parserINS0_6detail12into_handlerIsEEE11parse_arrayILb0ELb0EEEPKcS8_St17integral_constantIbXT_EES9_IbXT0_EEbbb
FNA:4,0,_ZN5boost4json12basic_parserINS0_6detail12into_handlerIsEEE11parse_arrayILb0ELb1EEEPKcS8_St17integral_constantIbXT_EES9_IbXT0_EEbbb
FNA:4,0,_ZN5boost4json12basic_parserINS0_6detail12into_handlerIsEEE11parse_arrayILb1ELb0EEEPKcS8_St17integral_constantIbXT_EES9_IbXT0_EEbbb
FNA:4,0,_ZN5boost4json12basic_parserINS0_6detail12into_handlerIsEEE11parse_arrayILb1ELb1EEEPKcS8_St17integral_constantIbXT_EES9_IbXT0_EEbbb
FNA:4,0,_ZN5boost4json12basic_parserINS0_6detail12into_handlerItEEE11parse_arrayILb0ELb0EEEPKcS8_St17integral_constantIbXT_EES9_IbXT0_EEbbb
FNA:4,0,_ZN5boost4json12basic_parserINS0_6detail12into_handlerItEEE11parse_arrayILb0ELb1EEEPKcS8_St17integral_constantIbXT_EES9_IbXT0_EEbbb
FNA:4,0,_ZN5boost4json12basic_parserINS0_6detail12into_handlerItEEE11parse_arrayILb1ELb0EEEPKcS8_St17integral_constantIbXT_EES9_IbXT0_EEbbb
FNA:4,0,_ZN5boost4json12basic_parserINS0_6detail12into_handlerItEEE11parse_arrayILb1ELb1EEEPKcS8_St17integral_constantIbXT_EES9_IbXT0_EEbbb
FNA:4,0,_ZN5boost4json12basic_parserINS0_6detail12into_handlerIxEEE11parse_arrayILb0ELb0EEEPKcS8_St17integral_constantIbXT_EES9_IbXT0_EEbbb
FNA:4,0,_ZN5boost4json12basic_parserINS0_6detail12into_handlerIxEEE11parse_arrayILb0ELb1EEEPKcS8_St17integral_constantIbXT_EES9_IbXT0_EEbbb
FNA:4,0,_ZN5boost4json12basic_parserINS0_6detail12into_handlerIxEEE11parse_arrayILb1ELb0EEEPKcS8_St17integral_constantIbXT_EES9_IbXT0_EEbbb
FNA:4,0,_ZN5boost4json12basic_parserINS0_6detail12into_handlerIxEEE11parse_arrayILb1ELb1EEEPKcS8_St17integral_constantIbXT_EES9_IbXT0_EEbbb
FNA:4,0,_ZN5boost4json12basic_parserINS0_6detail12into_handlerIyEEE11parse_arrayILb0ELb0EEEPKcS8_St17integral_constantIbXT_EES9_IbXT0_EEbbb
FNA:4,0,_ZN5boost4json12basic_parserINS0_6detail12into_handlerIyEEE11parse_arrayILb0ELb1EEEPKcS8_St17integral_constantIbXT_EES9_IbXT0_EEbbb
FNA:4,0,_ZN5boost4json12basic_parserINS0_6detail12into_handlerIyEEE11parse_arrayILb1ELb0EEEPKcS8_St17integral_constantIbXT_EES9_IbXT0_EEbbb
FNA:4,0,_ZN5boost4json12basic_parserINS0_6detail12into_handlerIyEEE11parse_arrayILb1ELb1EEEPKcS8_St17integral_constantIbXT_EES9_IbXT0_EEbbb
FNA:4,216,_ZN5boost4json12basic_parserINS0_6detail7handlerEE11parse_arrayILb0ELb0EEEPKcS7_St17integral_constantIbXT_EES8_IbXT0_EEbbb
FNA:4,100,_ZN5boost4json12basic_parserINS0_6detail7handlerEE11parse_arrayILb0ELb1EEEPKcS7_St17integral_constantIbXT_EES8_IbXT0_EEbbb
FNA:4,1785,_ZN5boost4json12basic_parserINS0_6detail7handlerEE11parse_arrayILb1ELb0EEEPKcS7_St17integral_constantIbXT_EES8_IbXT0_EEbbb
FNA:4,353,_ZN5boost4json12basic_parserINS0_6detail7handlerEE11parse_arrayILb1ELb1EEEPKcS7_St17integral_constantIbXT_EES8_IbXT0_EEbbb
FNL:5,1981,2756
FNA:5,2805,_ZN5boost4json12basic_parserINS0_11fail_parser7handlerEE12parse_numberILb0ELc0ELNS0_16number_precisionE0EEEPKcS8_St17integral_constantIbXT_EES9_IcXT0_EES9_IS6_XT1_EE
FNA:5,0,_ZN5boost4json12basic_parserINS0_11fail_parser7handlerEE12parse_numberILb0ELc0ELNS0_16number_precisionE1EEEPKcS8_St17integral_constantIbXT_EES9_IcXT0_EES9_IS6_XT1_EE
FNA:5,0,_ZN5boost4json12basic_parserINS0_11fail_parser7handlerEE12parse_numberILb0ELc0ELNS0_16number_precisionE2EEEPKcS8_St17integral_constantIbXT_EES9_IcXT0_EES9_IS6_XT1_EE
FNA:5,15761,_ZN5boost4json12basic_parserINS0_11fail_parser7handlerEE12parse_numberILb1ELc43ELNS0_16number_precisionE0EEEPKcS8_St17integral_constantIbXT_EES9_IcXT0_EES9_IS6_XT1_EE
FNA:5,0,_ZN5boost4json12basic_parserINS0_11fail_parser7handlerEE12parse_numberILb1ELc43ELNS0_16number_precisionE1EEEPKcS8_St17integral_constantIbXT_EES9_IcXT0_EES9_IS6_XT1_EE
FNA:5,0,_ZN5boost4json12basic_parserINS0_11fail_parser7handlerEE12parse_numberILb1ELc43ELNS0_16number_precisionE2EEEPKcS8_St17integral_constantIbXT_EES9_IcXT0_EES9_IS6_XT1_EE
FNA:5,4382,_ZN5boost4json12basic_parserINS0_11fail_parser7handlerEE12parse_numberILb1ELc45ELNS0_16number_precisionE0EEEPKcS8_St17integral_constantIbXT_EES9_IcXT0_EES9_IS6_XT1_EE
FNA:5,0,_ZN5boost4json12basic_parserINS0_11fail_parser7handlerEE12parse_numberILb1ELc45ELNS0_16number_precisionE1EEEPKcS8_St17integral_constantIbXT_EES9_IcXT0_EES9_IS6_XT1_EE
FNA:5,0,_ZN5boost4json12basic_parserINS0_11fail_parser7handlerEE12parse_numberILb1ELc45ELNS0_16number_precisionE2EEEPKcS8_St17integral_constantIbXT_EES9_IcXT0_EES9_IS6_XT1_EE
FNA:5,2613,_ZN5boost4json12basic_parserINS0_11fail_parser7handlerEE12parse_numberILb1ELc48ELNS0_16number_precisionE0EEEPKcS8_St17integral_constantIbXT_EES9_IcXT0_EES9_IS6_XT1_EE
FNA:5,0,_ZN5boost4json12basic_parserINS0_11fail_parser7handlerEE12parse_numberILb1ELc48ELNS0_16number_precisionE1EEEPKcS8_St17integral_constantIbXT_EES9_IcXT0_EES9_IS6_XT1_EE
FNA:5,0,_ZN5boost4json12basic_parserINS0_11fail_parser7handlerEE12parse_numberILb1ELc48ELNS0_16number_precisionE2EEEPKcS8_St17integral_constantIbXT_EES9_IcXT0_EES9_IS6_XT1_EE
FNA:5,0,_ZN5boost4json12basic_parserINS0_11null_parser7handlerEE12parse_numberILb0ELc0ELNS0_16number_precisionE0EEEPKcS8_St17integral_constantIbXT_EES9_IcXT0_EES9_IS6_XT1_EE
FNA:5,0,_ZN5boost4json12basic_parserINS0_11null_parser7handlerEE12parse_numberILb0ELc0ELNS0_16number_precisionE1EEEPKcS8_St17integral_constantIbXT_EES9_IcXT0_EES9_IS6_XT1_EE
FNA:5,0,_ZN5boost4json12basic_parserINS0_11null_parser7handlerEE12parse_numberILb0ELc0ELNS0_16number_precisionE2EEEPKcS8_St17integral_constantIbXT_EES9_IcXT0_EES9_IS6_XT1_EE
FNA:5,0,_ZN5boost4json12basic_parserINS0_11null_parser7handlerEE12parse_numberILb1ELc43ELNS0_16number_precisionE0EEEPKcS8_St17integral_constantIbXT_EES9_IcXT0_EES9_IS6_XT1_EE
FNA:5,0,_ZN5boost4json12basic_parserINS0_11null_parser7handlerEE12parse_numberILb1ELc43ELNS0_16number_precisionE1EEEPKcS8_St17integral_constantIbXT_EES9_IcXT0_EES9_IS6_XT1_EE
FNA:5,0,_ZN5boost4json12basic_parserINS0_11null_parser7handlerEE12parse_numberILb1ELc43ELNS0_16number_precisionE2EEEPKcS8_St17integral_constantIbXT_EES9_IcXT0_EES9_IS6_XT1_EE
FNA:5,0,_ZN5boost4json12basic_parserINS0_11null_parser7handlerEE12parse_numberILb1ELc45ELNS0_16number_precisionE0EEEPKcS8_St17integral_constantIbXT_EES9_IcXT0_EES9_IS6_XT1_EE
FNA:5,0,_ZN5boost4json12basic_parserINS0_11null_parser7handlerEE12parse_numberILb1ELc45ELNS0_16number_precisionE1EEEPKcS8_St17integral_constantIbXT_EES9_IcXT0_EES9_IS6_XT1_EE
FNA:5,0,_ZN5boost4json12basic_parserINS0_11null_parser7handlerEE12parse_numberILb1ELc45ELNS0_16number_precisionE2EEEPKcS8_St17integral_constantIbXT_EES9_IcXT0_EES9_IS6_XT1_EE
FNA:5,0,_ZN5boost4json12basic_parserINS0_11null_parser7handlerEE12parse_numberILb1ELc48ELNS0_16number_precisionE0EEEPKcS8_St17integral_constantIbXT_EES9_IcXT0_EES9_IS6_XT1_EE
FNA:5,0,_ZN5boost4json12basic_parserINS0_11null_parser7handlerEE12parse_numberILb1ELc48ELNS0_16number_precisionE1EEEPKcS8_St17integral_constantIbXT_EES9_IcXT0_EES9_IS6_XT1_EE
FNA:5,0,_ZN5boost4json12basic_parserINS0_11null_parser7handlerEE12parse_numberILb1ELc48ELNS0_16number_precisionE2EEEPKcS8_St17integral_constantIbXT_EES9_IcXT0_EES9_IS6_XT1_EE
FNA:5,2805,_ZN5boost4json12basic_parserINS0_12throw_parser7handlerEE12parse_numberILb0ELc0ELNS0_16number_precisionE0EEEPKcS8_St17integral_constantIbXT_EES9_IcXT0_EES9_IS6_XT1_EE
FNA:5,0,_ZN5boost4json12basic_parserINS0_12throw_parser7handlerEE12parse_numberILb0ELc0ELNS0_16number_precisionE1EEEPKcS8_St17integral_constantIbXT_EES9_IcXT0_EES9_IS6_XT1_EE
FNA:5,0,_ZN5boost4json12basic_parserINS0_12throw_parser7handlerEE12parse_numberILb0ELc0ELNS0_16number_precisionE2EEEPKcS8_St17integral_constantIbXT_EES9_IcXT0_EES9_IS6_XT1_EE
FNA:5,14209,_ZN5boost4json12basic_parserINS0_12throw_parser7handlerEE12parse_numberILb1ELc43ELNS0_16number_precisionE0EEEPKcS8_St17integral_constantIbXT_EES9_IcXT0_EES9_IS6_XT1_EE
FNA:5,0,_ZN5boost4json12basic_parserINS0_12throw_parser7handlerEE12parse_numberILb1ELc43ELNS0_16number_precisionE1EEEPKcS8_St17integral_constantIbXT_EES9_IcXT0_EES9_IS6_XT1_EE
FNA:5,0,_ZN5boost4json12basic_parserINS0_12throw_parser7handlerEE12parse_numberILb1ELc43ELNS0_16number_precisionE2EEEPKcS8_St17integral_constantIbXT_EES9_IcXT0_EES9_IS6_XT1_EE
FNA:5,3872,_ZN5boost4json12basic_parserINS0_12throw_parser7handlerEE12parse_numberILb1ELc45ELNS0_16number_precisionE0EEEPKcS8_St17integral_constantIbXT_EES9_IcXT0_EES9_IS6_XT1_EE
FNA:5,0,_ZN5boost4json12basic_parserINS0_12throw_parser7handlerEE12parse_numberILb1ELc45ELNS0_16number_precisionE1EEEPKcS8_St17integral_constantIbXT_EES9_IcXT0_EES9_IS6_XT1_EE
FNA:5,0,_ZN5boost4json12basic_parserINS0_12throw_parser7handlerEE12parse_numberILb1ELc45ELNS0_16number_precisionE2EEEPKcS8_St17integral_constantIbXT_EES9_IcXT0_EES9_IS6_XT1_EE
FNA:5,2158,_ZN5boost4json12basic_parserINS0_12throw_parser7handlerEE12parse_numberILb1ELc48ELNS0_16number_precisionE0EEEPKcS8_St17integral_constantIbXT_EES9_IcXT0_EES9_IS6_XT1_EE
FNA:5,0,_ZN5boost4json12basic_parserINS0_12throw_parser7handlerEE12parse_numberILb1ELc48ELNS0_16number_precisionE1EEEPKcS8_St17integral_constantIbXT_EES9_IcXT0_EES9_IS6_XT1_EE
FNA:5,0,_ZN5boost4json12basic_parserINS0_12throw_parser7handlerEE12parse_numberILb1ELc48ELNS0_16number_precisionE2EEEPKcS8_St17integral_constantIbXT_EES9_IcXT0_EES9_IS6_XT1_EE
FNA:5,0,_ZN5boost4json12basic_parserINS0_17basic_parser_test11utf8_parser7handlerEE12parse_numberILb0ELc0ELNS0_16number_precisionE0EEEPKcS9_St17integral_constantIbXT_EESA_IcXT0_EESA_IS7_XT1_EE
FNA:5,0,_ZN5boost4json12basic_parserINS0_17basic_parser_test11utf8_parser7handlerEE12parse_numberILb0ELc0ELNS0_16number_precisionE1EEEPKcS9_St17integral_constantIbXT_EESA_IcXT0_EESA_IS7_XT1_EE
FNA:5,0,_ZN5boost4json12basic_parserINS0_17basic_parser_test11utf8_parser7handlerEE12parse_numberILb0ELc0ELNS0_16number_precisionE2EEEPKcS9_St17integral_constantIbXT_EESA_IcXT0_EESA_IS7_XT1_EE
FNA:5,0,_ZN5boost4json12basic_parserINS0_17basic_parser_test11utf8_parser7handlerEE12parse_numberILb1ELc43ELNS0_16number_precisionE0EEEPKcS9_St17integral_constantIbXT_EESA_IcXT0_EESA_IS7_XT1_EE
FNA:5,0,_ZN5boost4json12basic_parserINS0_17basic_parser_test11utf8_parser7handlerEE12parse_numberILb1ELc43ELNS0_16number_precisionE1EEEPKcS9_St17integral_constantIbXT_EESA_IcXT0_EESA_IS7_XT1_EE
FNA:5,0,_ZN5boost4json12basic_parserINS0_17basic_parser_test11utf8_parser7handlerEE12parse_numberILb1ELc43ELNS0_16number_precisionE2EEEPKcS9_St17integral_constantIbXT_EESA_IcXT0_EESA_IS7_XT1_EE
FNA:5,0,_ZN5boost4json12basic_parserINS0_17basic_parser_test11utf8_parser7handlerEE12parse_numberILb1ELc45ELNS0_16number_precisionE0EEEPKcS9_St17integral_constantIbXT_EESA_IcXT0_EESA_IS7_XT1_EE
FNA:5,0,_ZN5boost4json12basic_parserINS0_17basic_parser_test11utf8_parser7handlerEE12parse_numberILb1ELc45ELNS0_16number_precisionE1EEEPKcS9_St17integral_constantIbXT_EESA_IcXT0_EESA_IS7_XT1_EE
FNA:5,0,_ZN5boost4json12basic_parserINS0_17basic_parser_test11utf8_parser7handlerEE12parse_numberILb1ELc45ELNS0_16number_precisionE2EEEPKcS9_St17integral_constantIbXT_EESA_IcXT0_EESA_IS7_XT1_EE
FNA:5,0,_ZN5boost4json12basic_parserINS0_17basic_parser_test11utf8_parser7handlerEE12parse_numberILb1ELc48ELNS0_16number_precisionE0EEEPKcS9_St17integral_constantIbXT_EESA_IcXT0_EESA_IS7_XT1_EE
FNA:5,0,_ZN5boost4json12basic_parserINS0_17basic_parser_test11utf8_parser7handlerEE12parse_numberILb1ELc48ELNS0_16number_precisionE1EEEPKcS9_St17integral_constantIbXT_EESA_IcXT0_EESA_IS7_XT1_EE
FNA:5,0,_ZN5boost4json12basic_parserINS0_17basic_parser_test11utf8_parser7handlerEE12parse_numberILb1ELc48ELNS0_16number_precisionE2EEEPKcS9_St17integral_constantIbXT_EESA_IcXT0_EESA_IS7_XT1_EE
FNA:5,0,_ZN5boost4json12basic_parserINS0_17basic_parser_test14comment_parser7handlerEE12parse_numberILb0ELc0ELNS0_16number_precisionE0EEEPKcS9_St17integral_constantIbXT_EESA_IcXT0_EESA_IS7_XT1_EE
FNA:5,0,_ZN5boost4json12basic_parserINS0_17basic_parser_test14comment_parser7handlerEE12parse_numberILb0ELc0ELNS0_16number_precisionE1EEEPKcS9_St17integral_constantIbXT_EESA_IcXT0_EESA_IS7_XT1_EE
FNA:5,0,_ZN5boost4json12basic_parserINS0_17basic_parser_test14comment_parser7handlerEE12parse_numberILb0ELc0ELNS0_16number_precisionE2EEEPKcS9_St17integral_constantIbXT_EESA_IcXT0_EESA_IS7_XT1_EE
FNA:5,22,_ZN5boost4json12basic_parserINS0_17basic_parser_test14comment_parser7handlerEE12parse_numberILb1ELc43ELNS0_16number_precisionE0EEEPKcS9_St17integral_constantIbXT_EESA_IcXT0_EESA_IS7_XT1_EE
FNA:5,0,_ZN5boost4json12basic_parserINS0_17basic_parser_test14comment_parser7handlerEE12parse_numberILb1ELc43ELNS0_16number_precisionE1EEEPKcS9_St17integral_constantIbXT_EESA_IcXT0_EESA_IS7_XT1_EE
FNA:5,0,_ZN5boost4json12basic_parserINS0_17basic_parser_test14comment_parser7handlerEE12parse_numberILb1ELc43ELNS0_16number_precisionE2EEEPKcS9_St17integral_constantIbXT_EESA_IcXT0_EESA_IS7_XT1_EE
FNA:5,0,_ZN5boost4json12basic_parserINS0_17basic_parser_test14comment_parser7handlerEE12parse_numberILb1ELc45ELNS0_16number_precisionE0EEEPKcS9_St17integral_constantIbXT_EESA_IcXT0_EESA_IS7_XT1_EE
FNA:5,0,_ZN5boost4json12basic_parserINS0_17basic_parser_test14comment_parser7handlerEE12parse_numberILb1ELc45ELNS0_16number_precisionE1EEEPKcS9_St17integral_constantIbXT_EESA_IcXT0_EESA_IS7_XT1_EE
FNA:5,0,_ZN5boost4json12basic_parserINS0_17basic_parser_test14comment_parser7handlerEE12parse_numberILb1ELc45ELNS0_16number_precisionE2EEEPKcS9_St17integral_constantIbXT_EESA_IcXT0_EESA_IS7_XT1_EE
FNA:5,0,_ZN5boost4json12basic_parserINS0_17basic_parser_test14comment_parser7handlerEE12parse_numberILb1ELc48ELNS0_16number_precisionE0EEEPKcS9_St17integral_constantIbXT_EESA_IcXT0_EESA_IS7_XT1_EE
FNA:5,0,_ZN5boost4json12basic_parserINS0_17basic_parser_test14comment_parser7handlerEE12parse_numberILb1ELc48ELNS0_16number_precisionE1EEEPKcS9_St17integral_constantIbXT_EESA_IcXT0_EESA_IS7_XT1_EE
FNA:5,0,_ZN5boost4json12basic_parserINS0_17basic_parser_test14comment_parser7handlerEE12parse_numberILb1ELc48ELNS0_16number_precisionE2EEEPKcS9_St17integral_constantIbXT_EESA_IcXT0_EESA_IS7_XT1_EE
FNA:5,172,_ZN5boost4json12basic_parserINS0_17basic_parser_test14literal_parser7handlerEE12parse_numberILb0ELc0ELNS0_16number_precisionE0EEEPKcS9_St17integral_constantIbXT_EESA_IcXT0_EESA_IS7_XT1_EE
FNA:5,0,_ZN5boost4json12basic_parserINS0_17basic_parser_test14literal_parser7handlerEE12parse_numberILb0ELc0ELNS0_16number_precisionE1EEEPKcS9_St17integral_constantIbXT_EESA_IcXT0_EESA_IS7_XT1_EE
FNA:5,0,_ZN5boost4json12basic_parserINS0_17basic_parser_test14literal_parser7handlerEE12parse_numberILb0ELc0ELNS0_16number_precisionE2EEEPKcS9_St17integral_constantIbXT_EESA_IcXT0_EESA_IS7_XT1_EE
FNA:5,121,_ZN5boost4json12basic_parserINS0_17basic_parser_test14literal_parser7handlerEE12parse_numberILb1ELc43ELNS0_16number_precisionE0EEEPKcS9_St17integral_constantIbXT_EESA_IcXT0_EESA_IS7_XT1_EE
FNA:5,0,_ZN5boost4json12basic_parserINS0_17basic_parser_test14literal_parser7handlerEE12parse_numberILb1ELc43ELNS0_16number_precisionE1EEEPKcS9_St17integral_constantIbXT_EESA_IcXT0_EESA_IS7_XT1_EE
FNA:5,0,_ZN5boost4json12basic_parserINS0_17basic_parser_test14literal_parser7handlerEE12parse_numberILb1ELc43ELNS0_16number_precisionE2EEEPKcS9_St17integral_constantIbXT_EESA_IcXT0_EESA_IS7_XT1_EE
FNA:5,65,_ZN5boost4json12basic_parserINS0_17basic_parser_test14literal_parser7handlerEE12parse_numberILb1ELc45ELNS0_16number_precisionE0EEEPKcS9_St17integral_constantIbXT_EESA_IcXT0_EESA_IS7_XT1_EE
FNA:5,0,_ZN5boost4json12basic_parserINS0_17basic_parser_test14literal_parser7handlerEE12parse_numberILb1ELc45ELNS0_16number_precisionE1EEEPKcS9_St17integral_constantIbXT_EESA_IcXT0_EESA_IS7_XT1_EE
FNA:5,0,_ZN5boost4json12basic_parserINS0_17basic_parser_test14literal_parser7handlerEE12parse_numberILb1ELc45ELNS0_16number_precisionE2EEEPKcS9_St17integral_constantIbXT_EESA_IcXT0_EESA_IS7_XT1_EE
FNA:5,5,_ZN5boost4json12basic_parserINS0_17basic_parser_test14literal_parser7handlerEE12parse_numberILb1ELc48ELNS0_16number_precisionE0EEEPKcS9_St17integral_constantIbXT_EESA_IcXT0_EESA_IS7_XT1_EE
FNA:5,0,_ZN5boost4json12basic_parserINS0_17basic_parser_test14literal_parser7handlerEE12parse_numberILb1ELc48ELNS0_16number_precisionE1EEEPKcS9_St17integral_constantIbXT_EESA_IcXT0_EESA_IS7_XT1_EE
FNA:5,0,_ZN5boost4json12basic_parserINS0_17basic_parser_test14literal_parser7handlerEE12parse_numberILb1ELc48ELNS0_16number_precisionE2EEEPKcS9_St17integral_constantIbXT_EESA_IcXT0_EESA_IS7_XT1_EE
FNA:5,0,_ZN5boost4json12basic_parserINS0_17basic_parser_test15std_null_parser7handlerEE12parse_numberILb0ELc0ELNS0_16number_precisionE0EEEPKcS9_St17integral_constantIbXT_EESA_IcXT0_EESA_IS7_XT1_EE
FNA:5,0,_ZN5boost4json12basic_parserINS0_17basic_parser_test15std_null_parser7handlerEE12parse_numberILb0ELc0ELNS0_16number_precisionE1EEEPKcS9_St17integral_constantIbXT_EESA_IcXT0_EESA_IS7_XT1_EE
FNA:5,0,_ZN5boost4json12basic_parserINS0_17basic_parser_test15std_null_parser7handlerEE12parse_numberILb0ELc0ELNS0_16number_precisionE2EEEPKcS9_St17integral_constantIbXT_EESA_IcXT0_EESA_IS7_XT1_EE
FNA:5,0,_ZN5boost4json12basic_parserINS0_17basic_parser_test15std_null_parser7handlerEE12parse_numberILb1ELc43ELNS0_16number_precisionE0EEEPKcS9_St17integral_constantIbXT_EESA_IcXT0_EESA_IS7_XT1_EE
FNA:5,0,_ZN5boost4json12basic_parserINS0_17basic_parser_test15std_null_parser7handlerEE12parse_numberILb1ELc43ELNS0_16number_precisionE1EEEPKcS9_St17integral_constantIbXT_EESA_IcXT0_EESA_IS7_XT1_EE
FNA:5,0,_ZN5boost4json12basic_parserINS0_17basic_parser_test15std_null_parser7handlerEE12parse_numberILb1ELc43ELNS0_16number_precisionE2EEEPKcS9_St17integral_constantIbXT_EESA_IcXT0_EESA_IS7_XT1_EE
FNA:5,0,_ZN5boost4json12basic_parserINS0_17basic_parser_test15std_null_parser7handlerEE12parse_numberILb1ELc45ELNS0_16number_precisionE0EEEPKcS9_St17integral_constantIbXT_EESA_IcXT0_EESA_IS7_XT1_EE
FNA:5,0,_ZN5boost4json12basic_parserINS0_17basic_parser_test15std_null_parser7handlerEE12parse_numberILb1ELc45ELNS0_16number_precisionE1EEEPKcS9_St17integral_constantIbXT_EESA_IcXT0_EESA_IS7_XT1_EE
FNA:5,0,_ZN5boost4json12basic_parserINS0_17basic_parser_test15std_null_parser7handlerEE12parse_numberILb1ELc45ELNS0_16number_precisionE2EEEPKcS9_St17integral_constantIbXT_EESA_IcXT0_EESA_IS7_XT1_EE
FNA:5,0,_ZN5boost4json12basic_parserINS0_17basic_parser_test15std_null_parser7handlerEE12parse_numberILb1ELc48ELNS0_16number_precisionE0EEEPKcS9_St17integral_constantIbXT_EESA_IcXT0_EESA_IS7_XT1_EE
FNA:5,0,_ZN5boost4json12basic_parserINS0_17basic_parser_test15std_null_parser7handlerEE12parse_numberILb1ELc48ELNS0_16number_precisionE1EEEPKcS9_St17integral_constantIbXT_EESA_IcXT0_EESA_IS7_XT1_EE
FNA:5,0,_ZN5boost4json12basic_parserINS0_17basic_parser_test15std_null_parser7handlerEE12parse_numberILb1ELc48ELNS0_16number_precisionE2EEEPKcS9_St17integral_constantIbXT_EESA_IcXT0_EESA_IS7_XT1_EE
FNA:5,0,_ZN5boost4json12basic_parserINS0_6detail12into_handlerIDnEEE12parse_numberILb0ELc0ELNS0_16number_precisionE0EEEPKcS9_St17integral_constantIbXT_EESA_IcXT0_EESA_IS7_XT1_EE
FNA:5,0,_ZN5boost4json12basic_parserINS0_6detail12into_handlerIDnEEE12parse_numberILb0ELc0ELNS0_16number_precisionE1EEEPKcS9_St17integral_constantIbXT_EESA_IcXT0_EESA_IS7_XT1_EE
FNA:5,0,_ZN5boost4json12basic_parserINS0_6detail12into_handlerIDnEEE12parse_numberILb0ELc0ELNS0_16number_precisionE2EEEPKcS9_St17integral_constantIbXT_EESA_IcXT0_EESA_IS7_XT1_EE
FNA:5,2,_ZN5boost4json12basic_parserINS0_6detail12into_handlerIDnEEE12parse_numberILb1ELc43ELNS0_16number_precisionE0EEEPKcS9_St17integral_constantIbXT_EESA_IcXT0_EESA_IS7_XT1_EE
FNA:5,0,_ZN5boost4json12basic_parserINS0_6detail12into_handlerIDnEEE12parse_numberILb1ELc43ELNS0_16number_precisionE1EEEPKcS9_St17integral_constantIbXT_EESA_IcXT0_EESA_IS7_XT1_EE
FNA:5,0,_ZN5boost4json12basic_parserINS0_6detail12into_handlerIDnEEE12parse_numberILb1ELc43ELNS0_16number_precisionE2EEEPKcS9_St17integral_constantIbXT_EESA_IcXT0_EESA_IS7_XT1_EE
FNA:5,0,_ZN5boost4json12basic_parserINS0_6detail12into_handlerIDnEEE12parse_numberILb1ELc45ELNS0_16number_precisionE0EEEPKcS9_St17integral_constantIbXT_EESA_IcXT0_EESA_IS7_XT1_EE
FNA:5,0,_ZN5boost4json12basic_parserINS0_6detail12into_handlerIDnEEE12parse_numberILb1ELc45ELNS0_16number_precisionE1EEEPKcS9_St17integral_constantIbXT_EESA_IcXT0_EESA_IS7_XT1_EE
FNA:5,0,_ZN5boost4json12basic_parserINS0_6detail12into_handlerIDnEEE12parse_numberILb1ELc45ELNS0_16number_precisionE2EEEPKcS9_St17integral_constantIbXT_EESA_IcXT0_EESA_IS7_XT1_EE
FNA:5,0,_ZN5boost4json12basic_parserINS0_6detail12into_handlerIDnEEE12parse_numberILb1ELc48ELNS0_16number_precisionE0EEEPKcS9_St17integral_constantIbXT_EESA_IcXT0_EESA_IS7_XT1_EE
FNA:5,0,_ZN5boost4json12basic_parserINS0_6detail12into_handlerIDnEEE12parse_numberILb1ELc48ELNS0_16number_precisionE1EEEPKcS9_St17integral_constantIbXT_EESA_IcXT0_EESA_IS7_XT1_EE
FNA:5,0,_ZN5boost4json12basic_parserINS0_6detail12into_handlerIDnEEE12parse_numberILb1ELc48ELNS0_16number_precisionE2EEEPKcS9_St17integral_constantIbXT_EESA_IcXT0_EESA_IS7_XT1_EE
FNA:5,0,_ZN5boost4json12basic_parserINS0_6detail12into_handlerINS0_6stringEEEE12parse_numberILb0ELc0ELNS0_16number_precisionE0EEEPKcSA_St17integral_constantIbXT_EESB_IcXT0_EESB_IS8_XT1_EE
FNA:5,0,_ZN5boost4json12basic_parserINS0_6detail12into_handlerINS0_6stringEEEE12parse_numberILb0ELc0ELNS0_16number_precisionE1EEEPKcSA_St17integral_constantIbXT_EESB_IcXT0_EESB_IS8_XT1_EE
FNA:5,0,_ZN5boost4json12basic_parserINS0_6detail12into_handlerINS0_6stringEEEE12parse_numberILb0ELc0ELNS0_16number_precisionE2EEEPKcSA_St17integral_constantIbXT_EESB_IcXT0_EESB_IS8_XT1_EE
FNA:5,2,_ZN5boost4json12basic_parserINS0_6detail12into_handlerINS0_6stringEEEE12parse_numberILb1ELc43ELNS0_16number_precisionE0EEEPKcSA_St17integral_constantIbXT_EESB_IcXT0_EESB_IS8_XT1_EE
FNA:5,0,_ZN5boost4json12basic_parserINS0_6detail12into_handlerINS0_6stringEEEE12parse_numberILb1ELc43ELNS0_16number_precisionE1EEEPKcSA_St17integral_constantIbXT_EESB_IcXT0_EESB_IS8_XT1_EE
FNA:5,0,_ZN5boost4json12basic_parserINS0_6detail12into_handlerINS0_6stringEEEE12parse_numberILb1ELc43ELNS0_16number_precisionE2EEEPKcSA_St17integral_constantIbXT_EESB_IcXT0_EESB_IS8_XT1_EE
FNA:5,0,_ZN5boost4json12basic_parserINS0_6detail12into_handlerINS0_6stringEEEE12parse_numberILb1ELc45ELNS0_16number_precisionE0EEEPKcSA_St17integral_constantIbXT_EESB_IcXT0_EESB_IS8_XT1_EE
FNA:5,0,_ZN5boost4json12basic_parserINS0_6detail12into_handlerINS0_6stringEEEE12parse_numberILb1ELc45ELNS0_16number_precisionE1EEEPKcSA_St17integral_constantIbXT_EESB_IcXT0_EESB_IS8_XT1_EE
FNA:5,0,_ZN5boost4json12basic_parserINS0_6detail12into_handlerINS0_6stringEEEE12parse_numberILb1ELc45ELNS0_16number_precisionE2EEEPKcSA_St17integral_constantIbXT_EESB_IcXT0_EESB_IS8_XT1_EE
FNA:5,0,_ZN5boost4json12basic_parserINS0_6detail12into_handlerINS0_6stringEEEE12parse_numberILb1ELc48ELNS0_16number_precisionE0EEEPKcSA_St17integral_constantIbXT_EESB_IcXT0_EESB_IS8_XT1_EE
FNA:5,0,_ZN5boost4json12basic_parserINS0_6detail12into_handlerINS0_6stringEEEE12parse_numberILb1ELc48ELNS0_16number_precisionE1EEEPKcSA_St17integral_constantIbXT_EESB_IcXT0_EESB_IS8_XT1_EE
FNA:5,0,_ZN5boost4json12basic_parserINS0_6detail12into_handlerINS0_6stringEEEE12parse_numberILb1ELc48ELNS0_16number_precisionE2EEEPKcSA_St17integral_constantIbXT_EESB_IcXT0_EESB_IS8_XT1_EE
FNA:5,0,_ZN5boost4json12basic_parserINS0_6detail12into_handlerINS_8variant27variantIJNS4_9monostateEEEEEEE12parse_numberILb0ELc0ELNS0_16number_precisionE0EEEPKcSD_St17integral_constantIbXT_EESE_IcXT0_EESE_ISB_XT1_EE
FNA:5,0,_ZN5boost4json12basic_parserINS0_6detail12into_handlerINS_8variant27variantIJNS4_9monostateEEEEEEE12parse_numberILb0ELc0ELNS0_16number_precisionE1EEEPKcSD_St17integral_constantIbXT_EESE_IcXT0_EESE_ISB_XT1_EE
FNA:5,0,_ZN5boost4json12basic_parserINS0_6detail12into_handlerINS_8variant27variantIJNS4_9monostateEEEEEEE12parse_numberILb0ELc0ELNS0_16number_precisionE2EEEPKcSD_St17integral_constantIbXT_EESE_IcXT0_EESE_ISB_XT1_EE
FNA:5,0,_ZN5boost4json12basic_parserINS0_6detail12into_handlerINS_8variant27variantIJNS4_9monostateEEEEEEE12parse_numberILb1ELc43ELNS0_16number_precisionE0EEEPKcSD_St17integral_constantIbXT_EESE_IcXT0_EESE_ISB_XT1_EE
FNA:5,0,_ZN5boost4json12basic_parserINS0_6detail12into_handlerINS_8variant27variantIJNS4_9monostateEEEEEEE12parse_numberILb1ELc43ELNS0_16number_precisionE1EEEPKcSD_St17integral_constantIbXT_EESE_IcXT0_EESE_ISB_XT1_EE
FNA:5,0,_ZN5boost4json12basic_parserINS0_6detail12into_handlerINS_8variant27variantIJNS4_9monostateEEEEEEE12parse_numberILb1ELc43ELNS0_16number_precisionE2EEEPKcSD_St17integral_constantIbXT_EESE_IcXT0_EESE_ISB_XT1_EE
FNA:5,0,_ZN5boost4json12basic_parserINS0_6detail12into_handlerINS_8variant27variantIJNS4_9monostateEEEEEEE12parse_numberILb1ELc45ELNS0_16number_precisionE0EEEPKcSD_St17integral_constantIbXT_EESE_IcXT0_EESE_ISB_XT1_EE
FNA:5,0,_ZN5boost4json12basic_parserINS0_6detail12into_handlerINS_8variant27variantIJNS4_9monostateEEEEEEE12parse_numberILb1ELc45ELNS0_16number_precisionE1EEEPKcSD_St17integral_constantIbXT_EESE_IcXT0_EESE_ISB_XT1_EE
FNA:5,0,_ZN5boost4json12basic_parserINS0_6detail12into_handlerINS_8variant27variantIJNS4_9monostateEEEEEEE12parse_numberILb1ELc45ELNS0_16number_precisionE2EEEPKcSD_St17integral_constantIbXT_EESE_IcXT0_EESE_ISB_XT1_EE
FNA:5,0,_ZN5boost4json12basic_parserINS0_6detail12into_handlerINS_8variant27variantIJNS4_9monostateEEEEEEE12parse_numberILb1ELc48ELNS0_16number_precisionE0EEEPKcSD_St17integral_constantIbXT_EESE_IcXT0_EESE_ISB_XT1_EE
FNA:5,0,_ZN5boost4json12basic_parserINS0_6detail12into_handlerINS_8variant27variantIJNS4_9monostateEEEEEEE12parse_numberILb1ELc48ELNS0_16number_precisionE1EEEPKcSD_St17integral_constantIbXT_EESE_IcXT0_EESE_ISB_XT1_EE
FNA:5,0,_ZN5boost4json12basic_parserINS0_6detail12into_handlerINS_8variant27variantIJNS4_9monostateEEEEEEE12parse_numberILb1ELc48ELNS0_16number_precisionE2EEEPKcSD_St17integral_constantIbXT_EESE_IcXT0_EESE_ISB_XT1_EE
FNA:5,5,_ZN5boost4json12basic_parserINS0_6detail12into_handlerINS_8variant27variantIJNS4_9monostateESt6vectorIiSaIiEEEEEEEE12parse_numberILb0ELc0ELNS0_16number_precisionE0EEEPKcSG_St17integral_constantIbXT_EESH_IcXT0_EESH_ISE_XT1_EE
FNA:5,0,_ZN5boost4json12basic_parserINS0_6detail12into_handlerINS_8variant27variantIJNS4_9monostateESt6vectorIiSaIiEEEEEEEE12parse_numberILb0ELc0ELNS0_16number_precisionE1EEEPKcSG_St17integral_constantIbXT_EESH_IcXT0_EESH_ISE_XT1_EE
FNA:5,0,_ZN5boost4json12basic_parserINS0_6detail12into_handlerINS_8variant27variantIJNS4_9monostateESt6vectorIiSaIiEEEEEEEE12parse_numberILb0ELc0ELNS0_16number_precisionE2EEEPKcSG_St17integral_constantIbXT_EESH_IcXT0_EESH_ISE_XT1_EE
FNA:5,35,_ZN5boost4json12basic_parserINS0_6detail12into_handlerINS_8variant27variantIJNS4_9monostateESt6vectorIiSaIiEEEEEEEE12parse_numberILb1ELc43ELNS0_16number_precisionE0EEEPKcSG_St17integral_constantIbXT_EESH_IcXT0_EESH_ISE_XT1_EE
FNA:5,0,_ZN5boost4json12basic_parserINS0_6detail12into_handlerINS_8variant27variantIJNS4_9monostateESt6vectorIiSaIiEEEEEEEE12parse_numberILb1ELc43ELNS0_16number_precisionE1EEEPKcSG_St17integral_constantIbXT_EESH_IcXT0_EESH_ISE_XT1_EE
FNA:5,0,_ZN5boost4json12basic_parserINS0_6detail12into_handlerINS_8variant27variantIJNS4_9monostateESt6vectorIiSaIiEEEEEEEE12parse_numberILb1ELc43ELNS0_16number_precisionE2EEEPKcSG_St17integral_constantIbXT_EESH_IcXT0_EESH_ISE_XT1_EE
FNA:5,0,_ZN5boost4json12basic_parserINS0_6detail12into_handlerINS_8variant27variantIJNS4_9monostateESt6vectorIiSaIiEEEEEEEE12parse_numberILb1ELc45ELNS0_16number_precisionE0EEEPKcSG_St17integral_constantIbXT_EESH_IcXT0_EESH_ISE_XT1_EE
FNA:5,0,_ZN5boost4json12basic_parserINS0_6detail12into_handlerINS_8variant27variantIJNS4_9monostateESt6vectorIiSaIiEEEEEEEE12parse_numberILb1ELc45ELNS0_16number_precisionE1EEEPKcSG_St17integral_constantIbXT_EESH_IcXT0_EESH_ISE_XT1_EE
FNA:5,0,_ZN5boost4json12basic_parserINS0_6detail12into_handlerINS_8variant27variantIJNS4_9monostateESt6vectorIiSaIiEEEEEEEE12parse_numberILb1ELc45ELNS0_16number_precisionE2EEEPKcSG_St17integral_constantIbXT_EESH_IcXT0_EESH_ISE_XT1_EE
FNA:5,0,_ZN5boost4json12basic_parserINS0_6detail12into_handlerINS_8variant27variantIJNS4_9monostateESt6vectorIiSaIiEEEEEEEE12parse_numberILb1ELc48ELNS0_16number_precisionE0EEEPKcSG_St17integral_constantIbXT_EESH_IcXT0_EESH_ISE_XT1_EE
FNA:5,0,_ZN5boost4json12basic_parserINS0_6detail12into_handlerINS_8variant27variantIJNS4_9monostateESt6vectorIiSaIiEEEEEEEE12parse_numberILb1ELc48ELNS0_16number_precisionE1EEEPKcSG_St17integral_constantIbXT_EESH_IcXT0_EESH_ISE_XT1_EE
FNA:5,0,_ZN5boost4json12basic_parserINS0_6detail12into_handlerINS_8variant27variantIJNS4_9monostateESt6vectorIiSaIiEEEEEEEE12parse_numberILb1ELc48ELNS0_16number_precisionE2EEEPKcSG_St17integral_constantIbXT_EESH_IcXT0_EESH_ISE_XT1_EE
FNA:5,4,_ZN5boost4json12basic_parserINS0_6detail12into_handlerINS_8variant27variantIJNS4_9monostateEiNSt7__cxx1112basic_stringIcSt11char_traitsIcESaIcEEEEEEEEE12parse_numberILb0ELc0ELNS0_16number_precisionE0EEEPKcSJ_St17integral_constantIbXT_EESK_IcXT0_EESK_ISH_XT1_EE
FNA:5,0,_ZN5boost4json12basic_parserINS0_6detail12into_handlerINS_8variant27variantIJNS4_9monostateEiNSt7__cxx1112basic_stringIcSt11char_traitsIcESaIcEEEEEEEEE12parse_numberILb0ELc0ELNS0_16number_precisionE1EEEPKcSJ_St17integral_constantIbXT_EESK_IcXT0_EESK_ISH_XT1_EE
FNA:5,0,_ZN5boost4json12basic_parserINS0_6detail12into_handlerINS_8variant27variantIJNS4_9monostateEiNSt7__cxx1112basic_stringIcSt11char_traitsIcESaIcEEEEEEEEE12parse_numberILb0ELc0ELNS0_16number_precisionE2EEEPKcSJ_St17integral_constantIbXT_EESK_IcXT0_EESK_ISH_XT1_EE
FNA:5,7,_ZN5boost4json12basic_parserINS0_6detail12into_handlerINS_8variant27variantIJNS4_9monostateEiNSt7__cxx1112basic_stringIcSt11char_traitsIcESaIcEEEEEEEEE12parse_numberILb1ELc43ELNS0_16number_precisionE0EEEPKcSJ_St17integral_constantIbXT_EESK_IcXT0_EESK_ISH_XT1_EE
FNA:5,0,_ZN5boost4json12basic_parserINS0_6detail12into_handlerINS_8variant27variantIJNS4_9monostateEiNSt7__cxx1112basic_stringIcSt11char_traitsIcESaIcEEEEEEEEE12parse_numberILb1ELc43ELNS0_16number_precisionE1EEEPKcSJ_St17integral_constantIbXT_EESK_IcXT0_EESK_ISH_XT1_EE
FNA:5,0,_ZN5boost4json12basic_parserINS0_6detail12into_handlerINS_8variant27variantIJNS4_9monostateEiNSt7__cxx1112basic_stringIcSt11char_traitsIcESaIcEEEEEEEEE12parse_numberILb1ELc43ELNS0_16number_precisionE2EEEPKcSJ_St17integral_constantIbXT_EESK_IcXT0_EESK_ISH_XT1_EE
FNA:5,0,_ZN5boost4json12basic_parserINS0_6detail12into_handlerINS_8variant27variantIJNS4_9monostateEiNSt7__cxx1112basic_stringIcSt11char_traitsIcESaIcEEEEEEEEE12parse_numberILb1ELc45ELNS0_16number_precisionE0EEEPKcSJ_St17integral_constantIbXT_EESK_IcXT0_EESK_ISH_XT1_EE
FNA:5,0,_ZN5boost4json12basic_parserINS0_6detail12into_handlerINS_8variant27variantIJNS4_9monostateEiNSt7__cxx1112basic_stringIcSt11char_traitsIcESaIcEEEEEEEEE12parse_numberILb1ELc45ELNS0_16number_precisionE1EEEPKcSJ_St17integral_constantIbXT_EESK_IcXT0_EESK_ISH_XT1_EE
FNA:5,0,_ZN5boost4json12basic_parserINS0_6detail12into_handlerINS_8variant27variantIJNS4_9monostateEiNSt7__cxx1112basic_stringIcSt11char_traitsIcESaIcEEEEEEEEE12parse_numberILb1ELc45ELNS0_16number_precisionE2EEEPKcSJ_St17integral_constantIbXT_EESK_IcXT0_EESK_ISH_XT1_EE
FNA:5,0,_ZN5boost4json12basic_parserINS0_6detail12into_handlerINS_8variant27variantIJNS4_9monostateEiNSt7__cxx1112basic_stringIcSt11char_traitsIcESaIcEEEEEEEEE12parse_numberILb1ELc48ELNS0_16number_precisionE0EEEPKcSJ_St17integral_constantIbXT_EESK_IcXT0_EESK_ISH_XT1_EE
FNA:5,0,_ZN5boost4json12basic_parserINS0_6detail12into_handlerINS_8variant27variantIJNS4_9monostateEiNSt7__cxx1112basic_stringIcSt11char_traitsIcESaIcEEEEEEEEE12parse_numberILb1ELc48ELNS0_16number_precisionE1EEEPKcSJ_St17integral_constantIbXT_EESK_IcXT0_EESK_ISH_XT1_EE
FNA:5,0,_ZN5boost4json12basic_parserINS0_6detail12into_handlerINS_8variant27variantIJNS4_9monostateEiNSt7__cxx1112basic_stringIcSt11char_traitsIcESaIcEEEEEEEEE12parse_numberILb1ELc48ELNS0_16number_precisionE2EEEPKcSJ_St17integral_constantIbXT_EESK_IcXT0_EESK_ISH_XT1_EE
FNA:5,0,_ZN5boost4json12basic_parserINS0_6detail12into_handlerINS_8variant27variantIJNS4_9monostateEibEEEEEE12parse_numberILb0ELc0ELNS0_16number_precisionE0EEEPKcSD_St17integral_constantIbXT_EESE_IcXT0_EESE_ISB_XT1_EE
FNA:5,0,_ZN5boost4json12basic_parserINS0_6detail12into_handlerINS_8variant27variantIJNS4_9monostateEibEEEEEE12parse_numberILb0ELc0ELNS0_16number_precisionE1EEEPKcSD_St17integral_constantIbXT_EESE_IcXT0_EESE_ISB_XT1_EE
FNA:5,0,_ZN5boost4json12basic_parserINS0_6detail12into_handlerINS_8variant27variantIJNS4_9monostateEibEEEEEE12parse_numberILb0ELc0ELNS0_16number_precisionE2EEEPKcSD_St17integral_constantIbXT_EESE_IcXT0_EESE_ISB_XT1_EE
FNA:5,0,_ZN5boost4json12basic_parserINS0_6detail12into_handlerINS_8variant27variantIJNS4_9monostateEibEEEEEE12parse_numberILb1ELc43ELNS0_16number_precisionE0EEEPKcSD_St17integral_constantIbXT_EESE_IcXT0_EESE_ISB_XT1_EE
FNA:5,0,_ZN5boost4json12basic_parserINS0_6detail12into_handlerINS_8variant27variantIJNS4_9monostateEibEEEEEE12parse_numberILb1ELc43ELNS0_16number_precisionE1EEEPKcSD_St17integral_constantIbXT_EESE_IcXT0_EESE_ISB_XT1_EE
FNA:5,0,_ZN5boost4json12basic_parserINS0_6detail12into_handlerINS_8variant27variantIJNS4_9monostateEibEEEEEE12parse_numberILb1ELc43ELNS0_16number_precisionE2EEEPKcSD_St17integral_constantIbXT_EESE_IcXT0_EESE_ISB_XT1_EE
FNA:5,0,_ZN5boost4json12basic_parserINS0_6detail12into_handlerINS_8variant27variantIJNS4_9monostateEibEEEEEE12parse_numberILb1ELc45ELNS0_16number_precisionE0EEEPKcSD_St17integral_constantIbXT_EESE_IcXT0_EESE_ISB_XT1_EE
FNA:5,0,_ZN5boost4json12basic_parserINS0_6detail12into_handlerINS_8variant27variantIJNS4_9monostateEibEEEEEE12parse_numberILb1ELc45ELNS0_16number_precisionE1EEEPKcSD_St17integral_constantIbXT_EESE_IcXT0_EESE_ISB_XT1_EE
FNA:5,0,_ZN5boost4json12basic_parserINS0_6detail12into_handlerINS_8variant27variantIJNS4_9monostateEibEEEEEE12parse_numberILb1ELc45ELNS0_16number_precisionE2EEEPKcSD_St17integral_constantIbXT_EESE_IcXT0_EESE_ISB_XT1_EE
FNA:5,0,_ZN5boost4json12basic_parserINS0_6detail12into_handlerINS_8variant27variantIJNS4_9monostateEibEEEEEE12parse_numberILb1ELc48ELNS0_16number_precisionE0EEEPKcSD_St17integral_constantIbXT_EESE_IcXT0_EESE_ISB_XT1_EE
FNA:5,0,_ZN5boost4json12basic_parserINS0_6detail12into_handlerINS_8variant27variantIJNS4_9monostateEibEEEEEE12parse_numberILb1ELc48ELNS0_16number_precisionE1EEEPKcSD_St17integral_constantIbXT_EESE_IcXT0_EESE_ISB_XT1_EE
FNA:5,0,_ZN5boost4json12basic_parserINS0_6detail12into_handlerINS_8variant27variantIJNS4_9monostateEibEEEEEE12parse_numberILb1ELc48ELNS0_16number_precisionE2EEEPKcSD_St17integral_constantIbXT_EESE_IcXT0_EESE_ISB_XT1_EE
FNA:5,5,_ZN5boost4json12basic_parserINS0_6detail12into_handlerINS_8variant27variantIJSt6vectorIiSaIiEEEEEEEE12parse_numberILb0ELc0ELNS0_16number_precisionE0EEEPKcSF_St17integral_constantIbXT_EESG_IcXT0_EESG_ISD_XT1_EE
FNA:5,0,_ZN5boost4json12basic_parserINS0_6detail12into_handlerINS_8variant27variantIJSt6vectorIiSaIiEEEEEEEE12parse_numberILb0ELc0ELNS0_16number_precisionE1EEEPKcSF_St17integral_constantIbXT_EESG_IcXT0_EESG_ISD_XT1_EE
FNA:5,0,_ZN5boost4json12basic_parserINS0_6detail12into_handlerINS_8variant27variantIJSt6vectorIiSaIiEEEEEEEE12parse_numberILb0ELc0ELNS0_16number_precisionE2EEEPKcSF_St17integral_constantIbXT_EESG_IcXT0_EESG_ISD_XT1_EE
FNA:5,35,_ZN5boost4json12basic_parserINS0_6detail12into_handlerINS_8variant27variantIJSt6vectorIiSaIiEEEEEEEE12parse_numberILb1ELc43ELNS0_16number_precisionE0EEEPKcSF_St17integral_constantIbXT_EESG_IcXT0_EESG_ISD_XT1_EE
FNA:5,0,_ZN5boost4json12basic_parserINS0_6detail12into_handlerINS_8variant27variantIJSt6vectorIiSaIiEEEEEEEE12parse_numberILb1ELc43ELNS0_16number_precisionE1EEEPKcSF_St17integral_constantIbXT_EESG_IcXT0_EESG_ISD_XT1_EE
FNA:5,0,_ZN5boost4json12basic_parserINS0_6detail12into_handlerINS_8variant27variantIJSt6vectorIiSaIiEEEEEEEE12parse_numberILb1ELc43ELNS0_16number_precisionE2EEEPKcSF_St17integral_constantIbXT_EESG_IcXT0_EESG_ISD_XT1_EE
FNA:5,0,_ZN5boost4json12basic_parserINS0_6detail12into_handlerINS_8variant27variantIJSt6vectorIiSaIiEEEEEEEE12parse_numberILb1ELc45ELNS0_16number_precisionE0EEEPKcSF_St17integral_constantIbXT_EESG_IcXT0_EESG_ISD_XT1_EE
FNA:5,0,_ZN5boost4json12basic_parserINS0_6detail12into_handlerINS_8variant27variantIJSt6vectorIiSaIiEEEEEEEE12parse_numberILb1ELc45ELNS0_16number_precisionE1EEEPKcSF_St17integral_constantIbXT_EESG_IcXT0_EESG_ISD_XT1_EE
FNA:5,0,_ZN5boost4json12basic_parserINS0_6detail12into_handlerINS_8variant27variantIJSt6vectorIiSaIiEEEEEEEE12parse_numberILb1ELc45ELNS0_16number_precisionE2EEEPKcSF_St17integral_constantIbXT_EESG_IcXT0_EESG_ISD_XT1_EE
FNA:5,0,_ZN5boost4json12basic_parserINS0_6detail12into_handlerINS_8variant27variantIJSt6vectorIiSaIiEEEEEEEE12parse_numberILb1ELc48ELNS0_16number_precisionE0EEEPKcSF_St17integral_constantIbXT_EESG_IcXT0_EESG_ISD_XT1_EE
FNA:5,0,_ZN5boost4json12basic_parserINS0_6detail12into_handlerINS_8variant27variantIJSt6vectorIiSaIiEEEEEEEE12parse_numberILb1ELc48ELNS0_16number_precisionE1EEEPKcSF_St17integral_constantIbXT_EESG_IcXT0_EESG_ISD_XT1_EE
FNA:5,0,_ZN5boost4json12basic_parserINS0_6detail12into_handlerINS_8variant27variantIJSt6vectorIiSaIiEEEEEEEE12parse_numberILb1ELc48ELNS0_16number_precisionE2EEEPKcSF_St17integral_constantIbXT_EESG_IcXT0_EESG_ISD_XT1_EE
FNA:5,10,_ZN5boost4json12basic_parserINS0_6detail12into_handlerINS_8variant27variantIJSt6vectorIiSaIiEESt5tupleIJiNSt7__cxx1112basic_stringIcSt11char_traitsIcESaIcEEESt3mapISF_iSt4lessISF_ESaISt4pairIKSF_iEEEEES9_IJiSF_SG_ISF_dSI_SaISJ_ISK_dEEEEEEEEEEE12parse_numberILb0ELc0ELNS0_16number_precisionE0EEEPKcSZ_St17integral_constantIbXT_EES10_IcXT0_EES10_ISX_XT1_EE
FNA:5,0,_ZN5boost4json12basic_parserINS0_6detail12into_handlerINS_8variant27variantIJSt6vectorIiSaIiEESt5tupleIJiNSt7__cxx1112basic_stringIcSt11char_traitsIcESaIcEEESt3mapISF_iSt4lessISF_ESaISt4pairIKSF_iEEEEES9_IJiSF_SG_ISF_dSI_SaISJ_ISK_dEEEEEEEEEEE12parse_numberILb0ELc0ELNS0_16number_precisionE1EEEPKcSZ_St17integral_constantIbXT_EES10_IcXT0_EES10_ISX_XT1_EE
FNA:5,0,_ZN5boost4json12basic_parserINS0_6detail12into_handlerINS_8variant27variantIJSt6vectorIiSaIiEESt5tupleIJiNSt7__cxx1112basic_stringIcSt11char_traitsIcESaIcEEESt3mapISF_iSt4lessISF_ESaISt4pairIKSF_iEEEEES9_IJiSF_SG_ISF_dSI_SaISJ_ISK_dEEEEEEEEEEE12parse_numberILb0ELc0ELNS0_16number_precisionE2EEEPKcSZ_St17integral_constantIbXT_EES10_IcXT0_EES10_ISX_XT1_EE
FNA:5,21,_ZN5boost4json12basic_parserINS0_6detail12into_handlerINS_8variant27variantIJSt6vectorIiSaIiEESt5tupleIJiNSt7__cxx1112basic_stringIcSt11char_traitsIcESaIcEEESt3mapISF_iSt4lessISF_ESaISt4pairIKSF_iEEEEES9_IJiSF_SG_ISF_dSI_SaISJ_ISK_dEEEEEEEEEEE12parse_numberILb1ELc43ELNS0_16number_precisionE0EEEPKcSZ_St17integral_constantIbXT_EES10_IcXT0_EES10_ISX_XT1_EE
FNA:5,0,_ZN5boost4json12basic_parserINS0_6detail12into_handlerINS_8variant27variantIJSt6vectorIiSaIiEESt5tupleIJiNSt7__cxx1112basic_stringIcSt11char_traitsIcESaIcEEESt3mapISF_iSt4lessISF_ESaISt4pairIKSF_iEEEEES9_IJiSF_SG_ISF_dSI_SaISJ_ISK_dEEEEEEEEEEE12parse_numberILb1ELc43ELNS0_16number_precisionE1EEEPKcSZ_St17integral_constantIbXT_EES10_IcXT0_EES10_ISX_XT1_EE
FNA:5,0,_ZN5boost4json12basic_parserINS0_6detail12into_handlerINS_8variant27variantIJSt6vectorIiSaIiEESt5tupleIJiNSt7__cxx1112basic_stringIcSt11char_traitsIcESaIcEEESt3mapISF_iSt4lessISF_ESaISt4pairIKSF_iEEEEES9_IJiSF_SG_ISF_dSI_SaISJ_ISK_dEEEEEEEEEEE12parse_numberILb1ELc43ELNS0_16number_precisionE2EEEPKcSZ_St17integral_constantIbXT_EES10_IcXT0_EES10_ISX_XT1_EE
FNA:5,0,_ZN5boost4json12basic_parserINS0_6detail12into_handlerINS_8variant27variantIJSt6vectorIiSaIiEESt5tupleIJiNSt7__cxx1112basic_stringIcSt11char_traitsIcESaIcEEESt3mapISF_iSt4lessISF_ESaISt4pairIKSF_iEEEEES9_IJiSF_SG_ISF_dSI_SaISJ_ISK_dEEEEEEEEEEE12parse_numberILb1ELc45ELNS0_16number_precisionE0EEEPKcSZ_St17integral_constantIbXT_EES10_IcXT0_EES10_ISX_XT1_EE
FNA:5,0,_ZN5boost4json12basic_parserINS0_6detail12into_handlerINS_8variant27variantIJSt6vectorIiSaIiEESt5tupleIJiNSt7__cxx1112basic_stringIcSt11char_traitsIcESaIcEEESt3mapISF_iSt4lessISF_ESaISt4pairIKSF_iEEEEES9_IJiSF_SG_ISF_dSI_SaISJ_ISK_dEEEEEEEEEEE12parse_numberILb1ELc45ELNS0_16number_precisionE1EEEPKcSZ_St17integral_constantIbXT_EES10_IcXT0_EES10_ISX_XT1_EE
FNA:5,0,_ZN5boost4json12basic_parserINS0_6detail12into_handlerINS_8variant27variantIJSt6vectorIiSaIiEESt5tupleIJiNSt7__cxx1112basic_stringIcSt11char_traitsIcESaIcEEESt3mapISF_iSt4lessISF_ESaISt4pairIKSF_iEEEEES9_IJiSF_SG_ISF_dSI_SaISJ_ISK_dEEEEEEEEEEE12parse_numberILb1ELc45ELNS0_16number_precisionE2EEEPKcSZ_St17integral_constantIbXT_EES10_IcXT0_EES10_ISX_XT1_EE
FNA:5,0,_ZN5boost4json12basic_parserINS0_6detail12into_handlerINS_8variant27variantIJSt6vectorIiSaIiEESt5tupleIJiNSt7__cxx1112basic_stringIcSt11char_traitsIcESaIcEEESt3mapISF_iSt4lessISF_ESaISt4pairIKSF_iEEEEES9_IJiSF_SG_ISF_dSI_SaISJ_ISK_dEEEEEEEEEEE12parse_numberILb1ELc48ELNS0_16number_precisionE0EEEPKcSZ_St17integral_constantIbXT_EES10_IcXT0_EES10_ISX_XT1_EE
FNA:5,0,_ZN5boost4json12basic_parserINS0_6detail12into_handlerINS_8variant27variantIJSt6vectorIiSaIiEESt5tupleIJiNSt7__cxx1112basic_stringIcSt11char_traitsIcESaIcEEESt3mapISF_iSt4lessISF_ESaISt4pairIKSF_iEEEEES9_IJiSF_SG_ISF_dSI_SaISJ_ISK_dEEEEEEEEEEE12parse_numberILb1ELc48ELNS0_16number_precisionE1EEEPKcSZ_St17integral_constantIbXT_EES10_IcXT0_EES10_ISX_XT1_EE
FNA:5,0,_ZN5boost4json12basic_parserINS0_6detail12into_handlerINS_8variant27variantIJSt6vectorIiSaIiEESt5tupleIJiNSt7__cxx1112basic_stringIcSt11char_traitsIcESaIcEEESt3mapISF_iSt4lessISF_ESaISt4pairIKSF_iEEEEES9_IJiSF_SG_ISF_dSI_SaISJ_ISK_dEEEEEEEEEEE12parse_numberILb1ELc48ELNS0_16number_precisionE2EEEPKcSZ_St17integral_constantIbXT_EES10_IcXT0_EES10_ISX_XT1_EE
FNA:5,23,_ZN5boost4json12basic_parserINS0_6detail12into_handlerINS_8variant27variantIJbmEEEEEE12parse_numberILb0ELc0ELNS0_16number_precisionE0EEEPKcSC_St17integral_constantIbXT_EESD_IcXT0_EESD_ISA_XT1_EE
FNA:5,0,_ZN5boost4json12basic_parserINS0_6detail12into_handlerINS_8variant27variantIJbmEEEEEE12parse_numberILb0ELc0ELNS0_16number_precisionE1EEEPKcSC_St17integral_constantIbXT_EESD_IcXT0_EESD_ISA_XT1_EE
FNA:5,0,_ZN5boost4json12basic_parserINS0_6detail12into_handlerINS_8variant27variantIJbmEEEEEE12parse_numberILb0ELc0ELNS0_16number_precisionE2EEEPKcSC_St17integral_constantIbXT_EESD_IcXT0_EESD_ISA_XT1_EE
FNA:5,7,_ZN5boost4json12basic_parserINS0_6detail12into_handlerINS_8variant27variantIJbmEEEEEE12parse_numberILb1ELc43ELNS0_16number_precisionE0EEEPKcSC_St17integral_constantIbXT_EESD_IcXT0_EESD_ISA_XT1_EE
FNA:5,0,_ZN5boost4json12basic_parserINS0_6detail12into_handlerINS_8variant27variantIJbmEEEEEE12parse_numberILb1ELc43ELNS0_16number_precisionE1EEEPKcSC_St17integral_constantIbXT_EESD_IcXT0_EESD_ISA_XT1_EE
FNA:5,0,_ZN5boost4json12basic_parserINS0_6detail12into_handlerINS_8variant27variantIJbmEEEEEE12parse_numberILb1ELc43ELNS0_16number_precisionE2EEEPKcSC_St17integral_constantIbXT_EESD_IcXT0_EESD_ISA_XT1_EE
FNA:5,0,_ZN5boost4json12basic_parserINS0_6detail12into_handlerINS_8variant27variantIJbmEEEEEE12parse_numberILb1ELc45ELNS0_16number_precisionE0EEEPKcSC_St17integral_constantIbXT_EESD_IcXT0_EESD_ISA_XT1_EE
FNA:5,0,_ZN5boost4json12basic_parserINS0_6detail12into_handlerINS_8variant27variantIJbmEEEEEE12parse_numberILb1ELc45ELNS0_16number_precisionE1EEEPKcSC_St17integral_constantIbXT_EESD_IcXT0_EESD_ISA_XT1_EE
FNA:5,0,_ZN5boost4json12basic_parserINS0_6detail12into_handlerINS_8variant27variantIJbmEEEEEE12parse_numberILb1ELc45ELNS0_16number_precisionE2EEEPKcSC_St17integral_constantIbXT_EESD_IcXT0_EESD_ISA_XT1_EE
FNA:5,0,_ZN5boost4json12basic_parserINS0_6detail12into_handlerINS_8variant27variantIJbmEEEEEE12parse_numberILb1ELc48ELNS0_16number_precisionE0EEEPKcSC_St17integral_constantIbXT_EESD_IcXT0_EESD_ISA_XT1_EE
FNA:5,0,_ZN5boost4json12basic_parserINS0_6detail12into_handlerINS_8variant27variantIJbmEEEEEE12parse_numberILb1ELc48ELNS0_16number_precisionE1EEEPKcSC_St17integral_constantIbXT_EESD_IcXT0_EESD_ISA_XT1_EE
FNA:5,0,_ZN5boost4json12basic_parserINS0_6detail12into_handlerINS_8variant27variantIJbmEEEEEE12parse_numberILb1ELc48ELNS0_16number_precisionE2EEEPKcSC_St17integral_constantIbXT_EESD_IcXT0_EESD_ISA_XT1_EE
FNA:5,4,_ZN5boost4json12basic_parserINS0_6detail12into_handlerINS_8variant27variantIJiEEEEEE12parse_numberILb0ELc0ELNS0_16number_precisionE0EEEPKcSC_St17integral_constantIbXT_EESD_IcXT0_EESD_ISA_XT1_EE
FNA:5,0,_ZN5boost4json12basic_parserINS0_6detail12into_handlerINS_8variant27variantIJiEEEEEE12parse_numberILb0ELc0ELNS0_16number_precisionE1EEEPKcSC_St17integral_constantIbXT_EESD_IcXT0_EESD_ISA_XT1_EE
FNA:5,0,_ZN5boost4json12basic_parserINS0_6detail12into_handlerINS_8variant27variantIJiEEEEEE12parse_numberILb0ELc0ELNS0_16number_precisionE2EEEPKcSC_St17integral_constantIbXT_EESD_IcXT0_EESD_ISA_XT1_EE
FNA:5,7,_ZN5boost4json12basic_parserINS0_6detail12into_handlerINS_8variant27variantIJiEEEEEE12parse_numberILb1ELc43ELNS0_16number_precisionE0EEEPKcSC_St17integral_constantIbXT_EESD_IcXT0_EESD_ISA_XT1_EE
FNA:5,0,_ZN5boost4json12basic_parserINS0_6detail12into_handlerINS_8variant27variantIJiEEEEEE12parse_numberILb1ELc43ELNS0_16number_precisionE1EEEPKcSC_St17integral_constantIbXT_EESD_IcXT0_EESD_ISA_XT1_EE
FNA:5,0,_ZN5boost4json12basic_parserINS0_6detail12into_handlerINS_8variant27variantIJiEEEEEE12parse_numberILb1ELc43ELNS0_16number_precisionE2EEEPKcSC_St17integral_constantIbXT_EESD_IcXT0_EESD_ISA_XT1_EE
FNA:5,0,_ZN5boost4json12basic_parserINS0_6detail12into_handlerINS_8variant27variantIJiEEEEEE12parse_numberILb1ELc45ELNS0_16number_precisionE0EEEPKcSC_St17integral_constantIbXT_EESD_IcXT0_EESD_ISA_XT1_EE
FNA:5,0,_ZN5boost4json12basic_parserINS0_6detail12into_handlerINS_8variant27variantIJiEEEEEE12parse_numberILb1ELc45ELNS0_16number_precisionE1EEEPKcSC_St17integral_constantIbXT_EESD_IcXT0_EESD_ISA_XT1_EE
FNA:5,0,_ZN5boost4json12basic_parserINS0_6detail12into_handlerINS_8variant27variantIJiEEEEEE12parse_numberILb1ELc45ELNS0_16number_precisionE2EEEPKcSC_St17integral_constantIbXT_EESD_IcXT0_EESD_ISA_XT1_EE
FNA:5,0,_ZN5boost4json12basic_parserINS0_6detail12into_handlerINS_8variant27variantIJiEEEEEE12parse_numberILb1ELc48ELNS0_16number_precisionE0EEEPKcSC_St17integral_constantIbXT_EESD_IcXT0_EESD_ISA_XT1_EE
FNA:5,0,_ZN5boost4json12basic_parserINS0_6detail12into_handlerINS_8variant27variantIJiEEEEEE12parse_numberILb1ELc48ELNS0_16number_precisionE1EEEPKcSC_St17integral_constantIbXT_EESD_IcXT0_EESD_ISA_XT1_EE
FNA:5,0,_ZN5boost4json12basic_parserINS0_6detail12into_handlerINS_8variant27variantIJiEEEEEE12parse_numberILb1ELc48ELNS0_16number_precisionE2EEEPKcSC_St17integral_constantIbXT_EESD_IcXT0_EESD_ISA_XT1_EE
FNA:5,4,_ZN5boost4json12basic_parserINS0_6detail12into_handlerINS_8variant27variantIJiNSt7__cxx1112basic_stringIcSt11char_traitsIcESaIcEEEEEEEEE12parse_numberILb0ELc0ELNS0_16number_precisionE0EEEPKcSI_St17integral_constantIbXT_EESJ_IcXT0_EESJ_ISG_XT1_EE
FNA:5,0,_ZN5boost4json12basic_parserINS0_6detail12into_handlerINS_8variant27variantIJiNSt7__cxx1112basic_stringIcSt11char_traitsIcESaIcEEEEEEEEE12parse_numberILb0ELc0ELNS0_16number_precisionE1EEEPKcSI_St17integral_constantIbXT_EESJ_IcXT0_EESJ_ISG_XT1_EE
FNA:5,0,_ZN5boost4json12basic_parserINS0_6detail12into_handlerINS_8variant27variantIJiNSt7__cxx1112basic_stringIcSt11char_traitsIcESaIcEEEEEEEEE12parse_numberILb0ELc0ELNS0_16number_precisionE2EEEPKcSI_St17integral_constantIbXT_EESJ_IcXT0_EESJ_ISG_XT1_EE
FNA:5,7,_ZN5boost4json12basic_parserINS0_6detail12into_handlerINS_8variant27variantIJiNSt7__cxx1112basic_stringIcSt11char_traitsIcESaIcEEEEEEEEE12parse_numberILb1ELc43ELNS0_16number_precisionE0EEEPKcSI_St17integral_constantIbXT_EESJ_IcXT0_EESJ_ISG_XT1_EE
FNA:5,0,_ZN5boost4json12basic_parserINS0_6detail12into_handlerINS_8variant27variantIJiNSt7__cxx1112basic_stringIcSt11char_traitsIcESaIcEEEEEEEEE12parse_numberILb1ELc43ELNS0_16number_precisionE1EEEPKcSI_St17integral_constantIbXT_EESJ_IcXT0_EESJ_ISG_XT1_EE
FNA:5,0,_ZN5boost4json12basic_parserINS0_6detail12into_handlerINS_8variant27variantIJiNSt7__cxx1112basic_stringIcSt11char_traitsIcESaIcEEEEEEEEE12parse_numberILb1ELc43ELNS0_16number_precisionE2EEEPKcSI_St17integral_constantIbXT_EESJ_IcXT0_EESJ_ISG_XT1_EE
FNA:5,0,_ZN5boost4json12basic_parserINS0_6detail12into_handlerINS_8variant27variantIJiNSt7__cxx1112basic_stringIcSt11char_traitsIcESaIcEEEEEEEEE12parse_numberILb1ELc45ELNS0_16number_precisionE0EEEPKcSI_St17integral_constantIbXT_EESJ_IcXT0_EESJ_ISG_XT1_EE
FNA:5,0,_ZN5boost4json12basic_parserINS0_6detail12into_handlerINS_8variant27variantIJiNSt7__cxx1112basic_stringIcSt11char_traitsIcESaIcEEEEEEEEE12parse_numberILb1ELc45ELNS0_16number_precisionE1EEEPKcSI_St17integral_constantIbXT_EESJ_IcXT0_EESJ_ISG_XT1_EE
FNA:5,0,_ZN5boost4json12basic_parserINS0_6detail12into_handlerINS_8variant27variantIJiNSt7__cxx1112basic_stringIcSt11char_traitsIcESaIcEEEEEEEEE12parse_numberILb1ELc45ELNS0_16number_precisionE2EEEPKcSI_St17integral_constantIbXT_EESJ_IcXT0_EESJ_ISG_XT1_EE
FNA:5,0,_ZN5boost4json12basic_parserINS0_6detail12into_handlerINS_8variant27variantIJiNSt7__cxx1112basic_stringIcSt11char_traitsIcESaIcEEEEEEEEE12parse_numberILb1ELc48ELNS0_16number_precisionE0EEEPKcSI_St17integral_constantIbXT_EESJ_IcXT0_EESJ_ISG_XT1_EE
FNA:5,0,_ZN5boost4json12basic_parserINS0_6detail12into_handlerINS_8variant27variantIJiNSt7__cxx1112basic_stringIcSt11char_traitsIcESaIcEEEEEEEEE12parse_numberILb1ELc48ELNS0_16number_precisionE1EEEPKcSI_St17integral_constantIbXT_EESJ_IcXT0_EESJ_ISG_XT1_EE
FNA:5,0,_ZN5boost4json12basic_parserINS0_6detail12into_handlerINS_8variant27variantIJiNSt7__cxx1112basic_stringIcSt11char_traitsIcESaIcEEEEEEEEE12parse_numberILb1ELc48ELNS0_16number_precisionE2EEEPKcSI_St17integral_constantIbXT_EESJ_IcXT0_EESJ_ISG_XT1_EE
FNA:5,0,_ZN5boost4json12basic_parserINS0_6detail12into_handlerINSt7__cxx1112basic_stringIcSt11char_traitsIcESaIcEEEEEE12parse_numberILb0ELc0ELNS0_16number_precisionE0EEEPKcSF_St17integral_constantIbXT_EESG_IcXT0_EESG_ISD_XT1_EE
FNA:5,0,_ZN5boost4json12basic_parserINS0_6detail12into_handlerINSt7__cxx1112basic_stringIcSt11char_traitsIcESaIcEEEEEE12parse_numberILb0ELc0ELNS0_16number_precisionE1EEEPKcSF_St17integral_constantIbXT_EESG_IcXT0_EESG_ISD_XT1_EE
FNA:5,0,_ZN5boost4json12basic_parserINS0_6detail12into_handlerINSt7__cxx1112basic_stringIcSt11char_traitsIcESaIcEEEEEE12parse_numberILb0ELc0ELNS0_16number_precisionE2EEEPKcSF_St17integral_constantIbXT_EESG_IcXT0_EESG_ISD_XT1_EE
FNA:5,0,_ZN5boost4json12basic_parserINS0_6detail12into_handlerINSt7__cxx1112basic_stringIcSt11char_traitsIcESaIcEEEEEE12parse_numberILb1ELc43ELNS0_16number_precisionE0EEEPKcSF_St17integral_constantIbXT_EESG_IcXT0_EESG_ISD_XT1_EE
FNA:5,0,_ZN5boost4json12basic_parserINS0_6detail12into_handlerINSt7__cxx1112basic_stringIcSt11char_traitsIcESaIcEEEEEE12parse_numberILb1ELc43ELNS0_16number_precisionE1EEEPKcSF_St17integral_constantIbXT_EESG_IcXT0_EESG_ISD_XT1_EE
FNA:5,0,_ZN5boost4json12basic_parserINS0_6detail12into_handlerINSt7__cxx1112basic_stringIcSt11char_traitsIcESaIcEEEEEE12parse_numberILb1ELc43ELNS0_16number_precisionE2EEEPKcSF_St17integral_constantIbXT_EESG_IcXT0_EESG_ISD_XT1_EE
FNA:5,0,_ZN5boost4json12basic_parserINS0_6detail12into_handlerINSt7__cxx1112basic_stringIcSt11char_traitsIcESaIcEEEEEE12parse_numberILb1ELc45ELNS0_16number_precisionE0EEEPKcSF_St17integral_constantIbXT_EESG_IcXT0_EESG_ISD_XT1_EE
FNA:5,0,_ZN5boost4json12basic_parserINS0_6detail12into_handlerINSt7__cxx1112basic_stringIcSt11char_traitsIcESaIcEEEEEE12parse_numberILb1ELc45ELNS0_16number_precisionE1EEEPKcSF_St17integral_constantIbXT_EESG_IcXT0_EESG_ISD_XT1_EE
FNA:5,0,_ZN5boost4json12basic_parserINS0_6detail12into_handlerINSt7__cxx1112basic_stringIcSt11char_traitsIcESaIcEEEEEE12parse_numberILb1ELc45ELNS0_16number_precisionE2EEEPKcSF_St17integral_constantIbXT_EESG_IcXT0_EESG_ISD_XT1_EE
FNA:5,0,_ZN5boost4json12basic_parserINS0_6detail12into_handlerINSt7__cxx1112basic_stringIcSt11char_traitsIcESaIcEEEEEE12parse_numberILb1ELc48ELNS0_16number_precisionE0EEEPKcSF_St17integral_constantIbXT_EESG_IcXT0_EESG_ISD_XT1_EE
FNA:5,0,_ZN5boost4json12basic_parserINS0_6detail12into_handlerINSt7__cxx1112basic_stringIcSt11char_traitsIcESaIcEEEEEE12parse_numberILb1ELc48ELNS0_16number_precisionE1EEEPKcSF_St17integral_constantIbXT_EESG_IcXT0_EESG_ISD_XT1_EE
FNA:5,0,_ZN5boost4json12basic_parserINS0_6detail12into_handlerINSt7__cxx1112basic_stringIcSt11char_traitsIcESaIcEEEEEE12parse_numberILb1ELc48ELNS0_16number_precisionE2EEEPKcSF_St17integral_constantIbXT_EESG_IcXT0_EESG_ISD_XT1_EE
FNA:5,2,_ZN5boost4json12basic_parserINS0_6detail12into_handlerISt3mapINSt7__cxx1112basic_stringIcSt11char_traitsIcESaIcEEES4_ISA_iSt4lessISA_ESaISt4pairIKSA_iEEESC_SaISD_ISE_SH_EEEEEE12parse_numberILb0ELc0ELNS0_16number_precisionE0EEEPKcSQ_St17integral_constantIbXT_EESR_IcXT0_EESR_ISO_XT1_EE
FNA:5,0,_ZN5boost4json12basic_parserINS0_6detail12into_handlerISt3mapINSt7__cxx1112basic_stringIcSt11char_traitsIcESaIcEEES4_ISA_iSt4lessISA_ESaISt4pairIKSA_iEEESC_SaISD_ISE_SH_EEEEEE12parse_numberILb0ELc0ELNS0_16number_precisionE1EEEPKcSQ_St17integral_constantIbXT_EESR_IcXT0_EESR_ISO_XT1_EE
FNA:5,0,_ZN5boost4json12basic_parserINS0_6detail12into_handlerISt3mapINSt7__cxx1112basic_stringIcSt11char_traitsIcESaIcEEES4_ISA_iSt4lessISA_ESaISt4pairIKSA_iEEESC_SaISD_ISE_SH_EEEEEE12parse_numberILb0ELc0ELNS0_16number_precisionE2EEEPKcSQ_St17integral_constantIbXT_EESR_IcXT0_EESR_ISO_XT1_EE
FNA:5,14,_ZN5boost4json12basic_parserINS0_6detail12into_handlerISt3mapINSt7__cxx1112basic_stringIcSt11char_traitsIcESaIcEEES4_ISA_iSt4lessISA_ESaISt4pairIKSA_iEEESC_SaISD_ISE_SH_EEEEEE12parse_numberILb1ELc43ELNS0_16number_precisionE0EEEPKcSQ_St17integral_constantIbXT_EESR_IcXT0_EESR_ISO_XT1_EE
FNA:5,0,_ZN5boost4json12basic_parserINS0_6detail12into_handlerISt3mapINSt7__cxx1112basic_stringIcSt11char_traitsIcESaIcEEES4_ISA_iSt4lessISA_ESaISt4pairIKSA_iEEESC_SaISD_ISE_SH_EEEEEE12parse_numberILb1ELc43ELNS0_16number_precisionE1EEEPKcSQ_St17integral_constantIbXT_EESR_IcXT0_EESR_ISO_XT1_EE
FNA:5,0,_ZN5boost4json12basic_parserINS0_6detail12into_handlerISt3mapINSt7__cxx1112basic_stringIcSt11char_traitsIcESaIcEEES4_ISA_iSt4lessISA_ESaISt4pairIKSA_iEEESC_SaISD_ISE_SH_EEEEEE12parse_numberILb1ELc43ELNS0_16number_precisionE2EEEPKcSQ_St17integral_constantIbXT_EESR_IcXT0_EESR_ISO_XT1_EE
FNA:5,0,_ZN5boost4json12basic_parserINS0_6detail12into_handlerISt3mapINSt7__cxx1112basic_stringIcSt11char_traitsIcESaIcEEES4_ISA_iSt4lessISA_ESaISt4pairIKSA_iEEESC_SaISD_ISE_SH_EEEEEE12parse_numberILb1ELc45ELNS0_16number_precisionE0EEEPKcSQ_St17integral_constantIbXT_EESR_IcXT0_EESR_ISO_XT1_EE
FNA:5,0,_ZN5boost4json12basic_parserINS0_6detail12into_handlerISt3mapINSt7__cxx1112basic_stringIcSt11char_traitsIcESaIcEEES4_ISA_iSt4lessISA_ESaISt4pairIKSA_iEEESC_SaISD_ISE_SH_EEEEEE12parse_numberILb1ELc45ELNS0_16number_precisionE1EEEPKcSQ_St17integral_constantIbXT_EESR_IcXT0_EESR_ISO_XT1_EE
FNA:5,0,_ZN5boost4json12basic_parserINS0_6detail12into_handlerISt3mapINSt7__cxx1112basic_stringIcSt11char_traitsIcESaIcEEES4_ISA_iSt4lessISA_ESaISt4pairIKSA_iEEESC_SaISD_ISE_SH_EEEEEE12parse_numberILb1ELc45ELNS0_16number_precisionE2EEEPKcSQ_St17integral_constantIbXT_EESR_IcXT0_EESR_ISO_XT1_EE
FNA:5,0,_ZN5boost4json12basic_parserINS0_6detail12into_handlerISt3mapINSt7__cxx1112basic_stringIcSt11char_traitsIcESaIcEEES4_ISA_iSt4lessISA_ESaISt4pairIKSA_iEEESC_SaISD_ISE_SH_EEEEEE12parse_numberILb1ELc48ELNS0_16number_precisionE0EEEPKcSQ_St17integral_constantIbXT_EESR_IcXT0_EESR_ISO_XT1_EE
FNA:5,0,_ZN5boost4json12basic_parserINS0_6detail12into_handlerISt3mapINSt7__cxx1112basic_stringIcSt11char_traitsIcESaIcEEES4_ISA_iSt4lessISA_ESaISt4pairIKSA_iEEESC_SaISD_ISE_SH_EEEEEE12parse_numberILb1ELc48ELNS0_16number_precisionE1EEEPKcSQ_St17integral_constantIbXT_EESR_IcXT0_EESR_ISO_XT1_EE
FNA:5,0,_ZN5boost4json12basic_parserINS0_6detail12into_handlerISt3mapINSt7__cxx1112basic_stringIcSt11char_traitsIcESaIcEEES4_ISA_iSt4lessISA_ESaISt4pairIKSA_iEEESC_SaISD_ISE_SH_EEEEEE12parse_numberILb1ELc48ELNS0_16number_precisionE2EEEPKcSQ_St17integral_constantIbXT_EESR_IcXT0_EESR_ISO_XT1_EE
FNA:5,0,_ZN5boost4json12basic_parserINS0_6detail12into_handlerISt3mapINSt7__cxx1112basic_stringIcSt11char_traitsIcESaIcEEESt5tupleIJiiEESt4lessISA_ESaISt4pairIKSA_SC_EEEEEE12parse_numberILb0ELc0ELNS0_16number_precisionE0EEEPKcSP_St17integral_constantIbXT_EESQ_IcXT0_EESQ_ISN_XT1_EE
FNA:5,0,_ZN5boost4json12basic_parserINS0_6detail12into_handlerISt3mapINSt7__cxx1112basic_stringIcSt11char_traitsIcESaIcEEESt5tupleIJiiEESt4lessISA_ESaISt4pairIKSA_SC_EEEEEE12parse_numberILb0ELc0ELNS0_16number_precisionE1EEEPKcSP_St17integral_constantIbXT_EESQ_IcXT0_EESQ_ISN_XT1_EE
FNA:5,0,_ZN5boost4json12basic_parserINS0_6detail12into_handlerISt3mapINSt7__cxx1112basic_stringIcSt11char_traitsIcESaIcEEESt5tupleIJiiEESt4lessISA_ESaISt4pairIKSA_SC_EEEEEE12parse_numberILb0ELc0ELNS0_16number_precisionE2EEEPKcSP_St17integral_constantIbXT_EESQ_IcXT0_EESQ_ISN_XT1_EE
FNA:5,0,_ZN5boost4json12basic_parserINS0_6detail12into_handlerISt3mapINSt7__cxx1112basic_stringIcSt11char_traitsIcESaIcEEESt5tupleIJiiEESt4lessISA_ESaISt4pairIKSA_SC_EEEEEE12parse_numberILb1ELc43ELNS0_16number_precisionE0EEEPKcSP_St17integral_constantIbXT_EESQ_IcXT0_EESQ_ISN_XT1_EE
FNA:5,0,_ZN5boost4json12basic_parserINS0_6detail12into_handlerISt3mapINSt7__cxx1112basic_stringIcSt11char_traitsIcESaIcEEESt5tupleIJiiEESt4lessISA_ESaISt4pairIKSA_SC_EEEEEE12parse_numberILb1ELc43ELNS0_16number_precisionE1EEEPKcSP_St17integral_constantIbXT_EESQ_IcXT0_EESQ_ISN_XT1_EE
FNA:5,0,_ZN5boost4json12basic_parserINS0_6detail12into_handlerISt3mapINSt7__cxx1112basic_stringIcSt11char_traitsIcESaIcEEESt5tupleIJiiEESt4lessISA_ESaISt4pairIKSA_SC_EEEEEE12parse_numberILb1ELc43ELNS0_16number_precisionE2EEEPKcSP_St17integral_constantIbXT_EESQ_IcXT0_EESQ_ISN_XT1_EE
FNA:5,0,_ZN5boost4json12basic_parserINS0_6detail12into_handlerISt3mapINSt7__cxx1112basic_stringIcSt11char_traitsIcESaIcEEESt5tupleIJiiEESt4lessISA_ESaISt4pairIKSA_SC_EEEEEE12parse_numberILb1ELc45ELNS0_16number_precisionE0EEEPKcSP_St17integral_constantIbXT_EESQ_IcXT0_EESQ_ISN_XT1_EE
FNA:5,0,_ZN5boost4json12basic_parserINS0_6detail12into_handlerISt3mapINSt7__cxx1112basic_stringIcSt11char_traitsIcESaIcEEESt5tupleIJiiEESt4lessISA_ESaISt4pairIKSA_SC_EEEEEE12parse_numberILb1ELc45ELNS0_16number_precisionE1EEEPKcSP_St17integral_constantIbXT_EESQ_IcXT0_EESQ_ISN_XT1_EE
FNA:5,0,_ZN5boost4json12basic_parserINS0_6detail12into_handlerISt3mapINSt7__cxx1112basic_stringIcSt11char_traitsIcESaIcEEESt5tupleIJiiEESt4lessISA_ESaISt4pairIKSA_SC_EEEEEE12parse_numberILb1ELc45ELNS0_16number_precisionE2EEEPKcSP_St17integral_constantIbXT_EESQ_IcXT0_EESQ_ISN_XT1_EE
FNA:5,0,_ZN5boost4json12basic_parserINS0_6detail12into_handlerISt3mapINSt7__cxx1112basic_stringIcSt11char_traitsIcESaIcEEESt5tupleIJiiEESt4lessISA_ESaISt4pairIKSA_SC_EEEEEE12parse_numberILb1ELc48ELNS0_16number_precisionE0EEEPKcSP_St17integral_constantIbXT_EESQ_IcXT0_EESQ_ISN_XT1_EE
FNA:5,0,_ZN5boost4json12basic_parserINS0_6detail12into_handlerISt3mapINSt7__cxx1112basic_stringIcSt11char_traitsIcESaIcEEESt5tupleIJiiEESt4lessISA_ESaISt4pairIKSA_SC_EEEEEE12parse_numberILb1ELc48ELNS0_16number_precisionE1EEEPKcSP_St17integral_constantIbXT_EESQ_IcXT0_EESQ_ISN_XT1_EE
FNA:5,0,_ZN5boost4json12basic_parserINS0_6detail12into_handlerISt3mapINSt7__cxx1112basic_stringIcSt11char_traitsIcESaIcEEESt5tupleIJiiEESt4lessISA_ESaISt4pairIKSA_SC_EEEEEE12parse_numberILb1ELc48ELNS0_16number_precisionE2EEEPKcSP_St17integral_constantIbXT_EESQ_IcXT0_EESQ_ISN_XT1_EE
FNA:5,4,_ZN5boost4json12basic_parserINS0_6detail12into_handlerISt3mapINSt7__cxx1112basic_stringIcSt11char_traitsIcESaIcEEESt6vectorISt4pairIiiESaISD_EESt4lessISA_ESaISC_IKSA_SF_EEEEEE12parse_numberILb0ELc0ELNS0_16number_precisionE0EEEPKcSR_St17integral_constantIbXT_EESS_IcXT0_EESS_ISP_XT1_EE
FNA:5,0,_ZN5boost4json12basic_parserINS0_6detail12into_handlerISt3mapINSt7__cxx1112basic_stringIcSt11char_traitsIcESaIcEEESt6vectorISt4pairIiiESaISD_EESt4lessISA_ESaISC_IKSA_SF_EEEEEE12parse_numberILb0ELc0ELNS0_16number_precisionE1EEEPKcSR_St17integral_constantIbXT_EESS_IcXT0_EESS_ISP_XT1_EE
FNA:5,0,_ZN5boost4json12basic_parserINS0_6detail12into_handlerISt3mapINSt7__cxx1112basic_stringIcSt11char_traitsIcESaIcEEESt6vectorISt4pairIiiESaISD_EESt4lessISA_ESaISC_IKSA_SF_EEEEEE12parse_numberILb0ELc0ELNS0_16number_precisionE2EEEPKcSR_St17integral_constantIbXT_EESS_IcXT0_EESS_ISP_XT1_EE
FNA:5,28,_ZN5boost4json12basic_parserINS0_6detail12into_handlerISt3mapINSt7__cxx1112basic_stringIcSt11char_traitsIcESaIcEEESt6vectorISt4pairIiiESaISD_EESt4lessISA_ESaISC_IKSA_SF_EEEEEE12parse_numberILb1ELc43ELNS0_16number_precisionE0EEEPKcSR_St17integral_constantIbXT_EESS_IcXT0_EESS_ISP_XT1_EE
FNA:5,0,_ZN5boost4json12basic_parserINS0_6detail12into_handlerISt3mapINSt7__cxx1112basic_stringIcSt11char_traitsIcESaIcEEESt6vectorISt4pairIiiESaISD_EESt4lessISA_ESaISC_IKSA_SF_EEEEEE12parse_numberILb1ELc43ELNS0_16number_precisionE1EEEPKcSR_St17integral_constantIbXT_EESS_IcXT0_EESS_ISP_XT1_EE
FNA:5,0,_ZN5boost4json12basic_parserINS0_6detail12into_handlerISt3mapINSt7__cxx1112basic_stringIcSt11char_traitsIcESaIcEEESt6vectorISt4pairIiiESaISD_EESt4lessISA_ESaISC_IKSA_SF_EEEEEE12parse_numberILb1ELc43ELNS0_16number_precisionE2EEEPKcSR_St17integral_constantIbXT_EESS_IcXT0_EESS_ISP_XT1_EE
FNA:5,0,_ZN5boost4json12basic_parserINS0_6detail12into_handlerISt3mapINSt7__cxx1112basic_stringIcSt11char_traitsIcESaIcEEESt6vectorISt4pairIiiESaISD_EESt4lessISA_ESaISC_IKSA_SF_EEEEEE12parse_numberILb1ELc45ELNS0_16number_precisionE0EEEPKcSR_St17integral_constantIbXT_EESS_IcXT0_EESS_ISP_XT1_EE
FNA:5,0,_ZN5boost4json12basic_parserINS0_6detail12into_handlerISt3mapINSt7__cxx1112basic_stringIcSt11char_traitsIcESaIcEEESt6vectorISt4pairIiiESaISD_EESt4lessISA_ESaISC_IKSA_SF_EEEEEE12parse_numberILb1ELc45ELNS0_16number_precisionE1EEEPKcSR_St17integral_constantIbXT_EESS_IcXT0_EESS_ISP_XT1_EE
FNA:5,0,_ZN5boost4json12basic_parserINS0_6detail12into_handlerISt3mapINSt7__cxx1112basic_stringIcSt11char_traitsIcESaIcEEESt6vectorISt4pairIiiESaISD_EESt4lessISA_ESaISC_IKSA_SF_EEEEEE12parse_numberILb1ELc45ELNS0_16number_precisionE2EEEPKcSR_St17integral_constantIbXT_EESS_IcXT0_EESS_ISP_XT1_EE
FNA:5,0,_ZN5boost4json12basic_parserINS0_6detail12into_handlerISt3mapINSt7__cxx1112basic_stringIcSt11char_traitsIcESaIcEEESt6vectorISt4pairIiiESaISD_EESt4lessISA_ESaISC_IKSA_SF_EEEEEE12parse_numberILb1ELc48ELNS0_16number_precisionE0EEEPKcSR_St17integral_constantIbXT_EESS_IcXT0_EESS_ISP_XT1_EE
FNA:5,0,_ZN5boost4json12basic_parserINS0_6detail12into_handlerISt3mapINSt7__cxx1112basic_stringIcSt11char_traitsIcESaIcEEESt6vectorISt4pairIiiESaISD_EESt4lessISA_ESaISC_IKSA_SF_EEEEEE12parse_numberILb1ELc48ELNS0_16number_precisionE1EEEPKcSR_St17integral_constantIbXT_EESS_IcXT0_EESS_ISP_XT1_EE
FNA:5,0,_ZN5boost4json12basic_parserINS0_6detail12into_handlerISt3mapINSt7__cxx1112basic_stringIcSt11char_traitsIcESaIcEEESt6vectorISt4pairIiiESaISD_EESt4lessISA_ESaISC_IKSA_SF_EEEEEE12parse_numberILb1ELc48ELNS0_16number_precisionE2EEEPKcSR_St17integral_constantIbXT_EESS_IcXT0_EESS_ISP_XT1_EE
FNA:5,3,_ZN5boost4json12basic_parserINS0_6detail12into_handlerISt3mapINSt7__cxx1112basic_stringIcSt11char_traitsIcESaIcEEESt6vectorIiSaIiEESt4lessISA_ESaISt4pairIKSA_SD_EEEEEE12parse_numberILb0ELc0ELNS0_16number_precisionE0EEEPKcSQ_St17integral_constantIbXT_EESR_IcXT0_EESR_ISO_XT1_EE
FNA:5,0,_ZN5boost4json12basic_parserINS0_6detail12into_handlerISt3mapINSt7__cxx1112basic_stringIcSt11char_traitsIcESaIcEEESt6vectorIiSaIiEESt4lessISA_ESaISt4pairIKSA_SD_EEEEEE12parse_numberILb0ELc0ELNS0_16number_precisionE1EEEPKcSQ_St17integral_constantIbXT_EESR_IcXT0_EESR_ISO_XT1_EE
FNA:5,0,_ZN5boost4json12basic_parserINS0_6detail12into_handlerISt3mapINSt7__cxx1112basic_stringIcSt11char_traitsIcESaIcEEESt6vectorIiSaIiEESt4lessISA_ESaISt4pairIKSA_SD_EEEEEE12parse_numberILb0ELc0ELNS0_16number_precisionE2EEEPKcSQ_St17integral_constantIbXT_EESR_IcXT0_EESR_ISO_XT1_EE
FNA:5,27,_ZN5boost4json12basic_parserINS0_6detail12into_handlerISt3mapINSt7__cxx1112basic_stringIcSt11char_traitsIcESaIcEEESt6vectorIiSaIiEESt4lessISA_ESaISt4pairIKSA_SD_EEEEEE12parse_numberILb1ELc43ELNS0_16number_precisionE0EEEPKcSQ_St17integral_constantIbXT_EESR_IcXT0_EESR_ISO_XT1_EE
FNA:5,0,_ZN5boost4json12basic_parserINS0_6detail12into_handlerISt3mapINSt7__cxx1112basic_stringIcSt11char_traitsIcESaIcEEESt6vectorIiSaIiEESt4lessISA_ESaISt4pairIKSA_SD_EEEEEE12parse_numberILb1ELc43ELNS0_16number_precisionE1EEEPKcSQ_St17integral_constantIbXT_EESR_IcXT0_EESR_ISO_XT1_EE
FNA:5,0,_ZN5boost4json12basic_parserINS0_6detail12into_handlerISt3mapINSt7__cxx1112basic_stringIcSt11char_traitsIcESaIcEEESt6vectorIiSaIiEESt4lessISA_ESaISt4pairIKSA_SD_EEEEEE12parse_numberILb1ELc43ELNS0_16number_precisionE2EEEPKcSQ_St17integral_constantIbXT_EESR_IcXT0_EESR_ISO_XT1_EE
FNA:5,0,_ZN5boost4json12basic_parserINS0_6detail12into_handlerISt3mapINSt7__cxx1112basic_stringIcSt11char_traitsIcESaIcEEESt6vectorIiSaIiEESt4lessISA_ESaISt4pairIKSA_SD_EEEEEE12parse_numberILb1ELc45ELNS0_16number_precisionE0EEEPKcSQ_St17integral_constantIbXT_EESR_IcXT0_EESR_ISO_XT1_EE
FNA:5,0,_ZN5boost4json12basic_parserINS0_6detail12into_handlerISt3mapINSt7__cxx1112basic_stringIcSt11char_traitsIcESaIcEEESt6vectorIiSaIiEESt4lessISA_ESaISt4pairIKSA_SD_EEEEEE12parse_numberILb1ELc45ELNS0_16number_precisionE1EEEPKcSQ_St17integral_constantIbXT_EESR_IcXT0_EESR_ISO_XT1_EE
FNA:5,0,_ZN5boost4json12basic_parserINS0_6detail12into_handlerISt3mapINSt7__cxx1112basic_stringIcSt11char_traitsIcESaIcEEESt6vectorIiSaIiEESt4lessISA_ESaISt4pairIKSA_SD_EEEEEE12parse_numberILb1ELc45ELNS0_16number_precisionE2EEEPKcSQ_St17integral_constantIbXT_EESR_IcXT0_EESR_ISO_XT1_EE
FNA:5,0,_ZN5boost4json12basic_parserINS0_6detail12into_handlerISt3mapINSt7__cxx1112basic_stringIcSt11char_traitsIcESaIcEEESt6vectorIiSaIiEESt4lessISA_ESaISt4pairIKSA_SD_EEEEEE12parse_numberILb1ELc48ELNS0_16number_precisionE0EEEPKcSQ_St17integral_constantIbXT_EESR_IcXT0_EESR_ISO_XT1_EE
FNA:5,0,_ZN5boost4json12basic_parserINS0_6detail12into_handlerISt3mapINSt7__cxx1112basic_stringIcSt11char_traitsIcESaIcEEESt6vectorIiSaIiEESt4lessISA_ESaISt4pairIKSA_SD_EEEEEE12parse_numberILb1ELc48ELNS0_16number_precisionE1EEEPKcSQ_St17integral_constantIbXT_EESR_IcXT0_EESR_ISO_XT1_EE
FNA:5,0,_ZN5boost4json12basic_parserINS0_6detail12into_handlerISt3mapINSt7__cxx1112basic_stringIcSt11char_traitsIcESaIcEEESt6vectorIiSaIiEESt4lessISA_ESaISt4pairIKSA_SD_EEEEEE12parse_numberILb1ELc48ELNS0_16number_precisionE2EEEPKcSQ_St17integral_constantIbXT_EESR_IcXT0_EESR_ISO_XT1_EE
FNA:5,4,_ZN5boost4json12basic_parserINS0_6detail12into_handlerISt3mapINSt7__cxx1112basic_stringIcSt11char_traitsIcESaIcEEEiSt4lessISA_ESaISt4pairIKSA_iEEEEEE12parse_numberILb0ELc0ELNS0_16number_precisionE0EEEPKcSN_St17integral_constantIbXT_EESO_IcXT0_EESO_ISL_XT1_EE
FNA:5,0,_ZN5boost4json12basic_parserINS0_6detail12into_handlerISt3mapINSt7__cxx1112basic_stringIcSt11char_traitsIcESaIcEEEiSt4lessISA_ESaISt4pairIKSA_iEEEEEE12parse_numberILb0ELc0ELNS0_16number_precisionE1EEEPKcSN_St17integral_constantIbXT_EESO_IcXT0_EESO_ISL_XT1_EE
FNA:5,0,_ZN5boost4json12basic_parserINS0_6detail12into_handlerISt3mapINSt7__cxx1112basic_stringIcSt11char_traitsIcESaIcEEEiSt4lessISA_ESaISt4pairIKSA_iEEEEEE12parse_numberILb0ELc0ELNS0_16number_precisionE2EEEPKcSN_St17integral_constantIbXT_EESO_IcXT0_EESO_ISL_XT1_EE
FNA:5,33,_ZN5boost4json12basic_parserINS0_6detail12into_handlerISt3mapINSt7__cxx1112basic_stringIcSt11char_traitsIcESaIcEEEiSt4lessISA_ESaISt4pairIKSA_iEEEEEE12parse_numberILb1ELc43ELNS0_16number_precisionE0EEEPKcSN_St17integral_constantIbXT_EESO_IcXT0_EESO_ISL_XT1_EE
FNA:5,0,_ZN5boost4json12basic_parserINS0_6detail12into_handlerISt3mapINSt7__cxx1112basic_stringIcSt11char_traitsIcESaIcEEEiSt4lessISA_ESaISt4pairIKSA_iEEEEEE12parse_numberILb1ELc43ELNS0_16number_precisionE1EEEPKcSN_St17integral_constantIbXT_EESO_IcXT0_EESO_ISL_XT1_EE
FNA:5,0,_ZN5boost4json12basic_parserINS0_6detail12into_handlerISt3mapINSt7__cxx1112basic_stringIcSt11char_traitsIcESaIcEEEiSt4lessISA_ESaISt4pairIKSA_iEEEEEE12parse_numberILb1ELc43ELNS0_16number_precisionE2EEEPKcSN_St17integral_constantIbXT_EESO_IcXT0_EESO_ISL_XT1_EE
FNA:5,0,_ZN5boost4json12basic_parserINS0_6detail12into_handlerISt3mapINSt7__cxx1112basic_stringIcSt11char_traitsIcESaIcEEEiSt4lessISA_ESaISt4pairIKSA_iEEEEEE12parse_numberILb1ELc45ELNS0_16number_precisionE0EEEPKcSN_St17integral_constantIbXT_EESO_IcXT0_EESO_ISL_XT1_EE
FNA:5,0,_ZN5boost4json12basic_parserINS0_6detail12into_handlerISt3mapINSt7__cxx1112basic_stringIcSt11char_traitsIcESaIcEEEiSt4lessISA_ESaISt4pairIKSA_iEEEEEE12parse_numberILb1ELc45ELNS0_16number_precisionE1EEEPKcSN_St17integral_constantIbXT_EESO_IcXT0_EESO_ISL_XT1_EE
FNA:5,0,_ZN5boost4json12basic_parserINS0_6detail12into_handlerISt3mapINSt7__cxx1112basic_stringIcSt11char_traitsIcESaIcEEEiSt4lessISA_ESaISt4pairIKSA_iEEEEEE12parse_numberILb1ELc45ELNS0_16number_precisionE2EEEPKcSN_St17integral_constantIbXT_EESO_IcXT0_EESO_ISL_XT1_EE
FNA:5,0,_ZN5boost4json12basic_parserINS0_6detail12into_handlerISt3mapINSt7__cxx1112basic_stringIcSt11char_traitsIcESaIcEEEiSt4lessISA_ESaISt4pairIKSA_iEEEEEE12parse_numberILb1ELc48ELNS0_16number_precisionE0EEEPKcSN_St17integral_constantIbXT_EESO_IcXT0_EESO_ISL_XT1_EE
FNA:5,0,_ZN5boost4json12basic_parserINS0_6detail12into_handlerISt3mapINSt7__cxx1112basic_stringIcSt11char_traitsIcESaIcEEEiSt4lessISA_ESaISt4pairIKSA_iEEEEEE12parse_numberILb1ELc48ELNS0_16number_precisionE1EEEPKcSN_St17integral_constantIbXT_EESO_IcXT0_EESO_ISL_XT1_EE
FNA:5,0,_ZN5boost4json12basic_parserINS0_6detail12into_handlerISt3mapINSt7__cxx1112basic_stringIcSt11char_traitsIcESaIcEEEiSt4lessISA_ESaISt4pairIKSA_iEEEEEE12parse_numberILb1ELc48ELNS0_16number_precisionE2EEEPKcSN_St17integral_constantIbXT_EESO_IcXT0_EESO_ISL_XT1_EE
FNA:5,20,_ZN5boost4json12basic_parserINS0_6detail12into_handlerISt4pairIDnmEEEE12parse_numberILb0ELc0ELNS0_16number_precisionE0EEEPKcSB_St17integral_constantIbXT_EESC_IcXT0_EESC_IS9_XT1_EE
FNA:5,0,_ZN5boost4json12basic_parserINS0_6detail12into_handlerISt4pairIDnmEEEE12parse_numberILb0ELc0ELNS0_16number_precisionE1EEEPKcSB_St17integral_constantIbXT_EESC_IcXT0_EESC_IS9_XT1_EE
FNA:5,0,_ZN5boost4json12basic_parserINS0_6detail12into_handlerISt4pairIDnmEEEE12parse_numberILb0ELc0ELNS0_16number_precisionE2EEEPKcSB_St17integral_constantIbXT_EESC_IcXT0_EESC_IS9_XT1_EE
FNA:5,7,_ZN5boost4json12basic_parserINS0_6detail12into_handlerISt4pairIDnmEEEE12parse_numberILb1ELc43ELNS0_16number_precisionE0EEEPKcSB_St17integral_constantIbXT_EESC_IcXT0_EESC_IS9_XT1_EE
FNA:5,0,_ZN5boost4json12basic_parserINS0_6detail12into_handlerISt4pairIDnmEEEE12parse_numberILb1ELc43ELNS0_16number_precisionE1EEEPKcSB_St17integral_constantIbXT_EESC_IcXT0_EESC_IS9_XT1_EE
FNA:5,0,_ZN5boost4json12basic_parserINS0_6detail12into_handlerISt4pairIDnmEEEE12parse_numberILb1ELc43ELNS0_16number_precisionE2EEEPKcSB_St17integral_constantIbXT_EESC_IcXT0_EESC_IS9_XT1_EE
FNA:5,0,_ZN5boost4json12basic_parserINS0_6detail12into_handlerISt4pairIDnmEEEE12parse_numberILb1ELc45ELNS0_16number_precisionE0EEEPKcSB_St17integral_constantIbXT_EESC_IcXT0_EESC_IS9_XT1_EE
FNA:5,0,_ZN5boost4json12basic_parserINS0_6detail12into_handlerISt4pairIDnmEEEE12parse_numberILb1ELc45ELNS0_16number_precisionE1EEEPKcSB_St17integral_constantIbXT_EESC_IcXT0_EESC_IS9_XT1_EE
FNA:5,0,_ZN5boost4json12basic_parserINS0_6detail12into_handlerISt4pairIDnmEEEE12parse_numberILb1ELc45ELNS0_16number_precisionE2EEEPKcSB_St17integral_constantIbXT_EESC_IcXT0_EESC_IS9_XT1_EE
FNA:5,0,_ZN5boost4json12basic_parserINS0_6detail12into_handlerISt4pairIDnmEEEE12parse_numberILb1ELc48ELNS0_16number_precisionE0EEEPKcSB_St17integral_constantIbXT_EESC_IcXT0_EESC_IS9_XT1_EE
FNA:5,0,_ZN5boost4json12basic_parserINS0_6detail12into_handlerISt4pairIDnmEEEE12parse_numberILb1ELc48ELNS0_16number_precisionE1EEEPKcSB_St17integral_constantIbXT_EESC_IcXT0_EESC_IS9_XT1_EE
FNA:5,0,_ZN5boost4json12basic_parserINS0_6detail12into_handlerISt4pairIDnmEEEE12parse_numberILb1ELc48ELNS0_16number_precisionE2EEEPKcSB_St17integral_constantIbXT_EESC_IcXT0_EESC_IS9_XT1_EE
FNA:5,4,_ZN5boost4json12basic_parserINS0_6detail12into_handlerISt4pairISt6vectorIiSaIiEESt3mapINSt7__cxx1112basic_stringIcSt11char_traitsIcESaIcEEES4_IibESt4lessISE_ESaIS4_IKSE_SF_EEEEEEE12parse_numberILb0ELc0ELNS0_16number_precisionE0EEEPKcSS_St17integral_constantIbXT_EEST_IcXT0_EEST_ISQ_XT1_EE
FNA:5,0,_ZN5boost4json12basic_parserINS0_6detail12into_handlerISt4pairISt6vectorIiSaIiEESt3mapINSt7__cxx1112basic_stringIcSt11char_traitsIcESaIcEEES4_IibESt4lessISE_ESaIS4_IKSE_SF_EEEEEEE12parse_numberILb0ELc0ELNS0_16number_precisionE1EEEPKcSS_St17integral_constantIbXT_EEST_IcXT0_EEST_ISQ_XT1_EE
FNA:5,0,_ZN5boost4json12basic_parserINS0_6detail12into_handlerISt4pairISt6vectorIiSaIiEESt3mapINSt7__cxx1112basic_stringIcSt11char_traitsIcESaIcEEES4_IibESt4lessISE_ESaIS4_IKSE_SF_EEEEEEE12parse_numberILb0ELc0ELNS0_16number_precisionE2EEEPKcSS_St17integral_constantIbXT_EEST_IcXT0_EEST_ISQ_XT1_EE
FNA:5,28,_ZN5boost4json12basic_parserINS0_6detail12into_handlerISt4pairISt6vectorIiSaIiEESt3mapINSt7__cxx1112basic_stringIcSt11char_traitsIcESaIcEEES4_IibESt4lessISE_ESaIS4_IKSE_SF_EEEEEEE12parse_numberILb1ELc43ELNS0_16number_precisionE0EEEPKcSS_St17integral_constantIbXT_EEST_IcXT0_EEST_ISQ_XT1_EE
FNA:5,0,_ZN5boost4json12basic_parserINS0_6detail12into_handlerISt4pairISt6vectorIiSaIiEESt3mapINSt7__cxx1112basic_stringIcSt11char_traitsIcESaIcEEES4_IibESt4lessISE_ESaIS4_IKSE_SF_EEEEEEE12parse_numberILb1ELc43ELNS0_16number_precisionE1EEEPKcSS_St17integral_constantIbXT_EEST_IcXT0_EEST_ISQ_XT1_EE
FNA:5,0,_ZN5boost4json12basic_parserINS0_6detail12into_handlerISt4pairISt6vectorIiSaIiEESt3mapINSt7__cxx1112basic_stringIcSt11char_traitsIcESaIcEEES4_IibESt4lessISE_ESaIS4_IKSE_SF_EEEEEEE12parse_numberILb1ELc43ELNS0_16number_precisionE2EEEPKcSS_St17integral_constantIbXT_EEST_IcXT0_EEST_ISQ_XT1_EE
FNA:5,0,_ZN5boost4json12basic_parserINS0_6detail12into_handlerISt4pairISt6vectorIiSaIiEESt3mapINSt7__cxx1112basic_stringIcSt11char_traitsIcESaIcEEES4_IibESt4lessISE_ESaIS4_IKSE_SF_EEEEEEE12parse_numberILb1ELc45ELNS0_16number_precisionE0EEEPKcSS_St17integral_constantIbXT_EEST_IcXT0_EEST_ISQ_XT1_EE
FNA:5,0,_ZN5boost4json12basic_parserINS0_6detail12into_handlerISt4pairISt6vectorIiSaIiEESt3mapINSt7__cxx1112basic_stringIcSt11char_traitsIcESaIcEEES4_IibESt4lessISE_ESaIS4_IKSE_SF_EEEEEEE12parse_numberILb1ELc45ELNS0_16number_precisionE1EEEPKcSS_St17integral_constantIbXT_EEST_IcXT0_EEST_ISQ_XT1_EE
FNA:5,0,_ZN5boost4json12basic_parserINS0_6detail12into_handlerISt4pairISt6vectorIiSaIiEESt3mapINSt7__cxx1112basic_stringIcSt11char_traitsIcESaIcEEES4_IibESt4lessISE_ESaIS4_IKSE_SF_EEEEEEE12parse_numberILb1ELc45ELNS0_16number_precisionE2EEEPKcSS_St17integral_constantIbXT_EEST_IcXT0_EEST_ISQ_XT1_EE
FNA:5,0,_ZN5boost4json12basic_parserINS0_6detail12into_handlerISt4pairISt6vectorIiSaIiEESt3mapINSt7__cxx1112basic_stringIcSt11char_traitsIcESaIcEEES4_IibESt4lessISE_ESaIS4_IKSE_SF_EEEEEEE12parse_numberILb1ELc48ELNS0_16number_precisionE0EEEPKcSS_St17integral_constantIbXT_EEST_IcXT0_EEST_ISQ_XT1_EE
FNA:5,0,_ZN5boost4json12basic_parserINS0_6detail12into_handlerISt4pairISt6vectorIiSaIiEESt3mapINSt7__cxx1112basic_stringIcSt11char_traitsIcESaIcEEES4_IibESt4lessISE_ESaIS4_IKSE_SF_EEEEEEE12parse_numberILb1ELc48ELNS0_16number_precisionE1EEEPKcSS_St17integral_constantIbXT_EEST_IcXT0_EEST_ISQ_XT1_EE
FNA:5,0,_ZN5boost4json12basic_parserINS0_6detail12into_handlerISt4pairISt6vectorIiSaIiEESt3mapINSt7__cxx1112basic_stringIcSt11char_traitsIcESaIcEEES4_IibESt4lessISE_ESaIS4_IKSE_SF_EEEEEEE12parse_numberILb1ELc48ELNS0_16number_precisionE2EEEPKcSS_St17integral_constantIbXT_EEST_IcXT0_EEST_ISQ_XT1_EE
FNA:5,2,_ZN5boost4json12basic_parserINS0_6detail12into_handlerISt4pairIiiEEEE12parse_numberILb0ELc0ELNS0_16number_precisionE0EEEPKcSB_St17integral_constantIbXT_EESC_IcXT0_EESC_IS9_XT1_EE
FNA:5,0,_ZN5boost4json12basic_parserINS0_6detail12into_handlerISt4pairIiiEEEE12parse_numberILb0ELc0ELNS0_16number_precisionE1EEEPKcSB_St17integral_constantIbXT_EESC_IcXT0_EESC_IS9_XT1_EE
FNA:5,0,_ZN5boost4json12basic_parserINS0_6detail12into_handlerISt4pairIiiEEEE12parse_numberILb0ELc0ELNS0_16number_precisionE2EEEPKcSB_St17integral_constantIbXT_EESC_IcXT0_EESC_IS9_XT1_EE
FNA:5,8,_ZN5boost4json12basic_parserINS0_6detail12into_handlerISt4pairIiiEEEE12parse_numberILb1ELc43ELNS0_16number_precisionE0EEEPKcSB_St17integral_constantIbXT_EESC_IcXT0_EESC_IS9_XT1_EE
FNA:5,0,_ZN5boost4json12basic_parserINS0_6detail12into_handlerISt4pairIiiEEEE12parse_numberILb1ELc43ELNS0_16number_precisionE1EEEPKcSB_St17integral_constantIbXT_EESC_IcXT0_EESC_IS9_XT1_EE
FNA:5,0,_ZN5boost4json12basic_parserINS0_6detail12into_handlerISt4pairIiiEEEE12parse_numberILb1ELc43ELNS0_16number_precisionE2EEEPKcSB_St17integral_constantIbXT_EESC_IcXT0_EESC_IS9_XT1_EE
FNA:5,0,_ZN5boost4json12basic_parserINS0_6detail12into_handlerISt4pairIiiEEEE12parse_numberILb1ELc45ELNS0_16number_precisionE0EEEPKcSB_St17integral_constantIbXT_EESC_IcXT0_EESC_IS9_XT1_EE
FNA:5,0,_ZN5boost4json12basic_parserINS0_6detail12into_handlerISt4pairIiiEEEE12parse_numberILb1ELc45ELNS0_16number_precisionE1EEEPKcSB_St17integral_constantIbXT_EESC_IcXT0_EESC_IS9_XT1_EE
FNA:5,0,_ZN5boost4json12basic_parserINS0_6detail12into_handlerISt4pairIiiEEEE12parse_numberILb1ELc45ELNS0_16number_precisionE2EEEPKcSB_St17integral_constantIbXT_EESC_IcXT0_EESC_IS9_XT1_EE
FNA:5,0,_ZN5boost4json12basic_parserINS0_6detail12into_handlerISt4pairIiiEEEE12parse_numberILb1ELc48ELNS0_16number_precisionE0EEEPKcSB_St17integral_constantIbXT_EESC_IcXT0_EESC_IS9_XT1_EE
FNA:5,0,_ZN5boost4json12basic_parserINS0_6detail12into_handlerISt4pairIiiEEEE12parse_numberILb1ELc48ELNS0_16number_precisionE1EEEPKcSB_St17integral_constantIbXT_EESC_IcXT0_EESC_IS9_XT1_EE
FNA:5,0,_ZN5boost4json12basic_parserINS0_6detail12into_handlerISt4pairIiiEEEE12parse_numberILb1ELc48ELNS0_16number_precisionE2EEEPKcSB_St17integral_constantIbXT_EESC_IcXT0_EESC_IS9_XT1_EE
FNA:5,16,_ZN5boost4json12basic_parserINS0_6detail12into_handlerISt5arrayIiLm4EEEEE12parse_numberILb0ELc0ELNS0_16number_precisionE0EEEPKcSB_St17integral_constantIbXT_EESC_IcXT0_EESC_IS9_XT1_EE
FNA:5,0,_ZN5boost4json12basic_parserINS0_6detail12into_handlerISt5arrayIiLm4EEEEE12parse_numberILb0ELc0ELNS0_16number_precisionE1EEEPKcSB_St17integral_constantIbXT_EESC_IcXT0_EESC_IS9_XT1_EE
FNA:5,0,_ZN5boost4json12basic_parserINS0_6detail12into_handlerISt5arrayIiLm4EEEEE12parse_numberILb0ELc0ELNS0_16number_precisionE2EEEPKcSB_St17integral_constantIbXT_EESC_IcXT0_EESC_IS9_XT1_EE
FNA:5,44,_ZN5boost4json12basic_parserINS0_6detail12into_handlerISt5arrayIiLm4EEEEE12parse_numberILb1ELc43ELNS0_16number_precisionE0EEEPKcSB_St17integral_constantIbXT_EESC_IcXT0_EESC_IS9_XT1_EE
FNA:5,0,_ZN5boost4json12basic_parserINS0_6detail12into_handlerISt5arrayIiLm4EEEEE12parse_numberILb1ELc43ELNS0_16number_precisionE1EEEPKcSB_St17integral_constantIbXT_EESC_IcXT0_EESC_IS9_XT1_EE
FNA:5,0,_ZN5boost4json12basic_parserINS0_6detail12into_handlerISt5arrayIiLm4EEEEE12parse_numberILb1ELc43ELNS0_16number_precisionE2EEEPKcSB_St17integral_constantIbXT_EESC_IcXT0_EESC_IS9_XT1_EE
FNA:5,0,_ZN5boost4json12basic_parserINS0_6detail12into_handlerISt5arrayIiLm4EEEEE12parse_numberILb1ELc45ELNS0_16number_precisionE0EEEPKcSB_St17integral_constantIbXT_EESC_IcXT0_EESC_IS9_XT1_EE
FNA:5,0,_ZN5boost4json12basic_parserINS0_6detail12into_handlerISt5arrayIiLm4EEEEE12parse_numberILb1ELc45ELNS0_16number_precisionE1EEEPKcSB_St17integral_constantIbXT_EESC_IcXT0_EESC_IS9_XT1_EE
FNA:5,0,_ZN5boost4json12basic_parserINS0_6detail12into_handlerISt5arrayIiLm4EEEEE12parse_numberILb1ELc45ELNS0_16number_precisionE2EEEPKcSB_St17integral_constantIbXT_EESC_IcXT0_EESC_IS9_XT1_EE
FNA:5,0,_ZN5boost4json12basic_parserINS0_6detail12into_handlerISt5arrayIiLm4EEEEE12parse_numberILb1ELc48ELNS0_16number_precisionE0EEEPKcSB_St17integral_constantIbXT_EESC_IcXT0_EESC_IS9_XT1_EE
FNA:5,0,_ZN5boost4json12basic_parserINS0_6detail12into_handlerISt5arrayIiLm4EEEEE12parse_numberILb1ELc48ELNS0_16number_precisionE1EEEPKcSB_St17integral_constantIbXT_EESC_IcXT0_EESC_IS9_XT1_EE
FNA:5,0,_ZN5boost4json12basic_parserINS0_6detail12into_handlerISt5arrayIiLm4EEEEE12parse_numberILb1ELc48ELNS0_16number_precisionE2EEEPKcSB_St17integral_constantIbXT_EESC_IcXT0_EESC_IS9_XT1_EE
FNA:5,2,_ZN5boost4json12basic_parserINS0_6detail12into_handlerISt5tupleIJSt6vectorIiSaIiEEEEEEE12parse_numberILb0ELc0ELNS0_16number_precisionE0EEEPKcSE_St17integral_constantIbXT_EESF_IcXT0_EESF_ISC_XT1_EE
FNA:5,0,_ZN5boost4json12basic_parserINS0_6detail12into_handlerISt5tupleIJSt6vectorIiSaIiEEEEEEE12parse_numberILb0ELc0ELNS0_16number_precisionE1EEEPKcSE_St17integral_constantIbXT_EESF_IcXT0_EESF_ISC_XT1_EE
FNA:5,0,_ZN5boost4json12basic_parserINS0_6detail12into_handlerISt5tupleIJSt6vectorIiSaIiEEEEEEE12parse_numberILb0ELc0ELNS0_16number_precisionE2EEEPKcSE_St17integral_constantIbXT_EESF_IcXT0_EESF_ISC_XT1_EE
FNA:5,4,_ZN5boost4json12basic_parserINS0_6detail12into_handlerISt5tupleIJSt6vectorIiSaIiEEEEEEE12parse_numberILb1ELc43ELNS0_16number_precisionE0EEEPKcSE_St17integral_constantIbXT_EESF_IcXT0_EESF_ISC_XT1_EE
FNA:5,0,_ZN5boost4json12basic_parserINS0_6detail12into_handlerISt5tupleIJSt6vectorIiSaIiEEEEEEE12parse_numberILb1ELc43ELNS0_16number_precisionE1EEEPKcSE_St17integral_constantIbXT_EESF_IcXT0_EESF_ISC_XT1_EE
FNA:5,0,_ZN5boost4json12basic_parserINS0_6detail12into_handlerISt5tupleIJSt6vectorIiSaIiEEEEEEE12parse_numberILb1ELc43ELNS0_16number_precisionE2EEEPKcSE_St17integral_constantIbXT_EESF_IcXT0_EESF_ISC_XT1_EE
FNA:5,0,_ZN5boost4json12basic_parserINS0_6detail12into_handlerISt5tupleIJSt6vectorIiSaIiEEEEEEE12parse_numberILb1ELc45ELNS0_16number_precisionE0EEEPKcSE_St17integral_constantIbXT_EESF_IcXT0_EESF_ISC_XT1_EE
FNA:5,0,_ZN5boost4json12basic_parserINS0_6detail12into_handlerISt5tupleIJSt6vectorIiSaIiEEEEEEE12parse_numberILb1ELc45ELNS0_16number_precisionE1EEEPKcSE_St17integral_constantIbXT_EESF_IcXT0_EESF_ISC_XT1_EE
FNA:5,0,_ZN5boost4json12basic_parserINS0_6detail12into_handlerISt5tupleIJSt6vectorIiSaIiEEEEEEE12parse_numberILb1ELc45ELNS0_16number_precisionE2EEEPKcSE_St17integral_constantIbXT_EESF_IcXT0_EESF_ISC_XT1_EE
FNA:5,0,_ZN5boost4json12basic_parserINS0_6detail12into_handlerISt5tupleIJSt6vectorIiSaIiEEEEEEE12parse_numberILb1ELc48ELNS0_16number_precisionE0EEEPKcSE_St17integral_constantIbXT_EESF_IcXT0_EESF_ISC_XT1_EE
FNA:5,0,_ZN5boost4json12basic_parserINS0_6detail12into_handlerISt5tupleIJSt6vectorIiSaIiEEEEEEE12parse_numberILb1ELc48ELNS0_16number_precisionE1EEEPKcSE_St17integral_constantIbXT_EESF_IcXT0_EESF_ISC_XT1_EE
FNA:5,0,_ZN5boost4json12basic_parserINS0_6detail12into_handlerISt5tupleIJSt6vectorIiSaIiEEEEEEE12parse_numberILb1ELc48ELNS0_16number_precisionE2EEEPKcSE_St17integral_constantIbXT_EESF_IcXT0_EESF_ISC_XT1_EE
FNA:5,24,_ZN5boost4json12basic_parserINS0_6detail12into_handlerISt5tupleIJifNSt7__cxx1112basic_stringIcSt11char_traitsIcESaIcEEEEEEEE12parse_numberILb0ELc0ELNS0_16number_precisionE0EEEPKcSH_St17integral_constantIbXT_EESI_IcXT0_EESI_ISF_XT1_EE
FNA:5,0,_ZN5boost4json12basic_parserINS0_6detail12into_handlerISt5tupleIJifNSt7__cxx1112basic_stringIcSt11char_traitsIcESaIcEEEEEEEE12parse_numberILb0ELc0ELNS0_16number_precisionE1EEEPKcSH_St17integral_constantIbXT_EESI_IcXT0_EESI_ISF_XT1_EE
FNA:5,0,_ZN5boost4json12basic_parserINS0_6detail12into_handlerISt5tupleIJifNSt7__cxx1112basic_stringIcSt11char_traitsIcESaIcEEEEEEEE12parse_numberILb0ELc0ELNS0_16number_precisionE2EEEPKcSH_St17integral_constantIbXT_EESI_IcXT0_EESI_ISF_XT1_EE
FNA:5,14,_ZN5boost4json12basic_parserINS0_6detail12into_handlerISt5tupleIJifNSt7__cxx1112basic_stringIcSt11char_traitsIcESaIcEEEEEEEE12parse_numberILb1ELc43ELNS0_16number_precisionE0EEEPKcSH_St17integral_constantIbXT_EESI_IcXT0_EESI_ISF_XT1_EE
FNA:5,0,_ZN5boost4json12basic_parserINS0_6detail12into_handlerISt5tupleIJifNSt7__cxx1112basic_stringIcSt11char_traitsIcESaIcEEEEEEEE12parse_numberILb1ELc43ELNS0_16number_precisionE1EEEPKcSH_St17integral_constantIbXT_EESI_IcXT0_EESI_ISF_XT1_EE
FNA:5,0,_ZN5boost4json12basic_parserINS0_6detail12into_handlerISt5tupleIJifNSt7__cxx1112basic_stringIcSt11char_traitsIcESaIcEEEEEEEE12parse_numberILb1ELc43ELNS0_16number_precisionE2EEEPKcSH_St17integral_constantIbXT_EESI_IcXT0_EESI_ISF_XT1_EE
FNA:5,0,_ZN5boost4json12basic_parserINS0_6detail12into_handlerISt5tupleIJifNSt7__cxx1112basic_stringIcSt11char_traitsIcESaIcEEEEEEEE12parse_numberILb1ELc45ELNS0_16number_precisionE0EEEPKcSH_St17integral_constantIbXT_EESI_IcXT0_EESI_ISF_XT1_EE
FNA:5,0,_ZN5boost4json12basic_parserINS0_6detail12into_handlerISt5tupleIJifNSt7__cxx1112basic_stringIcSt11char_traitsIcESaIcEEEEEEEE12parse_numberILb1ELc45ELNS0_16number_precisionE1EEEPKcSH_St17integral_constantIbXT_EESI_IcXT0_EESI_ISF_XT1_EE
FNA:5,0,_ZN5boost4json12basic_parserINS0_6detail12into_handlerISt5tupleIJifNSt7__cxx1112basic_stringIcSt11char_traitsIcESaIcEEEEEEEE12parse_numberILb1ELc45ELNS0_16number_precisionE2EEEPKcSH_St17integral_constantIbXT_EESI_IcXT0_EESI_ISF_XT1_EE
FNA:5,14,_ZN5boost4json12basic_parserINS0_6detail12into_handlerISt5tupleIJifNSt7__cxx1112basic_stringIcSt11char_traitsIcESaIcEEEEEEEE12parse_numberILb1ELc48ELNS0_16number_precisionE0EEEPKcSH_St17integral_constantIbXT_EESI_IcXT0_EESI_ISF_XT1_EE
FNA:5,0,_ZN5boost4json12basic_parserINS0_6detail12into_handlerISt5tupleIJifNSt7__cxx1112basic_stringIcSt11char_traitsIcESaIcEEEEEEEE12parse_numberILb1ELc48ELNS0_16number_precisionE1EEEPKcSH_St17integral_constantIbXT_EESI_IcXT0_EESI_ISF_XT1_EE
FNA:5,0,_ZN5boost4json12basic_parserINS0_6detail12into_handlerISt5tupleIJifNSt7__cxx1112basic_stringIcSt11char_traitsIcESaIcEEEEEEEE12parse_numberILb1ELc48ELNS0_16number_precisionE2EEEPKcSH_St17integral_constantIbXT_EESI_IcXT0_EESI_ISF_XT1_EE
FNA:5,2,_ZN5boost4json12basic_parserINS0_6detail12into_handlerISt5tupleIJiiiEEEEE12parse_numberILb0ELc0ELNS0_16number_precisionE0EEEPKcSB_St17integral_constantIbXT_EESC_IcXT0_EESC_IS9_XT1_EE
FNA:5,0,_ZN5boost4json12basic_parserINS0_6detail12into_handlerISt5tupleIJiiiEEEEE12parse_numberILb0ELc0ELNS0_16number_precisionE1EEEPKcSB_St17integral_constantIbXT_EESC_IcXT0_EESC_IS9_XT1_EE
FNA:5,0,_ZN5boost4json12basic_parserINS0_6detail12into_handlerISt5tupleIJiiiEEEEE12parse_numberILb0ELc0ELNS0_16number_precisionE2EEEPKcSB_St17integral_constantIbXT_EESC_IcXT0_EESC_IS9_XT1_EE
FNA:5,4,_ZN5boost4json12basic_parserINS0_6detail12into_handlerISt5tupleIJiiiEEEEE12parse_numberILb1ELc43ELNS0_16number_precisionE0EEEPKcSB_St17integral_constantIbXT_EESC_IcXT0_EESC_IS9_XT1_EE
FNA:5,0,_ZN5boost4json12basic_parserINS0_6detail12into_handlerISt5tupleIJiiiEEEEE12parse_numberILb1ELc43ELNS0_16number_precisionE1EEEPKcSB_St17integral_constantIbXT_EESC_IcXT0_EESC_IS9_XT1_EE
FNA:5,0,_ZN5boost4json12basic_parserINS0_6detail12into_handlerISt5tupleIJiiiEEEEE12parse_numberILb1ELc43ELNS0_16number_precisionE2EEEPKcSB_St17integral_constantIbXT_EESC_IcXT0_EESC_IS9_XT1_EE
FNA:5,0,_ZN5boost4json12basic_parserINS0_6detail12into_handlerISt5tupleIJiiiEEEEE12parse_numberILb1ELc45ELNS0_16number_precisionE0EEEPKcSB_St17integral_constantIbXT_EESC_IcXT0_EESC_IS9_XT1_EE
FNA:5,0,_ZN5boost4json12basic_parserINS0_6detail12into_handlerISt5tupleIJiiiEEEEE12parse_numberILb1ELc45ELNS0_16number_precisionE1EEEPKcSB_St17integral_constantIbXT_EESC_IcXT0_EESC_IS9_XT1_EE
FNA:5,0,_ZN5boost4json12basic_parserINS0_6detail12into_handlerISt5tupleIJiiiEEEEE12parse_numberILb1ELc45ELNS0_16number_precisionE2EEEPKcSB_St17integral_constantIbXT_EESC_IcXT0_EESC_IS9_XT1_EE
FNA:5,0,_ZN5boost4json12basic_parserINS0_6detail12into_handlerISt5tupleIJiiiEEEEE12parse_numberILb1ELc48ELNS0_16number_precisionE0EEEPKcSB_St17integral_constantIbXT_EESC_IcXT0_EESC_IS9_XT1_EE
FNA:5,0,_ZN5boost4json12basic_parserINS0_6detail12into_handlerISt5tupleIJiiiEEEEE12parse_numberILb1ELc48ELNS0_16number_precisionE1EEEPKcSB_St17integral_constantIbXT_EESC_IcXT0_EESC_IS9_XT1_EE
FNA:5,0,_ZN5boost4json12basic_parserINS0_6detail12into_handlerISt5tupleIJiiiEEEEE12parse_numberILb1ELc48ELNS0_16number_precisionE2EEEPKcSB_St17integral_constantIbXT_EESC_IcXT0_EESC_IS9_XT1_EE
FNA:5,0,_ZN5boost4json12basic_parserINS0_6detail12into_handlerISt6vectorIDnSaIDnEEEEE12parse_numberILb0ELc0ELNS0_16number_precisionE0EEEPKcSC_St17integral_constantIbXT_EESD_IcXT0_EESD_ISA_XT1_EE
FNA:5,0,_ZN5boost4json12basic_parserINS0_6detail12into_handlerISt6vectorIDnSaIDnEEEEE12parse_numberILb0ELc0ELNS0_16number_precisionE1EEEPKcSC_St17integral_constantIbXT_EESD_IcXT0_EESD_ISA_XT1_EE
FNA:5,0,_ZN5boost4json12basic_parserINS0_6detail12into_handlerISt6vectorIDnSaIDnEEEEE12parse_numberILb0ELc0ELNS0_16number_precisionE2EEEPKcSC_St17integral_constantIbXT_EESD_IcXT0_EESD_ISA_XT1_EE
FNA:5,0,_ZN5boost4json12basic_parserINS0_6detail12into_handlerISt6vectorIDnSaIDnEEEEE12parse_numberILb1ELc43ELNS0_16number_precisionE0EEEPKcSC_St17integral_constantIbXT_EESD_IcXT0_EESD_ISA_XT1_EE
FNA:5,0,_ZN5boost4json12basic_parserINS0_6detail12into_handlerISt6vectorIDnSaIDnEEEEE12parse_numberILb1ELc43ELNS0_16number_precisionE1EEEPKcSC_St17integral_constantIbXT_EESD_IcXT0_EESD_ISA_XT1_EE
FNA:5,0,_ZN5boost4json12basic_parserINS0_6detail12into_handlerISt6vectorIDnSaIDnEEEEE12parse_numberILb1ELc43ELNS0_16number_precisionE2EEEPKcSC_St17integral_constantIbXT_EESD_IcXT0_EESD_ISA_XT1_EE
FNA:5,0,_ZN5boost4json12basic_parserINS0_6detail12into_handlerISt6vectorIDnSaIDnEEEEE12parse_numberILb1ELc45ELNS0_16number_precisionE0EEEPKcSC_St17integral_constantIbXT_EESD_IcXT0_EESD_ISA_XT1_EE
FNA:5,0,_ZN5boost4json12basic_parserINS0_6detail12into_handlerISt6vectorIDnSaIDnEEEEE12parse_numberILb1ELc45ELNS0_16number_precisionE1EEEPKcSC_St17integral_constantIbXT_EESD_IcXT0_EESD_ISA_XT1_EE
FNA:5,0,_ZN5boost4json12basic_parserINS0_6detail12into_handlerISt6vectorIDnSaIDnEEEEE12parse_numberILb1ELc45ELNS0_16number_precisionE2EEEPKcSC_St17integral_constantIbXT_EESD_IcXT0_EESD_ISA_XT1_EE
FNA:5,0,_ZN5boost4json12basic_parserINS0_6detail12into_handlerISt6vectorIDnSaIDnEEEEE12parse_numberILb1ELc48ELNS0_16number_precisionE0EEEPKcSC_St17integral_constantIbXT_EESD_IcXT0_EESD_ISA_XT1_EE
FNA:5,0,_ZN5boost4json12basic_parserINS0_6detail12into_handlerISt6vectorIDnSaIDnEEEEE12parse_numberILb1ELc48ELNS0_16number_precisionE1EEEPKcSC_St17integral_constantIbXT_EESD_IcXT0_EESD_ISA_XT1_EE
FNA:5,0,_ZN5boost4json12basic_parserINS0_6detail12into_handlerISt6vectorIDnSaIDnEEEEE12parse_numberILb1ELc48ELNS0_16number_precisionE2EEEPKcSC_St17integral_constantIbXT_EESD_IcXT0_EESD_ISA_XT1_EE
FNA:5,5,_ZN5boost4json12basic_parserINS0_6detail12into_handlerISt6vectorINS_8variant27variantIJiNSt7__cxx1112basic_stringIcSt11char_traitsIcESaIcEEEEEESaISD_EEEEE12parse_numberILb0ELc0ELNS0_16number_precisionE0EEEPKcSL_St17integral_constantIbXT_EESM_IcXT0_EESM_ISJ_XT1_EE
FNA:5,0,_ZN5boost4json12basic_parserINS0_6detail12into_handlerISt6vectorINS_8variant27variantIJiNSt7__cxx1112basic_stringIcSt11char_traitsIcESaIcEEEEEESaISD_EEEEE12parse_numberILb0ELc0ELNS0_16number_precisionE1EEEPKcSL_St17integral_constantIbXT_EESM_IcXT0_EESM_ISJ_XT1_EE
FNA:5,0,_ZN5boost4json12basic_parserINS0_6detail12into_handlerISt6vectorINS_8variant27variantIJiNSt7__cxx1112basic_stringIcSt11char_traitsIcESaIcEEEEEESaISD_EEEEE12parse_numberILb0ELc0ELNS0_16number_precisionE2EEEPKcSL_St17integral_constantIbXT_EESM_IcXT0_EESM_ISJ_XT1_EE
FNA:5,35,_ZN5boost4json12basic_parserINS0_6detail12into_handlerISt6vectorINS_8variant27variantIJiNSt7__cxx1112basic_stringIcSt11char_traitsIcESaIcEEEEEESaISD_EEEEE12parse_numberILb1ELc43ELNS0_16number_precisionE0EEEPKcSL_St17integral_constantIbXT_EESM_IcXT0_EESM_ISJ_XT1_EE
FNA:5,0,_ZN5boost4json12basic_parserINS0_6detail12into_handlerISt6vectorINS_8variant27variantIJiNSt7__cxx1112basic_stringIcSt11char_traitsIcESaIcEEEEEESaISD_EEEEE12parse_numberILb1ELc43ELNS0_16number_precisionE1EEEPKcSL_St17integral_constantIbXT_EESM_IcXT0_EESM_ISJ_XT1_EE
FNA:5,0,_ZN5boost4json12basic_parserINS0_6detail12into_handlerISt6vectorINS_8variant27variantIJiNSt7__cxx1112basic_stringIcSt11char_traitsIcESaIcEEEEEESaISD_EEEEE12parse_numberILb1ELc43ELNS0_16number_precisionE2EEEPKcSL_St17integral_constantIbXT_EESM_IcXT0_EESM_ISJ_XT1_EE
FNA:5,0,_ZN5boost4json12basic_parserINS0_6detail12into_handlerISt6vectorINS_8variant27variantIJiNSt7__cxx1112basic_stringIcSt11char_traitsIcESaIcEEEEEESaISD_EEEEE12parse_numberILb1ELc45ELNS0_16number_precisionE0EEEPKcSL_St17integral_constantIbXT_EESM_IcXT0_EESM_ISJ_XT1_EE
FNA:5,0,_ZN5boost4json12basic_parserINS0_6detail12into_handlerISt6vectorINS_8variant27variantIJiNSt7__cxx1112basic_stringIcSt11char_traitsIcESaIcEEEEEESaISD_EEEEE12parse_numberILb1ELc45ELNS0_16number_precisionE1EEEPKcSL_St17integral_constantIbXT_EESM_IcXT0_EESM_ISJ_XT1_EE
FNA:5,0,_ZN5boost4json12basic_parserINS0_6detail12into_handlerISt6vectorINS_8variant27variantIJiNSt7__cxx1112basic_stringIcSt11char_traitsIcESaIcEEEEEESaISD_EEEEE12parse_numberILb1ELc45ELNS0_16number_precisionE2EEEPKcSL_St17integral_constantIbXT_EESM_IcXT0_EESM_ISJ_XT1_EE
FNA:5,0,_ZN5boost4json12basic_parserINS0_6detail12into_handlerISt6vectorINS_8variant27variantIJiNSt7__cxx1112basic_stringIcSt11char_traitsIcESaIcEEEEEESaISD_EEEEE12parse_numberILb1ELc48ELNS0_16number_precisionE0EEEPKcSL_St17integral_constantIbXT_EESM_IcXT0_EESM_ISJ_XT1_EE
FNA:5,0,_ZN5boost4json12basic_parserINS0_6detail12into_handlerISt6vectorINS_8variant27variantIJiNSt7__cxx1112basic_stringIcSt11char_traitsIcESaIcEEEEEESaISD_EEEEE12parse_numberILb1ELc48ELNS0_16number_precisionE1EEEPKcSL_St17integral_constantIbXT_EESM_IcXT0_EESM_ISJ_XT1_EE
FNA:5,0,_ZN5boost4json12basic_parserINS0_6detail12into_handlerISt6vectorINS_8variant27variantIJiNSt7__cxx1112basic_stringIcSt11char_traitsIcESaIcEEEEEESaISD_EEEEE12parse_numberILb1ELc48ELNS0_16number_precisionE2EEEPKcSL_St17integral_constantIbXT_EESM_IcXT0_EESM_ISJ_XT1_EE
FNA:5,0,_ZN5boost4json12basic_parserINS0_6detail12into_handlerISt6vectorINSt7__cxx1112basic_stringIcSt11char_traitsIcESaIcEEESaISA_EEEEE12parse_numberILb0ELc0ELNS0_16number_precisionE0EEEPKcSI_St17integral_constantIbXT_EESJ_IcXT0_EESJ_ISG_XT1_EE
FNA:5,0,_ZN5boost4json12basic_parserINS0_6detail12into_handlerISt6vectorINSt7__cxx1112basic_stringIcSt11char_traitsIcESaIcEEESaISA_EEEEE12parse_numberILb0ELc0ELNS0_16number_precisionE1EEEPKcSI_St17integral_constantIbXT_EESJ_IcXT0_EESJ_ISG_XT1_EE
FNA:5,0,_ZN5boost4json12basic_parserINS0_6detail12into_handlerISt6vectorINSt7__cxx1112basic_stringIcSt11char_traitsIcESaIcEEESaISA_EEEEE12parse_numberILb0ELc0ELNS0_16number_precisionE2EEEPKcSI_St17integral_constantIbXT_EESJ_IcXT0_EESJ_ISG_XT1_EE
FNA:5,0,_ZN5boost4json12basic_parserINS0_6detail12into_handlerISt6vectorINSt7__cxx1112basic_stringIcSt11char_traitsIcESaIcEEESaISA_EEEEE12parse_numberILb1ELc43ELNS0_16number_precisionE0EEEPKcSI_St17integral_constantIbXT_EESJ_IcXT0_EESJ_ISG_XT1_EE
FNA:5,0,_ZN5boost4json12basic_parserINS0_6detail12into_handlerISt6vectorINSt7__cxx1112basic_stringIcSt11char_traitsIcESaIcEEESaISA_EEEEE12parse_numberILb1ELc43ELNS0_16number_precisionE1EEEPKcSI_St17integral_constantIbXT_EESJ_IcXT0_EESJ_ISG_XT1_EE
FNA:5,0,_ZN5boost4json12basic_parserINS0_6detail12into_handlerISt6vectorINSt7__cxx1112basic_stringIcSt11char_traitsIcESaIcEEESaISA_EEEEE12parse_numberILb1ELc43ELNS0_16number_precisionE2EEEPKcSI_St17integral_constantIbXT_EESJ_IcXT0_EESJ_ISG_XT1_EE
FNA:5,0,_ZN5boost4json12basic_parserINS0_6detail12into_handlerISt6vectorINSt7__cxx1112basic_stringIcSt11char_traitsIcESaIcEEESaISA_EEEEE12parse_numberILb1ELc45ELNS0_16number_precisionE0EEEPKcSI_St17integral_constantIbXT_EESJ_IcXT0_EESJ_ISG_XT1_EE
FNA:5,0,_ZN5boost4json12basic_parserINS0_6detail12into_handlerISt6vectorINSt7__cxx1112basic_stringIcSt11char_traitsIcESaIcEEESaISA_EEEEE12parse_numberILb1ELc45ELNS0_16number_precisionE1EEEPKcSI_St17integral_constantIbXT_EESJ_IcXT0_EESJ_ISG_XT1_EE
FNA:5,0,_ZN5boost4json12basic_parserINS0_6detail12into_handlerISt6vectorINSt7__cxx1112basic_stringIcSt11char_traitsIcESaIcEEESaISA_EEEEE12parse_numberILb1ELc45ELNS0_16number_precisionE2EEEPKcSI_St17integral_constantIbXT_EESJ_IcXT0_EESJ_ISG_XT1_EE
FNA:5,0,_ZN5boost4json12basic_parserINS0_6detail12into_handlerISt6vectorINSt7__cxx1112basic_stringIcSt11char_traitsIcESaIcEEESaISA_EEEEE12parse_numberILb1ELc48ELNS0_16number_precisionE0EEEPKcSI_St17integral_constantIbXT_EESJ_IcXT0_EESJ_ISG_XT1_EE
FNA:5,0,_ZN5boost4json12basic_parserINS0_6detail12into_handlerISt6vectorINSt7__cxx1112basic_stringIcSt11char_traitsIcESaIcEEESaISA_EEEEE12parse_numberILb1ELc48ELNS0_16number_precisionE1EEEPKcSI_St17integral_constantIbXT_EESJ_IcXT0_EESJ_ISG_XT1_EE
FNA:5,0,_ZN5boost4json12basic_parserINS0_6detail12into_handlerISt6vectorINSt7__cxx1112basic_stringIcSt11char_traitsIcESaIcEEESaISA_EEEEE12parse_numberILb1ELc48ELNS0_16number_precisionE2EEEPKcSI_St17integral_constantIbXT_EESJ_IcXT0_EESJ_ISG_XT1_EE
FNA:5,12,_ZN5boost4json12basic_parserINS0_6detail12into_handlerISt6vectorIS4_ISt4pairIiiESaIS6_EESaIS8_EEEEE12parse_numberILb0ELc0ELNS0_16number_precisionE0EEEPKcSG_St17integral_constantIbXT_EESH_IcXT0_EESH_ISE_XT1_EE
FNA:5,0,_ZN5boost4json12basic_parserINS0_6detail12into_handlerISt6vectorIS4_ISt4pairIiiESaIS6_EESaIS8_EEEEE12parse_numberILb0ELc0ELNS0_16number_precisionE1EEEPKcSG_St17integral_constantIbXT_EESH_IcXT0_EESH_ISE_XT1_EE
FNA:5,0,_ZN5boost4json12basic_parserINS0_6detail12into_handlerISt6vectorIS4_ISt4pairIiiESaIS6_EESaIS8_EEEEE12parse_numberILb0ELc0ELNS0_16number_precisionE2EEEPKcSG_St17integral_constantIbXT_EESH_IcXT0_EESH_ISE_XT1_EE
FNA:5,84,_ZN5boost4json12basic_parserINS0_6detail12into_handlerISt6vectorIS4_ISt4pairIiiESaIS6_EESaIS8_EEEEE12parse_numberILb1ELc43ELNS0_16number_precisionE0EEEPKcSG_St17integral_constantIbXT_EESH_IcXT0_EESH_ISE_XT1_EE
FNA:5,0,_ZN5boost4json12basic_parserINS0_6detail12into_handlerISt6vectorIS4_ISt4pairIiiESaIS6_EESaIS8_EEEEE12parse_numberILb1ELc43ELNS0_16number_precisionE1EEEPKcSG_St17integral_constantIbXT_EESH_IcXT0_EESH_ISE_XT1_EE
FNA:5,0,_ZN5boost4json12basic_parserINS0_6detail12into_handlerISt6vectorIS4_ISt4pairIiiESaIS6_EESaIS8_EEEEE12parse_numberILb1ELc43ELNS0_16number_precisionE2EEEPKcSG_St17integral_constantIbXT_EESH_IcXT0_EESH_ISE_XT1_EE
FNA:5,0,_ZN5boost4json12basic_parserINS0_6detail12into_handlerISt6vectorIS4_ISt4pairIiiESaIS6_EESaIS8_EEEEE12parse_numberILb1ELc45ELNS0_16number_precisionE0EEEPKcSG_St17integral_constantIbXT_EESH_IcXT0_EESH_ISE_XT1_EE
FNA:5,0,_ZN5boost4json12basic_parserINS0_6detail12into_handlerISt6vectorIS4_ISt4pairIiiESaIS6_EESaIS8_EEEEE12parse_numberILb1ELc45ELNS0_16number_precisionE1EEEPKcSG_St17integral_constantIbXT_EESH_IcXT0_EESH_ISE_XT1_EE
FNA:5,0,_ZN5boost4json12basic_parserINS0_6detail12into_handlerISt6vectorIS4_ISt4pairIiiESaIS6_EESaIS8_EEEEE12parse_numberILb1ELc45ELNS0_16number_precisionE2EEEPKcSG_St17integral_constantIbXT_EESH_IcXT0_EESH_ISE_XT1_EE
FNA:5,0,_ZN5boost4json12basic_parserINS0_6detail12into_handlerISt6vectorIS4_ISt4pairIiiESaIS6_EESaIS8_EEEEE12parse_numberILb1ELc48ELNS0_16number_precisionE0EEEPKcSG_St17integral_constantIbXT_EESH_IcXT0_EESH_ISE_XT1_EE
FNA:5,0,_ZN5boost4json12basic_parserINS0_6detail12into_handlerISt6vectorIS4_ISt4pairIiiESaIS6_EESaIS8_EEEEE12parse_numberILb1ELc48ELNS0_16number_precisionE1EEEPKcSG_St17integral_constantIbXT_EESH_IcXT0_EESH_ISE_XT1_EE
FNA:5,0,_ZN5boost4json12basic_parserINS0_6detail12into_handlerISt6vectorIS4_ISt4pairIiiESaIS6_EESaIS8_EEEEE12parse_numberILb1ELc48ELNS0_16number_precisionE2EEEPKcSG_St17integral_constantIbXT_EESH_IcXT0_EESH_ISE_XT1_EE
FNA:5,6,_ZN5boost4json12basic_parserINS0_6detail12into_handlerISt6vectorIS4_IiSaIiEESaIS6_EEEEE12parse_numberILb0ELc0ELNS0_16number_precisionE0EEEPKcSE_St17integral_constantIbXT_EESF_IcXT0_EESF_ISC_XT1_EE
FNA:5,0,_ZN5boost4json12basic_parserINS0_6detail12into_handlerISt6vectorIS4_IiSaIiEESaIS6_EEEEE12parse_numberILb0ELc0ELNS0_16number_precisionE1EEEPKcSE_St17integral_constantIbXT_EESF_IcXT0_EESF_ISC_XT1_EE
FNA:5,0,_ZN5boost4json12basic_parserINS0_6detail12into_handlerISt6vectorIS4_IiSaIiEESaIS6_EEEEE12parse_numberILb0ELc0ELNS0_16number_precisionE2EEEPKcSE_St17integral_constantIbXT_EESF_IcXT0_EESF_ISC_XT1_EE
FNA:5,44,_ZN5boost4json12basic_parserINS0_6detail12into_handlerISt6vectorIS4_IiSaIiEESaIS6_EEEEE12parse_numberILb1ELc43ELNS0_16number_precisionE0EEEPKcSE_St17integral_constantIbXT_EESF_IcXT0_EESF_ISC_XT1_EE
FNA:5,0,_ZN5boost4json12basic_parserINS0_6detail12into_handlerISt6vectorIS4_IiSaIiEESaIS6_EEEEE12parse_numberILb1ELc43ELNS0_16number_precisionE1EEEPKcSE_St17integral_constantIbXT_EESF_IcXT0_EESF_ISC_XT1_EE
FNA:5,0,_ZN5boost4json12basic_parserINS0_6detail12into_handlerISt6vectorIS4_IiSaIiEESaIS6_EEEEE12parse_numberILb1ELc43ELNS0_16number_precisionE2EEEPKcSE_St17integral_constantIbXT_EESF_IcXT0_EESF_ISC_XT1_EE
FNA:5,0,_ZN5boost4json12basic_parserINS0_6detail12into_handlerISt6vectorIS4_IiSaIiEESaIS6_EEEEE12parse_numberILb1ELc45ELNS0_16number_precisionE0EEEPKcSE_St17integral_constantIbXT_EESF_IcXT0_EESF_ISC_XT1_EE
FNA:5,0,_ZN5boost4json12basic_parserINS0_6detail12into_handlerISt6vectorIS4_IiSaIiEESaIS6_EEEEE12parse_numberILb1ELc45ELNS0_16number_precisionE1EEEPKcSE_St17integral_constantIbXT_EESF_IcXT0_EESF_ISC_XT1_EE
FNA:5,0,_ZN5boost4json12basic_parserINS0_6detail12into_handlerISt6vectorIS4_IiSaIiEESaIS6_EEEEE12parse_numberILb1ELc45ELNS0_16number_precisionE2EEEPKcSE_St17integral_constantIbXT_EESF_IcXT0_EESF_ISC_XT1_EE
FNA:5,0,_ZN5boost4json12basic_parserINS0_6detail12into_handlerISt6vectorIS4_IiSaIiEESaIS6_EEEEE12parse_numberILb1ELc48ELNS0_16number_precisionE0EEEPKcSE_St17integral_constantIbXT_EESF_IcXT0_EESF_ISC_XT1_EE
FNA:5,0,_ZN5boost4json12basic_parserINS0_6detail12into_handlerISt6vectorIS4_IiSaIiEESaIS6_EEEEE12parse_numberILb1ELc48ELNS0_16number_precisionE1EEEPKcSE_St17integral_constantIbXT_EESF_IcXT0_EESF_ISC_XT1_EE
FNA:5,0,_ZN5boost4json12basic_parserINS0_6detail12into_handlerISt6vectorIS4_IiSaIiEESaIS6_EEEEE12parse_numberILb1ELc48ELNS0_16number_precisionE2EEEPKcSE_St17integral_constantIbXT_EESF_IcXT0_EESF_ISC_XT1_EE
FNA:5,3,_ZN5boost4json12basic_parserINS0_6detail12into_handlerISt6vectorISt3mapINSt7__cxx1112basic_stringIcSt11char_traitsIcESaIcEEEiSt4lessISB_ESaISt4pairIKSB_iEEESaISI_EEEEE12parse_numberILb0ELc0ELNS0_16number_precisionE0EEEPKcSQ_St17integral_constantIbXT_EESR_IcXT0_EESR_ISO_XT1_EE
FNA:5,0,_ZN5boost4json12basic_parserINS0_6detail12into_handlerISt6vectorISt3mapINSt7__cxx1112basic_stringIcSt11char_traitsIcESaIcEEEiSt4lessISB_ESaISt4pairIKSB_iEEESaISI_EEEEE12parse_numberILb0ELc0ELNS0_16number_precisionE1EEEPKcSQ_St17integral_constantIbXT_EESR_IcXT0_EESR_ISO_XT1_EE
FNA:5,0,_ZN5boost4json12basic_parserINS0_6detail12into_handlerISt6vectorISt3mapINSt7__cxx1112basic_stringIcSt11char_traitsIcESaIcEEEiSt4lessISB_ESaISt4pairIKSB_iEEESaISI_EEEEE12parse_numberILb0ELc0ELNS0_16number_precisionE2EEEPKcSQ_St17integral_constantIbXT_EESR_IcXT0_EESR_ISO_XT1_EE
FNA:5,21,_ZN5boost4json12basic_parserINS0_6detail12into_handlerISt6vectorISt3mapINSt7__cxx1112basic_stringIcSt11char_traitsIcESaIcEEEiSt4lessISB_ESaISt4pairIKSB_iEEESaISI_EEEEE12parse_numberILb1ELc43ELNS0_16number_precisionE0EEEPKcSQ_St17integral_constantIbXT_EESR_IcXT0_EESR_ISO_XT1_EE
FNA:5,0,_ZN5boost4json12basic_parserINS0_6detail12into_handlerISt6vectorISt3mapINSt7__cxx1112basic_stringIcSt11char_traitsIcESaIcEEEiSt4lessISB_ESaISt4pairIKSB_iEEESaISI_EEEEE12parse_numberILb1ELc43ELNS0_16number_precisionE1EEEPKcSQ_St17integral_constantIbXT_EESR_IcXT0_EESR_ISO_XT1_EE
FNA:5,0,_ZN5boost4json12basic_parserINS0_6detail12into_handlerISt6vectorISt3mapINSt7__cxx1112basic_stringIcSt11char_traitsIcESaIcEEEiSt4lessISB_ESaISt4pairIKSB_iEEESaISI_EEEEE12parse_numberILb1ELc43ELNS0_16number_precisionE2EEEPKcSQ_St17integral_constantIbXT_EESR_IcXT0_EESR_ISO_XT1_EE
FNA:5,0,_ZN5boost4json12basic_parserINS0_6detail12into_handlerISt6vectorISt3mapINSt7__cxx1112basic_stringIcSt11char_traitsIcESaIcEEEiSt4lessISB_ESaISt4pairIKSB_iEEESaISI_EEEEE12parse_numberILb1ELc45ELNS0_16number_precisionE0EEEPKcSQ_St17integral_constantIbXT_EESR_IcXT0_EESR_ISO_XT1_EE
FNA:5,0,_ZN5boost4json12basic_parserINS0_6detail12into_handlerISt6vectorISt3mapINSt7__cxx1112basic_stringIcSt11char_traitsIcESaIcEEEiSt4lessISB_ESaISt4pairIKSB_iEEESaISI_EEEEE12parse_numberILb1ELc45ELNS0_16number_precisionE1EEEPKcSQ_St17integral_constantIbXT_EESR_IcXT0_EESR_ISO_XT1_EE
FNA:5,0,_ZN5boost4json12basic_parserINS0_6detail12into_handlerISt6vectorISt3mapINSt7__cxx1112basic_stringIcSt11char_traitsIcESaIcEEEiSt4lessISB_ESaISt4pairIKSB_iEEESaISI_EEEEE12parse_numberILb1ELc45ELNS0_16number_precisionE2EEEPKcSQ_St17integral_constantIbXT_EESR_IcXT0_EESR_ISO_XT1_EE
FNA:5,0,_ZN5boost4json12basic_parserINS0_6detail12into_handlerISt6vectorISt3mapINSt7__cxx1112basic_stringIcSt11char_traitsIcESaIcEEEiSt4lessISB_ESaISt4pairIKSB_iEEESaISI_EEEEE12parse_numberILb1ELc48ELNS0_16number_precisionE0EEEPKcSQ_St17integral_constantIbXT_EESR_IcXT0_EESR_ISO_XT1_EE
FNA:5,0,_ZN5boost4json12basic_parserINS0_6detail12into_handlerISt6vectorISt3mapINSt7__cxx1112basic_stringIcSt11char_traitsIcESaIcEEEiSt4lessISB_ESaISt4pairIKSB_iEEESaISI_EEEEE12parse_numberILb1ELc48ELNS0_16number_precisionE1EEEPKcSQ_St17integral_constantIbXT_EESR_IcXT0_EESR_ISO_XT1_EE
FNA:5,0,_ZN5boost4json12basic_parserINS0_6detail12into_handlerISt6vectorISt3mapINSt7__cxx1112basic_stringIcSt11char_traitsIcESaIcEEEiSt4lessISB_ESaISt4pairIKSB_iEEESaISI_EEEEE12parse_numberILb1ELc48ELNS0_16number_precisionE2EEEPKcSQ_St17integral_constantIbXT_EESR_IcXT0_EESR_ISO_XT1_EE
FNA:5,4,_ZN5boost4json12basic_parserINS0_6detail12into_handlerISt6vectorISt4pairIiiESaIS6_EEEEE12parse_numberILb0ELc0ELNS0_16number_precisionE0EEEPKcSE_St17integral_constantIbXT_EESF_IcXT0_EESF_ISC_XT1_EE
FNA:5,0,_ZN5boost4json12basic_parserINS0_6detail12into_handlerISt6vectorISt4pairIiiESaIS6_EEEEE12parse_numberILb0ELc0ELNS0_16number_precisionE1EEEPKcSE_St17integral_constantIbXT_EESF_IcXT0_EESF_ISC_XT1_EE
FNA:5,0,_ZN5boost4json12basic_parserINS0_6detail12into_handlerISt6vectorISt4pairIiiESaIS6_EEEEE12parse_numberILb0ELc0ELNS0_16number_precisionE2EEEPKcSE_St17integral_constantIbXT_EESF_IcXT0_EESF_ISC_XT1_EE
FNA:5,28,_ZN5boost4json12basic_parserINS0_6detail12into_handlerISt6vectorISt4pairIiiESaIS6_EEEEE12parse_numberILb1ELc43ELNS0_16number_precisionE0EEEPKcSE_St17integral_constantIbXT_EESF_IcXT0_EESF_ISC_XT1_EE
FNA:5,0,_ZN5boost4json12basic_parserINS0_6detail12into_handlerISt6vectorISt4pairIiiESaIS6_EEEEE12parse_numberILb1ELc43ELNS0_16number_precisionE1EEEPKcSE_St17integral_constantIbXT_EESF_IcXT0_EESF_ISC_XT1_EE
FNA:5,0,_ZN5boost4json12basic_parserINS0_6detail12into_handlerISt6vectorISt4pairIiiESaIS6_EEEEE12parse_numberILb1ELc43ELNS0_16number_precisionE2EEEPKcSE_St17integral_constantIbXT_EESF_IcXT0_EESF_ISC_XT1_EE
FNA:5,0,_ZN5boost4json12basic_parserINS0_6detail12into_handlerISt6vectorISt4pairIiiESaIS6_EEEEE12parse_numberILb1ELc45ELNS0_16number_precisionE0EEEPKcSE_St17integral_constantIbXT_EESF_IcXT0_EESF_ISC_XT1_EE
FNA:5,0,_ZN5boost4json12basic_parserINS0_6detail12into_handlerISt6vectorISt4pairIiiESaIS6_EEEEE12parse_numberILb1ELc45ELNS0_16number_precisionE1EEEPKcSE_St17integral_constantIbXT_EESF_IcXT0_EESF_ISC_XT1_EE
FNA:5,0,_ZN5boost4json12basic_parserINS0_6detail12into_handlerISt6vectorISt4pairIiiESaIS6_EEEEE12parse_numberILb1ELc45ELNS0_16number_precisionE2EEEPKcSE_St17integral_constantIbXT_EESF_IcXT0_EESF_ISC_XT1_EE
FNA:5,0,_ZN5boost4json12basic_parserINS0_6detail12into_handlerISt6vectorISt4pairIiiESaIS6_EEEEE12parse_numberILb1ELc48ELNS0_16number_precisionE0EEEPKcSE_St17integral_constantIbXT_EESF_IcXT0_EESF_ISC_XT1_EE
FNA:5,0,_ZN5boost4json12basic_parserINS0_6detail12into_handlerISt6vectorISt4pairIiiESaIS6_EEEEE12parse_numberILb1ELc48ELNS0_16number_precisionE1EEEPKcSE_St17integral_constantIbXT_EESF_IcXT0_EESF_ISC_XT1_EE
FNA:5,0,_ZN5boost4json12basic_parserINS0_6detail12into_handlerISt6vectorISt4pairIiiESaIS6_EEEEE12parse_numberILb1ELc48ELNS0_16number_precisionE2EEEPKcSE_St17integral_constantIbXT_EESF_IcXT0_EESF_ISC_XT1_EE
FNA:5,24,_ZN5boost4json12basic_parserINS0_6detail12into_handlerISt6vectorISt5arrayIiLm4EESaIS6_EEEEE12parse_numberILb0ELc0ELNS0_16number_precisionE0EEEPKcSE_St17integral_constantIbXT_EESF_IcXT0_EESF_ISC_XT1_EE
FNA:5,0,_ZN5boost4json12basic_parserINS0_6detail12into_handlerISt6vectorISt5arrayIiLm4EESaIS6_EEEEE12parse_numberILb0ELc0ELNS0_16number_precisionE1EEEPKcSE_St17integral_constantIbXT_EESF_IcXT0_EESF_ISC_XT1_EE
FNA:5,0,_ZN5boost4json12basic_parserINS0_6detail12into_handlerISt6vectorISt5arrayIiLm4EESaIS6_EEEEE12parse_numberILb0ELc0ELNS0_16number_precisionE2EEEPKcSE_St17integral_constantIbXT_EESF_IcXT0_EESF_ISC_XT1_EE
FNA:5,84,_ZN5boost4json12basic_parserINS0_6detail12into_handlerISt6vectorISt5arrayIiLm4EESaIS6_EEEEE12parse_numberILb1ELc43ELNS0_16number_precisionE0EEEPKcSE_St17integral_constantIbXT_EESF_IcXT0_EESF_ISC_XT1_EE
FNA:5,0,_ZN5boost4json12basic_parserINS0_6detail12into_handlerISt6vectorISt5arrayIiLm4EESaIS6_EEEEE12parse_numberILb1ELc43ELNS0_16number_precisionE1EEEPKcSE_St17integral_constantIbXT_EESF_IcXT0_EESF_ISC_XT1_EE
FNA:5,0,_ZN5boost4json12basic_parserINS0_6detail12into_handlerISt6vectorISt5arrayIiLm4EESaIS6_EEEEE12parse_numberILb1ELc43ELNS0_16number_precisionE2EEEPKcSE_St17integral_constantIbXT_EESF_IcXT0_EESF_ISC_XT1_EE
FNA:5,0,_ZN5boost4json12basic_parserINS0_6detail12into_handlerISt6vectorISt5arrayIiLm4EESaIS6_EEEEE12parse_numberILb1ELc45ELNS0_16number_precisionE0EEEPKcSE_St17integral_constantIbXT_EESF_IcXT0_EESF_ISC_XT1_EE
FNA:5,0,_ZN5boost4json12basic_parserINS0_6detail12into_handlerISt6vectorISt5arrayIiLm4EESaIS6_EEEEE12parse_numberILb1ELc45ELNS0_16number_precisionE1EEEPKcSE_St17integral_constantIbXT_EESF_IcXT0_EESF_ISC_XT1_EE
FNA:5,0,_ZN5boost4json12basic_parserINS0_6detail12into_handlerISt6vectorISt5arrayIiLm4EESaIS6_EEEEE12parse_numberILb1ELc45ELNS0_16number_precisionE2EEEPKcSE_St17integral_constantIbXT_EESF_IcXT0_EESF_ISC_XT1_EE
FNA:5,0,_ZN5boost4json12basic_parserINS0_6detail12into_handlerISt6vectorISt5arrayIiLm4EESaIS6_EEEEE12parse_numberILb1ELc48ELNS0_16number_precisionE0EEEPKcSE_St17integral_constantIbXT_EESF_IcXT0_EESF_ISC_XT1_EE
FNA:5,0,_ZN5boost4json12basic_parserINS0_6detail12into_handlerISt6vectorISt5arrayIiLm4EESaIS6_EEEEE12parse_numberILb1ELc48ELNS0_16number_precisionE1EEEPKcSE_St17integral_constantIbXT_EESF_IcXT0_EESF_ISC_XT1_EE
FNA:5,0,_ZN5boost4json12basic_parserINS0_6detail12into_handlerISt6vectorISt5arrayIiLm4EESaIS6_EEEEE12parse_numberILb1ELc48ELNS0_16number_precisionE2EEEPKcSE_St17integral_constantIbXT_EESF_IcXT0_EESF_ISC_XT1_EE
FNA:5,0,_ZN5boost4json12basic_parserINS0_6detail12into_handlerISt6vectorIbSaIbEEEEE12parse_numberILb0ELc0ELNS0_16number_precisionE0EEEPKcSC_St17integral_constantIbXT_EESD_IcXT0_EESD_ISA_XT1_EE
FNA:5,0,_ZN5boost4json12basic_parserINS0_6detail12into_handlerISt6vectorIbSaIbEEEEE12parse_numberILb0ELc0ELNS0_16number_precisionE1EEEPKcSC_St17integral_constantIbXT_EESD_IcXT0_EESD_ISA_XT1_EE
FNA:5,0,_ZN5boost4json12basic_parserINS0_6detail12into_handlerISt6vectorIbSaIbEEEEE12parse_numberILb0ELc0ELNS0_16number_precisionE2EEEPKcSC_St17integral_constantIbXT_EESD_IcXT0_EESD_ISA_XT1_EE
FNA:5,0,_ZN5boost4json12basic_parserINS0_6detail12into_handlerISt6vectorIbSaIbEEEEE12parse_numberILb1ELc43ELNS0_16number_precisionE0EEEPKcSC_St17integral_constantIbXT_EESD_IcXT0_EESD_ISA_XT1_EE
FNA:5,0,_ZN5boost4json12basic_parserINS0_6detail12into_handlerISt6vectorIbSaIbEEEEE12parse_numberILb1ELc43ELNS0_16number_precisionE1EEEPKcSC_St17integral_constantIbXT_EESD_IcXT0_EESD_ISA_XT1_EE
FNA:5,0,_ZN5boost4json12basic_parserINS0_6detail12into_handlerISt6vectorIbSaIbEEEEE12parse_numberILb1ELc43ELNS0_16number_precisionE2EEEPKcSC_St17integral_constantIbXT_EESD_IcXT0_EESD_ISA_XT1_EE
FNA:5,0,_ZN5boost4json12basic_parserINS0_6detail12into_handlerISt6vectorIbSaIbEEEEE12parse_numberILb1ELc45ELNS0_16number_precisionE0EEEPKcSC_St17integral_constantIbXT_EESD_IcXT0_EESD_ISA_XT1_EE
FNA:5,0,_ZN5boost4json12basic_parserINS0_6detail12into_handlerISt6vectorIbSaIbEEEEE12parse_numberILb1ELc45ELNS0_16number_precisionE1EEEPKcSC_St17integral_constantIbXT_EESD_IcXT0_EESD_ISA_XT1_EE
FNA:5,0,_ZN5boost4json12basic_parserINS0_6detail12into_handlerISt6vectorIbSaIbEEEEE12parse_numberILb1ELc45ELNS0_16number_precisionE2EEEPKcSC_St17integral_constantIbXT_EESD_IcXT0_EESD_ISA_XT1_EE
FNA:5,0,_ZN5boost4json12basic_parserINS0_6detail12into_handlerISt6vectorIbSaIbEEEEE12parse_numberILb1ELc48ELNS0_16number_precisionE0EEEPKcSC_St17integral_constantIbXT_EESD_IcXT0_EESD_ISA_XT1_EE
FNA:5,0,_ZN5boost4json12basic_parserINS0_6detail12into_handlerISt6vectorIbSaIbEEEEE12parse_numberILb1ELc48ELNS0_16number_precisionE1EEEPKcSC_St17integral_constantIbXT_EESD_IcXT0_EESD_ISA_XT1_EE
FNA:5,0,_ZN5boost4json12basic_parserINS0_6detail12into_handlerISt6vectorIbSaIbEEEEE12parse_numberILb1ELc48ELNS0_16number_precisionE2EEEPKcSC_St17integral_constantIbXT_EESD_IcXT0_EESD_ISA_XT1_EE
FNA:5,0,_ZN5boost4json12basic_parserINS0_6detail12into_handlerISt6vectorIcSaIcEEEEE12parse_numberILb0ELc0ELNS0_16number_precisionE0EEEPKcSC_St17integral_constantIbXT_EESD_IcXT0_EESD_ISA_XT1_EE
FNA:5,0,_ZN5boost4json12basic_parserINS0_6detail12into_handlerISt6vectorIcSaIcEEEEE12parse_numberILb0ELc0ELNS0_16number_precisionE1EEEPKcSC_St17integral_constantIbXT_EESD_IcXT0_EESD_ISA_XT1_EE
FNA:5,0,_ZN5boost4json12basic_parserINS0_6detail12into_handlerISt6vectorIcSaIcEEEEE12parse_numberILb0ELc0ELNS0_16number_precisionE2EEEPKcSC_St17integral_constantIbXT_EESD_IcXT0_EESD_ISA_XT1_EE
FNA:5,0,_ZN5boost4json12basic_parserINS0_6detail12into_handlerISt6vectorIcSaIcEEEEE12parse_numberILb1ELc43ELNS0_16number_precisionE0EEEPKcSC_St17integral_constantIbXT_EESD_IcXT0_EESD_ISA_XT1_EE
FNA:5,0,_ZN5boost4json12basic_parserINS0_6detail12into_handlerISt6vectorIcSaIcEEEEE12parse_numberILb1ELc43ELNS0_16number_precisionE1EEEPKcSC_St17integral_constantIbXT_EESD_IcXT0_EESD_ISA_XT1_EE
FNA:5,0,_ZN5boost4json12basic_parserINS0_6detail12into_handlerISt6vectorIcSaIcEEEEE12parse_numberILb1ELc43ELNS0_16number_precisionE2EEEPKcSC_St17integral_constantIbXT_EESD_IcXT0_EESD_ISA_XT1_EE
FNA:5,0,_ZN5boost4json12basic_parserINS0_6detail12into_handlerISt6vectorIcSaIcEEEEE12parse_numberILb1ELc45ELNS0_16number_precisionE0EEEPKcSC_St17integral_constantIbXT_EESD_IcXT0_EESD_ISA_XT1_EE
FNA:5,0,_ZN5boost4json12basic_parserINS0_6detail12into_handlerISt6vectorIcSaIcEEEEE12parse_numberILb1ELc45ELNS0_16number_precisionE1EEEPKcSC_St17integral_constantIbXT_EESD_IcXT0_EESD_ISA_XT1_EE
FNA:5,0,_ZN5boost4json12basic_parserINS0_6detail12into_handlerISt6vectorIcSaIcEEEEE12parse_numberILb1ELc45ELNS0_16number_precisionE2EEEPKcSC_St17integral_constantIbXT_EESD_IcXT0_EESD_ISA_XT1_EE
FNA:5,0,_ZN5boost4json12basic_parserINS0_6detail12into_handlerISt6vectorIcSaIcEEEEE12parse_numberILb1ELc48ELNS0_16number_precisionE0EEEPKcSC_St17integral_constantIbXT_EESD_IcXT0_EESD_ISA_XT1_EE
FNA:5,0,_ZN5boost4json12basic_parserINS0_6detail12into_handlerISt6vectorIcSaIcEEEEE12parse_numberILb1ELc48ELNS0_16number_precisionE1EEEPKcSC_St17integral_constantIbXT_EESD_IcXT0_EESD_ISA_XT1_EE
FNA:5,0,_ZN5boost4json12basic_parserINS0_6detail12into_handlerISt6vectorIcSaIcEEEEE12parse_numberILb1ELc48ELNS0_16number_precisionE2EEEPKcSC_St17integral_constantIbXT_EESD_IcXT0_EESD_ISA_XT1_EE
FNA:5,58,_ZN5boost4json12basic_parserINS0_6detail12into_handlerISt6vectorIfSaIfEEEEE12parse_numberILb0ELc0ELNS0_16number_precisionE0EEEPKcSC_St17integral_constantIbXT_EESD_IcXT0_EESD_ISA_XT1_EE
FNA:5,0,_ZN5boost4json12basic_parserINS0_6detail12into_handlerISt6vectorIfSaIfEEEEE12parse_numberILb0ELc0ELNS0_16number_precisionE1EEEPKcSC_St17integral_constantIbXT_EESD_IcXT0_EESD_ISA_XT1_EE
FNA:5,0,_ZN5boost4json12basic_parserINS0_6detail12into_handlerISt6vectorIfSaIfEEEEE12parse_numberILb0ELc0ELNS0_16number_precisionE2EEEPKcSC_St17integral_constantIbXT_EESD_IcXT0_EESD_ISA_XT1_EE
FNA:5,21,_ZN5boost4json12basic_parserINS0_6detail12into_handlerISt6vectorIfSaIfEEEEE12parse_numberILb1ELc43ELNS0_16number_precisionE0EEEPKcSC_St17integral_constantIbXT_EESD_IcXT0_EESD_ISA_XT1_EE
FNA:5,0,_ZN5boost4json12basic_parserINS0_6detail12into_handlerISt6vectorIfSaIfEEEEE12parse_numberILb1ELc43ELNS0_16number_precisionE1EEEPKcSC_St17integral_constantIbXT_EESD_IcXT0_EESD_ISA_XT1_EE
FNA:5,0,_ZN5boost4json12basic_parserINS0_6detail12into_handlerISt6vectorIfSaIfEEEEE12parse_numberILb1ELc43ELNS0_16number_precisionE2EEEPKcSC_St17integral_constantIbXT_EESD_IcXT0_EESD_ISA_XT1_EE
FNA:5,0,_ZN5boost4json12basic_parserINS0_6detail12into_handlerISt6vectorIfSaIfEEEEE12parse_numberILb1ELc45ELNS0_16number_precisionE0EEEPKcSC_St17integral_constantIbXT_EESD_IcXT0_EESD_ISA_XT1_EE
FNA:5,0,_ZN5boost4json12basic_parserINS0_6detail12into_handlerISt6vectorIfSaIfEEEEE12parse_numberILb1ELc45ELNS0_16number_precisionE1EEEPKcSC_St17integral_constantIbXT_EESD_IcXT0_EESD_ISA_XT1_EE
FNA:5,0,_ZN5boost4json12basic_parserINS0_6detail12into_handlerISt6vectorIfSaIfEEEEE12parse_numberILb1ELc45ELNS0_16number_precisionE2EEEPKcSC_St17integral_constantIbXT_EESD_IcXT0_EESD_ISA_XT1_EE
FNA:5,0,_ZN5boost4json12basic_parserINS0_6detail12into_handlerISt6vectorIfSaIfEEEEE12parse_numberILb1ELc48ELNS0_16number_precisionE0EEEPKcSC_St17integral_constantIbXT_EESD_IcXT0_EESD_ISA_XT1_EE
FNA:5,0,_ZN5boost4json12basic_parserINS0_6detail12into_handlerISt6vectorIfSaIfEEEEE12parse_numberILb1ELc48ELNS0_16number_precisionE1EEEPKcSC_St17integral_constantIbXT_EESD_IcXT0_EESD_ISA_XT1_EE
FNA:5,0,_ZN5boost4json12basic_parserINS0_6detail12into_handlerISt6vectorIfSaIfEEEEE12parse_numberILb1ELc48ELNS0_16number_precisionE2EEEPKcSC_St17integral_constantIbXT_EESD_IcXT0_EESD_ISA_XT1_EE
FNA:5,3,_ZN5boost4json12basic_parserINS0_6detail12into_handlerISt6vectorIiSaIiEEEEE12parse_numberILb0ELc0ELNS0_16number_precisionE0EEEPKcSC_St17integral_constantIbXT_EESD_IcXT0_EESD_ISA_XT1_EE
FNA:5,0,_ZN5boost4json12basic_parserINS0_6detail12into_handlerISt6vectorIiSaIiEEEEE12parse_numberILb0ELc0ELNS0_16number_precisionE1EEEPKcSC_St17integral_constantIbXT_EESD_IcXT0_EESD_ISA_XT1_EE
FNA:5,0,_ZN5boost4json12basic_parserINS0_6detail12into_handlerISt6vectorIiSaIiEEEEE12parse_numberILb0ELc0ELNS0_16number_precisionE2EEEPKcSC_St17integral_constantIbXT_EESD_IcXT0_EESD_ISA_XT1_EE
FNA:5,30,_ZN5boost4json12basic_parserINS0_6detail12into_handlerISt6vectorIiSaIiEEEEE12parse_numberILb1ELc43ELNS0_16number_precisionE0EEEPKcSC_St17integral_constantIbXT_EESD_IcXT0_EESD_ISA_XT1_EE
FNA:5,0,_ZN5boost4json12basic_parserINS0_6detail12into_handlerISt6vectorIiSaIiEEEEE12parse_numberILb1ELc43ELNS0_16number_precisionE1EEEPKcSC_St17integral_constantIbXT_EESD_IcXT0_EESD_ISA_XT1_EE
FNA:5,0,_ZN5boost4json12basic_parserINS0_6detail12into_handlerISt6vectorIiSaIiEEEEE12parse_numberILb1ELc43ELNS0_16number_precisionE2EEEPKcSC_St17integral_constantIbXT_EESD_IcXT0_EESD_ISA_XT1_EE
FNA:5,0,_ZN5boost4json12basic_parserINS0_6detail12into_handlerISt6vectorIiSaIiEEEEE12parse_numberILb1ELc45ELNS0_16number_precisionE0EEEPKcSC_St17integral_constantIbXT_EESD_IcXT0_EESD_ISA_XT1_EE
FNA:5,0,_ZN5boost4json12basic_parserINS0_6detail12into_handlerISt6vectorIiSaIiEEEEE12parse_numberILb1ELc45ELNS0_16number_precisionE1EEEPKcSC_St17integral_constantIbXT_EESD_IcXT0_EESD_ISA_XT1_EE
FNA:5,0,_ZN5boost4json12basic_parserINS0_6detail12into_handlerISt6vectorIiSaIiEEEEE12parse_numberILb1ELc45ELNS0_16number_precisionE2EEEPKcSC_St17integral_constantIbXT_EESD_IcXT0_EESD_ISA_XT1_EE
FNA:5,0,_ZN5boost4json12basic_parserINS0_6detail12into_handlerISt6vectorIiSaIiEEEEE12parse_numberILb1ELc48ELNS0_16number_precisionE0EEEPKcSC_St17integral_constantIbXT_EESD_IcXT0_EESD_ISA_XT1_EE
FNA:5,0,_ZN5boost4json12basic_parserINS0_6detail12into_handlerISt6vectorIiSaIiEEEEE12parse_numberILb1ELc48ELNS0_16number_precisionE1EEEPKcSC_St17integral_constantIbXT_EESD_IcXT0_EESD_ISA_XT1_EE
FNA:5,0,_ZN5boost4json12basic_parserINS0_6detail12into_handlerISt6vectorIiSaIiEEEEE12parse_numberILb1ELc48ELNS0_16number_precisionE2EEEPKcSC_St17integral_constantIbXT_EESD_IcXT0_EESD_ISA_XT1_EE
FNA:5,22,_ZN5boost4json12basic_parserINS0_6detail12into_handlerISt6vectorImSaImEEEEE12parse_numberILb0ELc0ELNS0_16number_precisionE0EEEPKcSC_St17integral_constantIbXT_EESD_IcXT0_EESD_ISA_XT1_EE
FNA:5,0,_ZN5boost4json12basic_parserINS0_6detail12into_handlerISt6vectorImSaImEEEEE12parse_numberILb0ELc0ELNS0_16number_precisionE1EEEPKcSC_St17integral_constantIbXT_EESD_IcXT0_EESD_ISA_XT1_EE
FNA:5,0,_ZN5boost4json12basic_parserINS0_6detail12into_handlerISt6vectorImSaImEEEEE12parse_numberILb0ELc0ELNS0_16number_precisionE2EEEPKcSC_St17integral_constantIbXT_EESD_IcXT0_EESD_ISA_XT1_EE
FNA:5,21,_ZN5boost4json12basic_parserINS0_6detail12into_handlerISt6vectorImSaImEEEEE12parse_numberILb1ELc43ELNS0_16number_precisionE0EEEPKcSC_St17integral_constantIbXT_EESD_IcXT0_EESD_ISA_XT1_EE
FNA:5,0,_ZN5boost4json12basic_parserINS0_6detail12into_handlerISt6vectorImSaImEEEEE12parse_numberILb1ELc43ELNS0_16number_precisionE1EEEPKcSC_St17integral_constantIbXT_EESD_IcXT0_EESD_ISA_XT1_EE
FNA:5,0,_ZN5boost4json12basic_parserINS0_6detail12into_handlerISt6vectorImSaImEEEEE12parse_numberILb1ELc43ELNS0_16number_precisionE2EEEPKcSC_St17integral_constantIbXT_EESD_IcXT0_EESD_ISA_XT1_EE
FNA:5,0,_ZN5boost4json12basic_parserINS0_6detail12into_handlerISt6vectorImSaImEEEEE12parse_numberILb1ELc45ELNS0_16number_precisionE0EEEPKcSC_St17integral_constantIbXT_EESD_IcXT0_EESD_ISA_XT1_EE
FNA:5,0,_ZN5boost4json12basic_parserINS0_6detail12into_handlerISt6vectorImSaImEEEEE12parse_numberILb1ELc45ELNS0_16number_precisionE1EEEPKcSC_St17integral_constantIbXT_EESD_IcXT0_EESD_ISA_XT1_EE
FNA:5,0,_ZN5boost4json12basic_parserINS0_6detail12into_handlerISt6vectorImSaImEEEEE12parse_numberILb1ELc45ELNS0_16number_precisionE2EEEPKcSC_St17integral_constantIbXT_EESD_IcXT0_EESD_ISA_XT1_EE
FNA:5,0,_ZN5boost4json12basic_parserINS0_6detail12into_handlerISt6vectorImSaImEEEEE12parse_numberILb1ELc48ELNS0_16number_precisionE0EEEPKcSC_St17integral_constantIbXT_EESD_IcXT0_EESD_ISA_XT1_EE
FNA:5,0,_ZN5boost4json12basic_parserINS0_6detail12into_handlerISt6vectorImSaImEEEEE12parse_numberILb1ELc48ELNS0_16number_precisionE1EEEPKcSC_St17integral_constantIbXT_EESD_IcXT0_EESD_ISA_XT1_EE
FNA:5,0,_ZN5boost4json12basic_parserINS0_6detail12into_handlerISt6vectorImSaImEEEEE12parse_numberILb1ELc48ELNS0_16number_precisionE2EEEPKcSC_St17integral_constantIbXT_EESD_IcXT0_EESD_ISA_XT1_EE
FNA:5,7,_ZN5boost4json12basic_parserINS0_6detail12into_handlerIaEEE12parse_numberILb0ELc0ELNS0_16number_precisionE0EEEPKcS9_St17integral_constantIbXT_EESA_IcXT0_EESA_IS7_XT1_EE
FNA:5,0,_ZN5boost4json12basic_parserINS0_6detail12into_handlerIaEEE12parse_numberILb0ELc0ELNS0_16number_precisionE1EEEPKcS9_St17integral_constantIbXT_EESA_IcXT0_EESA_IS7_XT1_EE
FNA:5,0,_ZN5boost4json12basic_parserINS0_6detail12into_handlerIaEEE12parse_numberILb0ELc0ELNS0_16number_precisionE2EEEPKcS9_St17integral_constantIbXT_EESA_IcXT0_EESA_IS7_XT1_EE
FNA:5,0,_ZN5boost4json12basic_parserINS0_6detail12into_handlerIaEEE12parse_numberILb1ELc43ELNS0_16number_precisionE0EEEPKcS9_St17integral_constantIbXT_EESA_IcXT0_EESA_IS7_XT1_EE
FNA:5,0,_ZN5boost4json12basic_parserINS0_6detail12into_handlerIaEEE12parse_numberILb1ELc43ELNS0_16number_precisionE1EEEPKcS9_St17integral_constantIbXT_EESA_IcXT0_EESA_IS7_XT1_EE
FNA:5,0,_ZN5boost4json12basic_parserINS0_6detail12into_handlerIaEEE12parse_numberILb1ELc43ELNS0_16number_precisionE2EEEPKcS9_St17integral_constantIbXT_EESA_IcXT0_EESA_IS7_XT1_EE
FNA:5,7,_ZN5boost4json12basic_parserINS0_6detail12into_handlerIaEEE12parse_numberILb1ELc45ELNS0_16number_precisionE0EEEPKcS9_St17integral_constantIbXT_EESA_IcXT0_EESA_IS7_XT1_EE
FNA:5,0,_ZN5boost4json12basic_parserINS0_6detail12into_handlerIaEEE12parse_numberILb1ELc45ELNS0_16number_precisionE1EEEPKcS9_St17integral_constantIbXT_EESA_IcXT0_EESA_IS7_XT1_EE
FNA:5,0,_ZN5boost4json12basic_parserINS0_6detail12into_handlerIaEEE12parse_numberILb1ELc45ELNS0_16number_precisionE2EEEPKcS9_St17integral_constantIbXT_EESA_IcXT0_EESA_IS7_XT1_EE
FNA:5,0,_ZN5boost4json12basic_parserINS0_6detail12into_handlerIaEEE12parse_numberILb1ELc48ELNS0_16number_precisionE0EEEPKcS9_St17integral_constantIbXT_EESA_IcXT0_EESA_IS7_XT1_EE
FNA:5,0,_ZN5boost4json12basic_parserINS0_6detail12into_handlerIaEEE12parse_numberILb1ELc48ELNS0_16number_precisionE1EEEPKcS9_St17integral_constantIbXT_EESA_IcXT0_EESA_IS7_XT1_EE
FNA:5,0,_ZN5boost4json12basic_parserINS0_6detail12into_handlerIaEEE12parse_numberILb1ELc48ELNS0_16number_precisionE2EEEPKcS9_St17integral_constantIbXT_EESA_IcXT0_EESA_IS7_XT1_EE
FNA:5,0,_ZN5boost4json12basic_parserINS0_6detail12into_handlerIbEEE12parse_numberILb0ELc0ELNS0_16number_precisionE0EEEPKcS9_St17integral_constantIbXT_EESA_IcXT0_EESA_IS7_XT1_EE
FNA:5,0,_ZN5boost4json12basic_parserINS0_6detail12into_handlerIbEEE12parse_numberILb0ELc0ELNS0_16number_precisionE1EEEPKcS9_St17integral_constantIbXT_EESA_IcXT0_EESA_IS7_XT1_EE
FNA:5,0,_ZN5boost4json12basic_parserINS0_6detail12into_handlerIbEEE12parse_numberILb0ELc0ELNS0_16number_precisionE2EEEPKcS9_St17integral_constantIbXT_EESA_IcXT0_EESA_IS7_XT1_EE
FNA:5,0,_ZN5boost4json12basic_parserINS0_6detail12into_handlerIbEEE12parse_numberILb1ELc43ELNS0_16number_precisionE0EEEPKcS9_St17integral_constantIbXT_EESA_IcXT0_EESA_IS7_XT1_EE
FNA:5,0,_ZN5boost4json12basic_parserINS0_6detail12into_handlerIbEEE12parse_numberILb1ELc43ELNS0_16number_precisionE1EEEPKcS9_St17integral_constantIbXT_EESA_IcXT0_EESA_IS7_XT1_EE
FNA:5,0,_ZN5boost4json12basic_parserINS0_6detail12into_handlerIbEEE12parse_numberILb1ELc43ELNS0_16number_precisionE2EEEPKcS9_St17integral_constantIbXT_EESA_IcXT0_EESA_IS7_XT1_EE
FNA:5,0,_ZN5boost4json12basic_parserINS0_6detail12into_handlerIbEEE12parse_numberILb1ELc45ELNS0_16number_precisionE0EEEPKcS9_St17integral_constantIbXT_EESA_IcXT0_EESA_IS7_XT1_EE
FNA:5,0,_ZN5boost4json12basic_parserINS0_6detail12into_handlerIbEEE12parse_numberILb1ELc45ELNS0_16number_precisionE1EEEPKcS9_St17integral_constantIbXT_EESA_IcXT0_EESA_IS7_XT1_EE
FNA:5,0,_ZN5boost4json12basic_parserINS0_6detail12into_handlerIbEEE12parse_numberILb1ELc45ELNS0_16number_precisionE2EEEPKcS9_St17integral_constantIbXT_EESA_IcXT0_EESA_IS7_XT1_EE
FNA:5,0,_ZN5boost4json12basic_parserINS0_6detail12into_handlerIbEEE12parse_numberILb1ELc48ELNS0_16number_precisionE0EEEPKcS9_St17integral_constantIbXT_EESA_IcXT0_EESA_IS7_XT1_EE
FNA:5,0,_ZN5boost4json12basic_parserINS0_6detail12into_handlerIbEEE12parse_numberILb1ELc48ELNS0_16number_precisionE1EEEPKcS9_St17integral_constantIbXT_EESA_IcXT0_EESA_IS7_XT1_EE
FNA:5,0,_ZN5boost4json12basic_parserINS0_6detail12into_handlerIbEEE12parse_numberILb1ELc48ELNS0_16number_precisionE2EEEPKcS9_St17integral_constantIbXT_EESA_IcXT0_EESA_IS7_XT1_EE
FNA:5,5,_ZN5boost4json12basic_parserINS0_6detail12into_handlerIcEEE12parse_numberILb0ELc0ELNS0_16number_precisionE0EEEPKcS9_St17integral_constantIbXT_EESA_IcXT0_EESA_IS7_XT1_EE
FNA:5,0,_ZN5boost4json12basic_parserINS0_6detail12into_handlerIcEEE12parse_numberILb0ELc0ELNS0_16number_precisionE1EEEPKcS9_St17integral_constantIbXT_EESA_IcXT0_EESA_IS7_XT1_EE
FNA:5,0,_ZN5boost4json12basic_parserINS0_6detail12into_handlerIcEEE12parse_numberILb0ELc0ELNS0_16number_precisionE2EEEPKcS9_St17integral_constantIbXT_EESA_IcXT0_EESA_IS7_XT1_EE
FNA:5,7,_ZN5boost4json12basic_parserINS0_6detail12into_handlerIcEEE12parse_numberILb1ELc43ELNS0_16number_precisionE0EEEPKcS9_St17integral_constantIbXT_EESA_IcXT0_EESA_IS7_XT1_EE
FNA:5,0,_ZN5boost4json12basic_parserINS0_6detail12into_handlerIcEEE12parse_numberILb1ELc43ELNS0_16number_precisionE1EEEPKcS9_St17integral_constantIbXT_EESA_IcXT0_EESA_IS7_XT1_EE
FNA:5,0,_ZN5boost4json12basic_parserINS0_6detail12into_handlerIcEEE12parse_numberILb1ELc43ELNS0_16number_precisionE2EEEPKcS9_St17integral_constantIbXT_EESA_IcXT0_EESA_IS7_XT1_EE
FNA:5,0,_ZN5boost4json12basic_parserINS0_6detail12into_handlerIcEEE12parse_numberILb1ELc45ELNS0_16number_precisionE0EEEPKcS9_St17integral_constantIbXT_EESA_IcXT0_EESA_IS7_XT1_EE
FNA:5,0,_ZN5boost4json12basic_parserINS0_6detail12into_handlerIcEEE12parse_numberILb1ELc45ELNS0_16number_precisionE1EEEPKcS9_St17integral_constantIbXT_EESA_IcXT0_EESA_IS7_XT1_EE
FNA:5,0,_ZN5boost4json12basic_parserINS0_6detail12into_handlerIcEEE12parse_numberILb1ELc45ELNS0_16number_precisionE2EEEPKcS9_St17integral_constantIbXT_EESA_IcXT0_EESA_IS7_XT1_EE
FNA:5,0,_ZN5boost4json12basic_parserINS0_6detail12into_handlerIcEEE12parse_numberILb1ELc48ELNS0_16number_precisionE0EEEPKcS9_St17integral_constantIbXT_EESA_IcXT0_EESA_IS7_XT1_EE
FNA:5,0,_ZN5boost4json12basic_parserINS0_6detail12into_handlerIcEEE12parse_numberILb1ELc48ELNS0_16number_precisionE1EEEPKcS9_St17integral_constantIbXT_EESA_IcXT0_EESA_IS7_XT1_EE
FNA:5,0,_ZN5boost4json12basic_parserINS0_6detail12into_handlerIcEEE12parse_numberILb1ELc48ELNS0_16number_precisionE2EEEPKcS9_St17integral_constantIbXT_EESA_IcXT0_EESA_IS7_XT1_EE
FNA:5,10,_ZN5boost4json12basic_parserINS0_6detail12into_handlerIdEEE12parse_numberILb0ELc0ELNS0_16number_precisionE0EEEPKcS9_St17integral_constantIbXT_EESA_IcXT0_EESA_IS7_XT1_EE
FNA:5,0,_ZN5boost4json12basic_parserINS0_6detail12into_handlerIdEEE12parse_numberILb0ELc0ELNS0_16number_precisionE1EEEPKcS9_St17integral_constantIbXT_EESA_IcXT0_EESA_IS7_XT1_EE
FNA:5,0,_ZN5boost4json12basic_parserINS0_6detail12into_handlerIdEEE12parse_numberILb0ELc0ELNS0_16number_precisionE2EEEPKcS9_St17integral_constantIbXT_EESA_IcXT0_EESA_IS7_XT1_EE
FNA:5,9,_ZN5boost4json12basic_parserINS0_6detail12into_handlerIdEEE12parse_numberILb1ELc43ELNS0_16number_precisionE0EEEPKcS9_St17integral_constantIbXT_EESA_IcXT0_EESA_IS7_XT1_EE
FNA:5,0,_ZN5boost4json12basic_parserINS0_6detail12into_handlerIdEEE12parse_numberILb1ELc43ELNS0_16number_precisionE1EEEPKcS9_St17integral_constantIbXT_EESA_IcXT0_EESA_IS7_XT1_EE
FNA:5,0,_ZN5boost4json12basic_parserINS0_6detail12into_handlerIdEEE12parse_numberILb1ELc43ELNS0_16number_precisionE2EEEPKcS9_St17integral_constantIbXT_EESA_IcXT0_EESA_IS7_XT1_EE
FNA:5,0,_ZN5boost4json12basic_parserINS0_6detail12into_handlerIdEEE12parse_numberILb1ELc45ELNS0_16number_precisionE0EEEPKcS9_St17integral_constantIbXT_EESA_IcXT0_EESA_IS7_XT1_EE
FNA:5,0,_ZN5boost4json12basic_parserINS0_6detail12into_handlerIdEEE12parse_numberILb1ELc45ELNS0_16number_precisionE1EEEPKcS9_St17integral_constantIbXT_EESA_IcXT0_EESA_IS7_XT1_EE
FNA:5,0,_ZN5boost4json12basic_parserINS0_6detail12into_handlerIdEEE12parse_numberILb1ELc45ELNS0_16number_precisionE2EEEPKcS9_St17integral_constantIbXT_EESA_IcXT0_EESA_IS7_XT1_EE
FNA:5,0,_ZN5boost4json12basic_parserINS0_6detail12into_handlerIdEEE12parse_numberILb1ELc48ELNS0_16number_precisionE0EEEPKcS9_St17integral_constantIbXT_EESA_IcXT0_EESA_IS7_XT1_EE
FNA:5,0,_ZN5boost4json12basic_parserINS0_6detail12into_handlerIdEEE12parse_numberILb1ELc48ELNS0_16number_precisionE1EEEPKcS9_St17integral_constantIbXT_EESA_IcXT0_EESA_IS7_XT1_EE
FNA:5,0,_ZN5boost4json12basic_parserINS0_6detail12into_handlerIdEEE12parse_numberILb1ELc48ELNS0_16number_precisionE2EEEPKcS9_St17integral_constantIbXT_EESA_IcXT0_EESA_IS7_XT1_EE
FNA:5,9,_ZN5boost4json12basic_parserINS0_6detail12into_handlerIfEEE12parse_numberILb0ELc0ELNS0_16number_precisionE0EEEPKcS9_St17integral_constantIbXT_EESA_IcXT0_EESA_IS7_XT1_EE
FNA:5,0,_ZN5boost4json12basic_parserINS0_6detail12into_handlerIfEEE12parse_numberILb0ELc0ELNS0_16number_precisionE1EEEPKcS9_St17integral_constantIbXT_EESA_IcXT0_EESA_IS7_XT1_EE
FNA:5,0,_ZN5boost4json12basic_parserINS0_6detail12into_handlerIfEEE12parse_numberILb0ELc0ELNS0_16number_precisionE2EEEPKcS9_St17integral_constantIbXT_EESA_IcXT0_EESA_IS7_XT1_EE
FNA:5,7,_ZN5boost4json12basic_parserINS0_6detail12into_handlerIfEEE12parse_numberILb1ELc43ELNS0_16number_precisionE0EEEPKcS9_St17integral_constantIbXT_EESA_IcXT0_EESA_IS7_XT1_EE
FNA:5,0,_ZN5boost4json12basic_parserINS0_6detail12into_handlerIfEEE12parse_numberILb1ELc43ELNS0_16number_precisionE1EEEPKcS9_St17integral_constantIbXT_EESA_IcXT0_EESA_IS7_XT1_EE
FNA:5,0,_ZN5boost4json12basic_parserINS0_6detail12into_handlerIfEEE12parse_numberILb1ELc43ELNS0_16number_precisionE2EEEPKcS9_St17integral_constantIbXT_EESA_IcXT0_EESA_IS7_XT1_EE
FNA:5,0,_ZN5boost4json12basic_parserINS0_6detail12into_handlerIfEEE12parse_numberILb1ELc45ELNS0_16number_precisionE0EEEPKcS9_St17integral_constantIbXT_EESA_IcXT0_EESA_IS7_XT1_EE
FNA:5,0,_ZN5boost4json12basic_parserINS0_6detail12into_handlerIfEEE12parse_numberILb1ELc45ELNS0_16number_precisionE1EEEPKcS9_St17integral_constantIbXT_EESA_IcXT0_EESA_IS7_XT1_EE
FNA:5,0,_ZN5boost4json12basic_parserINS0_6detail12into_handlerIfEEE12parse_numberILb1ELc45ELNS0_16number_precisionE2EEEPKcS9_St17integral_constantIbXT_EESA_IcXT0_EESA_IS7_XT1_EE
FNA:5,0,_ZN5boost4json12basic_parserINS0_6detail12into_handlerIfEEE12parse_numberILb1ELc48ELNS0_16number_precisionE0EEEPKcS9_St17integral_constantIbXT_EESA_IcXT0_EESA_IS7_XT1_EE
FNA:5,0,_ZN5boost4json12basic_parserINS0_6detail12into_handlerIfEEE12parse_numberILb1ELc48ELNS0_16number_precisionE1EEEPKcS9_St17integral_constantIbXT_EESA_IcXT0_EESA_IS7_XT1_EE
FNA:5,0,_ZN5boost4json12basic_parserINS0_6detail12into_handlerIfEEE12parse_numberILb1ELc48ELNS0_16number_precisionE2EEEPKcS9_St17integral_constantIbXT_EESA_IcXT0_EESA_IS7_XT1_EE
FNA:5,6,_ZN5boost4json12basic_parserINS0_6detail12into_handlerIhEEE12parse_numberILb0ELc0ELNS0_16number_precisionE0EEEPKcS9_St17integral_constantIbXT_EESA_IcXT0_EESA_IS7_XT1_EE
FNA:5,0,_ZN5boost4json12basic_parserINS0_6detail12into_handlerIhEEE12parse_numberILb0ELc0ELNS0_16number_precisionE1EEEPKcS9_St17integral_constantIbXT_EESA_IcXT0_EESA_IS7_XT1_EE
FNA:5,0,_ZN5boost4json12basic_parserINS0_6detail12into_handlerIhEEE12parse_numberILb0ELc0ELNS0_16number_precisionE2EEEPKcS9_St17integral_constantIbXT_EESA_IcXT0_EESA_IS7_XT1_EE
FNA:5,7,_ZN5boost4json12basic_parserINS0_6detail12into_handlerIhEEE12parse_numberILb1ELc43ELNS0_16number_precisionE0EEEPKcS9_St17integral_constantIbXT_EESA_IcXT0_EESA_IS7_XT1_EE
FNA:5,0,_ZN5boost4json12basic_parserINS0_6detail12into_handlerIhEEE12parse_numberILb1ELc43ELNS0_16number_precisionE1EEEPKcS9_St17integral_constantIbXT_EESA_IcXT0_EESA_IS7_XT1_EE
FNA:5,0,_ZN5boost4json12basic_parserINS0_6detail12into_handlerIhEEE12parse_numberILb1ELc43ELNS0_16number_precisionE2EEEPKcS9_St17integral_constantIbXT_EESA_IcXT0_EESA_IS7_XT1_EE
FNA:5,0,_ZN5boost4json12basic_parserINS0_6detail12into_handlerIhEEE12parse_numberILb1ELc45ELNS0_16number_precisionE0EEEPKcS9_St17integral_constantIbXT_EESA_IcXT0_EESA_IS7_XT1_EE
FNA:5,0,_ZN5boost4json12basic_parserINS0_6detail12into_handlerIhEEE12parse_numberILb1ELc45ELNS0_16number_precisionE1EEEPKcS9_St17integral_constantIbXT_EESA_IcXT0_EESA_IS7_XT1_EE
FNA:5,0,_ZN5boost4json12basic_parserINS0_6detail12into_handlerIhEEE12parse_numberILb1ELc45ELNS0_16number_precisionE2EEEPKcS9_St17integral_constantIbXT_EESA_IcXT0_EESA_IS7_XT1_EE
FNA:5,0,_ZN5boost4json12basic_parserINS0_6detail12into_handlerIhEEE12parse_numberILb1ELc48ELNS0_16number_precisionE0EEEPKcS9_St17integral_constantIbXT_EESA_IcXT0_EESA_IS7_XT1_EE
FNA:5,0,_ZN5boost4json12basic_parserINS0_6detail12into_handlerIhEEE12parse_numberILb1ELc48ELNS0_16number_precisionE1EEEPKcS9_St17integral_constantIbXT_EESA_IcXT0_EESA_IS7_XT1_EE
FNA:5,0,_ZN5boost4json12basic_parserINS0_6detail12into_handlerIhEEE12parse_numberILb1ELc48ELNS0_16number_precisionE2EEEPKcS9_St17integral_constantIbXT_EESA_IcXT0_EESA_IS7_XT1_EE
FNA:5,49,_ZN5boost4json12basic_parserINS0_6detail12into_handlerIiEEE12parse_numberILb0ELc0ELNS0_16number_precisionE0EEEPKcS9_St17integral_constantIbXT_EESA_IcXT0_EESA_IS7_XT1_EE
FNA:5,0,_ZN5boost4json12basic_parserINS0_6detail12into_handlerIiEEE12parse_numberILb0ELc0ELNS0_16number_precisionE1EEEPKcS9_St17integral_constantIbXT_EESA_IcXT0_EESA_IS7_XT1_EE
FNA:5,0,_ZN5boost4json12basic_parserINS0_6detail12into_handlerIiEEE12parse_numberILb0ELc0ELNS0_16number_precisionE2EEEPKcS9_St17integral_constantIbXT_EESA_IcXT0_EESA_IS7_XT1_EE
FNA:5,4,_ZN5boost4json12basic_parserINS0_6detail12into_handlerIiEEE12parse_numberILb1ELc43ELNS0_16number_precisionE0EEEPKcS9_St17integral_constantIbXT_EESA_IcXT0_EESA_IS7_XT1_EE
FNA:5,0,_ZN5boost4json12basic_parserINS0_6detail12into_handlerIiEEE12parse_numberILb1ELc43ELNS0_16number_precisionE1EEEPKcS9_St17integral_constantIbXT_EESA_IcXT0_EESA_IS7_XT1_EE
FNA:5,0,_ZN5boost4json12basic_parserINS0_6detail12into_handlerIiEEE12parse_numberILb1ELc43ELNS0_16number_precisionE2EEEPKcS9_St17integral_constantIbXT_EESA_IcXT0_EESA_IS7_XT1_EE
FNA:5,9,_ZN5boost4json12basic_parserINS0_6detail12into_handlerIiEEE12parse_numberILb1ELc45ELNS0_16number_precisionE0EEEPKcS9_St17integral_constantIbXT_EESA_IcXT0_EESA_IS7_XT1_EE
FNA:5,0,_ZN5boost4json12basic_parserINS0_6detail12into_handlerIiEEE12parse_numberILb1ELc45ELNS0_16number_precisionE1EEEPKcS9_St17integral_constantIbXT_EESA_IcXT0_EESA_IS7_XT1_EE
FNA:5,0,_ZN5boost4json12basic_parserINS0_6detail12into_handlerIiEEE12parse_numberILb1ELc45ELNS0_16number_precisionE2EEEPKcS9_St17integral_constantIbXT_EESA_IcXT0_EESA_IS7_XT1_EE
FNA:5,0,_ZN5boost4json12basic_parserINS0_6detail12into_handlerIiEEE12parse_numberILb1ELc48ELNS0_16number_precisionE0EEEPKcS9_St17integral_constantIbXT_EESA_IcXT0_EESA_IS7_XT1_EE
FNA:5,0,_ZN5boost4json12basic_parserINS0_6detail12into_handlerIiEEE12parse_numberILb1ELc48ELNS0_16number_precisionE1EEEPKcS9_St17integral_constantIbXT_EESA_IcXT0_EESA_IS7_XT1_EE
FNA:5,0,_ZN5boost4json12basic_parserINS0_6detail12into_handlerIiEEE12parse_numberILb1ELc48ELNS0_16number_precisionE2EEEPKcS9_St17integral_constantIbXT_EESA_IcXT0_EESA_IS7_XT1_EE
FNA:5,8,_ZN5boost4json12basic_parserINS0_6detail12into_handlerIjEEE12parse_numberILb0ELc0ELNS0_16number_precisionE0EEEPKcS9_St17integral_constantIbXT_EESA_IcXT0_EESA_IS7_XT1_EE
FNA:5,0,_ZN5boost4json12basic_parserINS0_6detail12into_handlerIjEEE12parse_numberILb0ELc0ELNS0_16number_precisionE1EEEPKcS9_St17integral_constantIbXT_EESA_IcXT0_EESA_IS7_XT1_EE
FNA:5,0,_ZN5boost4json12basic_parserINS0_6detail12into_handlerIjEEE12parse_numberILb0ELc0ELNS0_16number_precisionE2EEEPKcS9_St17integral_constantIbXT_EESA_IcXT0_EESA_IS7_XT1_EE
FNA:5,7,_ZN5boost4json12basic_parserINS0_6detail12into_handlerIjEEE12parse_numberILb1ELc43ELNS0_16number_precisionE0EEEPKcS9_St17integral_constantIbXT_EESA_IcXT0_EESA_IS7_XT1_EE
FNA:5,0,_ZN5boost4json12basic_parserINS0_6detail12into_handlerIjEEE12parse_numberILb1ELc43ELNS0_16number_precisionE1EEEPKcS9_St17integral_constantIbXT_EESA_IcXT0_EESA_IS7_XT1_EE
FNA:5,0,_ZN5boost4json12basic_parserINS0_6detail12into_handlerIjEEE12parse_numberILb1ELc43ELNS0_16number_precisionE2EEEPKcS9_St17integral_constantIbXT_EESA_IcXT0_EESA_IS7_XT1_EE
FNA:5,0,_ZN5boost4json12basic_parserINS0_6detail12into_handlerIjEEE12parse_numberILb1ELc45ELNS0_16number_precisionE0EEEPKcS9_St17integral_constantIbXT_EESA_IcXT0_EESA_IS7_XT1_EE
FNA:5,0,_ZN5boost4json12basic_parserINS0_6detail12into_handlerIjEEE12parse_numberILb1ELc45ELNS0_16number_precisionE1EEEPKcS9_St17integral_constantIbXT_EESA_IcXT0_EESA_IS7_XT1_EE
FNA:5,0,_ZN5boost4json12basic_parserINS0_6detail12into_handlerIjEEE12parse_numberILb1ELc45ELNS0_16number_precisionE2EEEPKcS9_St17integral_constantIbXT_EESA_IcXT0_EESA_IS7_XT1_EE
FNA:5,0,_ZN5boost4json12basic_parserINS0_6detail12into_handlerIjEEE12parse_numberILb1ELc48ELNS0_16number_precisionE0EEEPKcS9_St17integral_constantIbXT_EESA_IcXT0_EESA_IS7_XT1_EE
FNA:5,0,_ZN5boost4json12basic_parserINS0_6detail12into_handlerIjEEE12parse_numberILb1ELc48ELNS0_16number_precisionE1EEEPKcS9_St17integral_constantIbXT_EESA_IcXT0_EESA_IS7_XT1_EE
FNA:5,0,_ZN5boost4json12basic_parserINS0_6detail12into_handlerIjEEE12parse_numberILb1ELc48ELNS0_16number_precisionE2EEEPKcS9_St17integral_constantIbXT_EESA_IcXT0_EESA_IS7_XT1_EE
FNA:5,23,_ZN5boost4json12basic_parserINS0_6detail12into_handlerIlEEE12parse_numberILb0ELc0ELNS0_16number_precisionE0EEEPKcS9_St17integral_constantIbXT_EESA_IcXT0_EESA_IS7_XT1_EE
FNA:5,0,_ZN5boost4json12basic_parserINS0_6detail12into_handlerIlEEE12parse_numberILb0ELc0ELNS0_16number_precisionE1EEEPKcS9_St17integral_constantIbXT_EESA_IcXT0_EESA_IS7_XT1_EE
FNA:5,0,_ZN5boost4json12basic_parserINS0_6detail12into_handlerIlEEE12parse_numberILb0ELc0ELNS0_16number_precisionE2EEEPKcS9_St17integral_constantIbXT_EESA_IcXT0_EESA_IS7_XT1_EE
FNA:5,0,_ZN5boost4json12basic_parserINS0_6detail12into_handlerIlEEE12parse_numberILb1ELc43ELNS0_16number_precisionE0EEEPKcS9_St17integral_constantIbXT_EESA_IcXT0_EESA_IS7_XT1_EE
FNA:5,0,_ZN5boost4json12basic_parserINS0_6detail12into_handlerIlEEE12parse_numberILb1ELc43ELNS0_16number_precisionE1EEEPKcS9_St17integral_constantIbXT_EESA_IcXT0_EESA_IS7_XT1_EE
FNA:5,0,_ZN5boost4json12basic_parserINS0_6detail12into_handlerIlEEE12parse_numberILb1ELc43ELNS0_16number_precisionE2EEEPKcS9_St17integral_constantIbXT_EESA_IcXT0_EESA_IS7_XT1_EE
FNA:5,7,_ZN5boost4json12basic_parserINS0_6detail12into_handlerIlEEE12parse_numberILb1ELc45ELNS0_16number_precisionE0EEEPKcS9_St17integral_constantIbXT_EESA_IcXT0_EESA_IS7_XT1_EE
FNA:5,0,_ZN5boost4json12basic_parserINS0_6detail12into_handlerIlEEE12parse_numberILb1ELc45ELNS0_16number_precisionE1EEEPKcS9_St17integral_constantIbXT_EESA_IcXT0_EESA_IS7_XT1_EE
FNA:5,0,_ZN5boost4json12basic_parserINS0_6detail12into_handlerIlEEE12parse_numberILb1ELc45ELNS0_16number_precisionE2EEEPKcS9_St17integral_constantIbXT_EESA_IcXT0_EESA_IS7_XT1_EE
FNA:5,0,_ZN5boost4json12basic_parserINS0_6detail12into_handlerIlEEE12parse_numberILb1ELc48ELNS0_16number_precisionE0EEEPKcS9_St17integral_constantIbXT_EESA_IcXT0_EESA_IS7_XT1_EE
FNA:5,0,_ZN5boost4json12basic_parserINS0_6detail12into_handlerIlEEE12parse_numberILb1ELc48ELNS0_16number_precisionE1EEEPKcS9_St17integral_constantIbXT_EESA_IcXT0_EESA_IS7_XT1_EE
FNA:5,0,_ZN5boost4json12basic_parserINS0_6detail12into_handlerIlEEE12parse_numberILb1ELc48ELNS0_16number_precisionE2EEEPKcS9_St17integral_constantIbXT_EESA_IcXT0_EESA_IS7_XT1_EE
FNA:5,23,_ZN5boost4json12basic_parserINS0_6detail12into_handlerImEEE12parse_numberILb0ELc0ELNS0_16number_precisionE0EEEPKcS9_St17integral_constantIbXT_EESA_IcXT0_EESA_IS7_XT1_EE
FNA:5,0,_ZN5boost4json12basic_parserINS0_6detail12into_handlerImEEE12parse_numberILb0ELc0ELNS0_16number_precisionE1EEEPKcS9_St17integral_constantIbXT_EESA_IcXT0_EESA_IS7_XT1_EE
FNA:5,0,_ZN5boost4json12basic_parserINS0_6detail12into_handlerImEEE12parse_numberILb0ELc0ELNS0_16number_precisionE2EEEPKcS9_St17integral_constantIbXT_EESA_IcXT0_EESA_IS7_XT1_EE
FNA:5,7,_ZN5boost4json12basic_parserINS0_6detail12into_handlerImEEE12parse_numberILb1ELc43ELNS0_16number_precisionE0EEEPKcS9_St17integral_constantIbXT_EESA_IcXT0_EESA_IS7_XT1_EE
FNA:5,0,_ZN5boost4json12basic_parserINS0_6detail12into_handlerImEEE12parse_numberILb1ELc43ELNS0_16number_precisionE1EEEPKcS9_St17integral_constantIbXT_EESA_IcXT0_EESA_IS7_XT1_EE
FNA:5,0,_ZN5boost4json12basic_parserINS0_6detail12into_handlerImEEE12parse_numberILb1ELc43ELNS0_16number_precisionE2EEEPKcS9_St17integral_constantIbXT_EESA_IcXT0_EESA_IS7_XT1_EE
FNA:5,0,_ZN5boost4json12basic_parserINS0_6detail12into_handlerImEEE12parse_numberILb1ELc45ELNS0_16number_precisionE0EEEPKcS9_St17integral_constantIbXT_EESA_IcXT0_EESA_IS7_XT1_EE
FNA:5,0,_ZN5boost4json12basic_parserINS0_6detail12into_handlerImEEE12parse_numberILb1ELc45ELNS0_16number_precisionE1EEEPKcS9_St17integral_constantIbXT_EESA_IcXT0_EESA_IS7_XT1_EE
FNA:5,0,_ZN5boost4json12basic_parserINS0_6detail12into_handlerImEEE12parse_numberILb1ELc45ELNS0_16number_precisionE2EEEPKcS9_St17integral_constantIbXT_EESA_IcXT0_EESA_IS7_XT1_EE
FNA:5,0,_ZN5boost4json12basic_parserINS0_6detail12into_handlerImEEE12parse_numberILb1ELc48ELNS0_16number_precisionE0EEEPKcS9_St17integral_constantIbXT_EESA_IcXT0_EESA_IS7_XT1_EE
FNA:5,0,_ZN5boost4json12basic_parserINS0_6detail12into_handlerImEEE12parse_numberILb1ELc48ELNS0_16number_precisionE1EEEPKcS9_St17integral_constantIbXT_EESA_IcXT0_EESA_IS7_XT1_EE
FNA:5,0,_ZN5boost4json12basic_parserINS0_6detail12into_handlerImEEE12parse_numberILb1ELc48ELNS0_16number_precisionE2EEEPKcS9_St17integral_constantIbXT_EESA_IcXT0_EESA_IS7_XT1_EE
FNA:5,9,_ZN5boost4json12basic_parserINS0_6detail12into_handlerIsEEE12parse_numberILb0ELc0ELNS0_16number_precisionE0EEEPKcS9_St17integral_constantIbXT_EESA_IcXT0_EESA_IS7_XT1_EE
FNA:5,0,_ZN5boost4json12basic_parserINS0_6detail12into_handlerIsEEE12parse_numberILb0ELc0ELNS0_16number_precisionE1EEEPKcS9_St17integral_constantIbXT_EESA_IcXT0_EESA_IS7_XT1_EE
FNA:5,0,_ZN5boost4json12basic_parserINS0_6detail12into_handlerIsEEE12parse_numberILb0ELc0ELNS0_16number_precisionE2EEEPKcS9_St17integral_constantIbXT_EESA_IcXT0_EESA_IS7_XT1_EE
FNA:5,0,_ZN5boost4json12basic_parserINS0_6detail12into_handlerIsEEE12parse_numberILb1ELc43ELNS0_16number_precisionE0EEEPKcS9_St17integral_constantIbXT_EESA_IcXT0_EESA_IS7_XT1_EE
FNA:5,0,_ZN5boost4json12basic_parserINS0_6detail12into_handlerIsEEE12parse_numberILb1ELc43ELNS0_16number_precisionE1EEEPKcS9_St17integral_constantIbXT_EESA_IcXT0_EESA_IS7_XT1_EE
FNA:5,0,_ZN5boost4json12basic_parserINS0_6detail12into_handlerIsEEE12parse_numberILb1ELc43ELNS0_16number_precisionE2EEEPKcS9_St17integral_constantIbXT_EESA_IcXT0_EESA_IS7_XT1_EE
FNA:5,7,_ZN5boost4json12basic_parserINS0_6detail12into_handlerIsEEE12parse_numberILb1ELc45ELNS0_16number_precisionE0EEEPKcS9_St17integral_constantIbXT_EESA_IcXT0_EESA_IS7_XT1_EE
FNA:5,0,_ZN5boost4json12basic_parserINS0_6detail12into_handlerIsEEE12parse_numberILb1ELc45ELNS0_16number_precisionE1EEEPKcS9_St17integral_constantIbXT_EESA_IcXT0_EESA_IS7_XT1_EE
FNA:5,0,_ZN5boost4json12basic_parserINS0_6detail12into_handlerIsEEE12parse_numberILb1ELc45ELNS0_16number_precisionE2EEEPKcS9_St17integral_constantIbXT_EESA_IcXT0_EESA_IS7_XT1_EE
FNA:5,0,_ZN5boost4json12basic_parserINS0_6detail12into_handlerIsEEE12parse_numberILb1ELc48ELNS0_16number_precisionE0EEEPKcS9_St17integral_constantIbXT_EESA_IcXT0_EESA_IS7_XT1_EE
FNA:5,0,_ZN5boost4json12basic_parserINS0_6detail12into_handlerIsEEE12parse_numberILb1ELc48ELNS0_16number_precisionE1EEEPKcS9_St17integral_constantIbXT_EESA_IcXT0_EESA_IS7_XT1_EE
FNA:5,0,_ZN5boost4json12basic_parserINS0_6detail12into_handlerIsEEE12parse_numberILb1ELc48ELNS0_16number_precisionE2EEEPKcS9_St17integral_constantIbXT_EESA_IcXT0_EESA_IS7_XT1_EE
FNA:5,8,_ZN5boost4json12basic_parserINS0_6detail12into_handlerItEEE12parse_numberILb0ELc0ELNS0_16number_precisionE0EEEPKcS9_St17integral_constantIbXT_EESA_IcXT0_EESA_IS7_XT1_EE
FNA:5,0,_ZN5boost4json12basic_parserINS0_6detail12into_handlerItEEE12parse_numberILb0ELc0ELNS0_16number_precisionE1EEEPKcS9_St17integral_constantIbXT_EESA_IcXT0_EESA_IS7_XT1_EE
FNA:5,0,_ZN5boost4json12basic_parserINS0_6detail12into_handlerItEEE12parse_numberILb0ELc0ELNS0_16number_precisionE2EEEPKcS9_St17integral_constantIbXT_EESA_IcXT0_EESA_IS7_XT1_EE
FNA:5,7,_ZN5boost4json12basic_parserINS0_6detail12into_handlerItEEE12parse_numberILb1ELc43ELNS0_16number_precisionE0EEEPKcS9_St17integral_constantIbXT_EESA_IcXT0_EESA_IS7_XT1_EE
FNA:5,0,_ZN5boost4json12basic_parserINS0_6detail12into_handlerItEEE12parse_numberILb1ELc43ELNS0_16number_precisionE1EEEPKcS9_St17integral_constantIbXT_EESA_IcXT0_EESA_IS7_XT1_EE
FNA:5,0,_ZN5boost4json12basic_parserINS0_6detail12into_handlerItEEE12parse_numberILb1ELc43ELNS0_16number_precisionE2EEEPKcS9_St17integral_constantIbXT_EESA_IcXT0_EESA_IS7_XT1_EE
FNA:5,0,_ZN5boost4json12basic_parserINS0_6detail12into_handlerItEEE12parse_numberILb1ELc45ELNS0_16number_precisionE0EEEPKcS9_St17integral_constantIbXT_EESA_IcXT0_EESA_IS7_XT1_EE
FNA:5,0,_ZN5boost4json12basic_parserINS0_6detail12into_handlerItEEE12parse_numberILb1ELc45ELNS0_16number_precisionE1EEEPKcS9_St17integral_constantIbXT_EESA_IcXT0_EESA_IS7_XT1_EE
FNA:5,0,_ZN5boost4json12basic_parserINS0_6detail12into_handlerItEEE12parse_numberILb1ELc45ELNS0_16number_precisionE2EEEPKcS9_St17integral_constantIbXT_EESA_IcXT0_EESA_IS7_XT1_EE
FNA:5,0,_ZN5boost4json12basic_parserINS0_6detail12into_handlerItEEE12parse_numberILb1ELc48ELNS0_16number_precisionE0EEEPKcS9_St17integral_constantIbXT_EESA_IcXT0_EESA_IS7_XT1_EE
FNA:5,0,_ZN5boost4json12basic_parserINS0_6detail12into_handlerItEEE12parse_numberILb1ELc48ELNS0_16number_precisionE1EEEPKcS9_St17integral_constantIbXT_EESA_IcXT0_EESA_IS7_XT1_EE
FNA:5,0,_ZN5boost4json12basic_parserINS0_6detail12into_handlerItEEE12parse_numberILb1ELc48ELNS0_16number_precisionE2EEEPKcS9_St17integral_constantIbXT_EESA_IcXT0_EESA_IS7_XT1_EE
FNA:5,23,_ZN5boost4json12basic_parserINS0_6detail12into_handlerIxEEE12parse_numberILb0ELc0ELNS0_16number_precisionE0EEEPKcS9_St17integral_constantIbXT_EESA_IcXT0_EESA_IS7_XT1_EE
FNA:5,0,_ZN5boost4json12basic_parserINS0_6detail12into_handlerIxEEE12parse_numberILb0ELc0ELNS0_16number_precisionE1EEEPKcS9_St17integral_constantIbXT_EESA_IcXT0_EESA_IS7_XT1_EE
FNA:5,0,_ZN5boost4json12basic_parserINS0_6detail12into_handlerIxEEE12parse_numberILb0ELc0ELNS0_16number_precisionE2EEEPKcS9_St17integral_constantIbXT_EESA_IcXT0_EESA_IS7_XT1_EE
FNA:5,0,_ZN5boost4json12basic_parserINS0_6detail12into_handlerIxEEE12parse_numberILb1ELc43ELNS0_16number_precisionE0EEEPKcS9_St17integral_constantIbXT_EESA_IcXT0_EESA_IS7_XT1_EE
FNA:5,0,_ZN5boost4json12basic_parserINS0_6detail12into_handlerIxEEE12parse_numberILb1ELc43ELNS0_16number_precisionE1EEEPKcS9_St17integral_constantIbXT_EESA_IcXT0_EESA_IS7_XT1_EE
FNA:5,0,_ZN5boost4json12basic_parserINS0_6detail12into_handlerIxEEE12parse_numberILb1ELc43ELNS0_16number_precisionE2EEEPKcS9_St17integral_constantIbXT_EESA_IcXT0_EESA_IS7_XT1_EE
FNA:5,7,_ZN5boost4json12basic_parserINS0_6detail12into_handlerIxEEE12parse_numberILb1ELc45ELNS0_16number_precisionE0EEEPKcS9_St17integral_constantIbXT_EESA_IcXT0_EESA_IS7_XT1_EE
FNA:5,0,_ZN5boost4json12basic_parserINS0_6detail12into_handlerIxEEE12parse_numberILb1ELc45ELNS0_16number_precisionE1EEEPKcS9_St17integral_constantIbXT_EESA_IcXT0_EESA_IS7_XT1_EE
FNA:5,0,_ZN5boost4json12basic_parserINS0_6detail12into_handlerIxEEE12parse_numberILb1ELc45ELNS0_16number_precisionE2EEEPKcS9_St17integral_constantIbXT_EESA_IcXT0_EESA_IS7_XT1_EE
FNA:5,0,_ZN5boost4json12basic_parserINS0_6detail12into_handlerIxEEE12parse_numberILb1ELc48ELNS0_16number_precisionE0EEEPKcS9_St17integral_constantIbXT_EESA_IcXT0_EESA_IS7_XT1_EE
FNA:5,0,_ZN5boost4json12basic_parserINS0_6detail12into_handlerIxEEE12parse_numberILb1ELc48ELNS0_16number_precisionE1EEEPKcS9_St17integral_constantIbXT_EESA_IcXT0_EESA_IS7_XT1_EE
FNA:5,0,_ZN5boost4json12basic_parserINS0_6detail12into_handlerIxEEE12parse_numberILb1ELc48ELNS0_16number_precisionE2EEEPKcS9_St17integral_constantIbXT_EESA_IcXT0_EESA_IS7_XT1_EE
FNA:5,23,_ZN5boost4json12basic_parserINS0_6detail12into_handlerIyEEE12parse_numberILb0ELc0ELNS0_16number_precisionE0EEEPKcS9_St17integral_constantIbXT_EESA_IcXT0_EESA_IS7_XT1_EE
FNA:5,0,_ZN5boost4json12basic_parserINS0_6detail12into_handlerIyEEE12parse_numberILb0ELc0ELNS0_16number_precisionE1EEEPKcS9_St17integral_constantIbXT_EESA_IcXT0_EESA_IS7_XT1_EE
FNA:5,0,_ZN5boost4json12basic_parserINS0_6detail12into_handlerIyEEE12parse_numberILb0ELc0ELNS0_16number_precisionE2EEEPKcS9_St17integral_constantIbXT_EESA_IcXT0_EESA_IS7_XT1_EE
FNA:5,7,_ZN5boost4json12basic_parserINS0_6detail12into_handlerIyEEE12parse_numberILb1ELc43ELNS0_16number_precisionE0EEEPKcS9_St17integral_constantIbXT_EESA_IcXT0_EESA_IS7_XT1_EE
FNA:5,0,_ZN5boost4json12basic_parserINS0_6detail12into_handlerIyEEE12parse_numberILb1ELc43ELNS0_16number_precisionE1EEEPKcS9_St17integral_constantIbXT_EESA_IcXT0_EESA_IS7_XT1_EE
FNA:5,0,_ZN5boost4json12basic_parserINS0_6detail12into_handlerIyEEE12parse_numberILb1ELc43ELNS0_16number_precisionE2EEEPKcS9_St17integral_constantIbXT_EESA_IcXT0_EESA_IS7_XT1_EE
FNA:5,0,_ZN5boost4json12basic_parserINS0_6detail12into_handlerIyEEE12parse_numberILb1ELc45ELNS0_16number_precisionE0EEEPKcS9_St17integral_constantIbXT_EESA_IcXT0_EESA_IS7_XT1_EE
FNA:5,0,_ZN5boost4json12basic_parserINS0_6detail12into_handlerIyEEE12parse_numberILb1ELc45ELNS0_16number_precisionE1EEEPKcS9_St17integral_constantIbXT_EESA_IcXT0_EESA_IS7_XT1_EE
FNA:5,0,_ZN5boost4json12basic_parserINS0_6detail12into_handlerIyEEE12parse_numberILb1ELc45ELNS0_16number_precisionE2EEEPKcS9_St17integral_constantIbXT_EESA_IcXT0_EESA_IS7_XT1_EE
FNA:5,0,_ZN5boost4json12basic_parserINS0_6detail12into_handlerIyEEE12parse_numberILb1ELc48ELNS0_16number_precisionE0EEEPKcS9_St17integral_constantIbXT_EESA_IcXT0_EESA_IS7_XT1_EE
FNA:5,0,_ZN5boost4json12basic_parserINS0_6detail12into_handlerIyEEE12parse_numberILb1ELc48ELNS0_16number_precisionE1EEEPKcS9_St17integral_constantIbXT_EESA_IcXT0_EESA_IS7_XT1_EE
FNA:5,0,_ZN5boost4json12basic_parserINS0_6detail12into_handlerIyEEE12parse_numberILb1ELc48ELNS0_16number_precisionE2EEEPKcS9_St17integral_constantIbXT_EESA_IcXT0_EESA_IS7_XT1_EE
FNA:5,16873,_ZN5boost4json12basic_parserINS0_6detail7handlerEE12parse_numberILb0ELc0ELNS0_16number_precisionE0EEEPKcS8_St17integral_constantIbXT_EES9_IcXT0_EES9_IS6_XT1_EE
FNA:5,7022,_ZN5boost4json12basic_parserINS0_6detail7handlerEE12parse_numberILb0ELc0ELNS0_16number_precisionE1EEEPKcS8_St17integral_constantIbXT_EES9_IcXT0_EES9_IS6_XT1_EE
FNA:5,7019,_ZN5boost4json12basic_parserINS0_6detail7handlerEE12parse_numberILb0ELc0ELNS0_16number_precisionE2EEEPKcS8_St17integral_constantIbXT_EES9_IcXT0_EES9_IS6_XT1_EE
FNA:5,1008998,_ZN5boost4json12basic_parserINS0_6detail7handlerEE12parse_numberILb1ELc43ELNS0_16number_precisionE0EEEPKcS8_St17integral_constantIbXT_EES9_IcXT0_EES9_IS6_XT1_EE
FNA:5,1000969,_ZN5boost4json12basic_parserINS0_6detail7handlerEE12parse_numberILb1ELc43ELNS0_16number_precisionE1EEEPKcS8_St17integral_constantIbXT_EES9_IcXT0_EES9_IS6_XT1_EE
FNA:5,922,_ZN5boost4json12basic_parserINS0_6detail7handlerEE12parse_numberILb1ELc43ELNS0_16number_precisionE2EEEPKcS8_St17integral_constantIbXT_EES9_IcXT0_EES9_IS6_XT1_EE
FNA:5,9022,_ZN5boost4json12basic_parserINS0_6detail7handlerEE12parse_numberILb1ELc45ELNS0_16number_precisionE0EEEPKcS8_St17integral_constantIbXT_EES9_IcXT0_EES9_IS6_XT1_EE
FNA:5,3902,_ZN5boost4json12basic_parserINS0_6detail7handlerEE12parse_numberILb1ELc45ELNS0_16number_precisionE1EEEPKcS8_St17integral_constantIbXT_EES9_IcXT0_EES9_IS6_XT1_EE
FNA:5,3898,_ZN5boost4json12basic_parserINS0_6detail7handlerEE12parse_numberILb1ELc45ELNS0_16number_precisionE2EEEPKcS8_St17integral_constantIbXT_EES9_IcXT0_EES9_IS6_XT1_EE
FNA:5,9085,_ZN5boost4json12basic_parserINS0_6detail7handlerEE12parse_numberILb1ELc48ELNS0_16number_precisionE0EEEPKcS8_St17integral_constantIbXT_EES9_IcXT0_EES9_IS6_XT1_EE
FNA:5,4440,_ZN5boost4json12basic_parserINS0_6detail7handlerEE12parse_numberILb1ELc48ELNS0_16number_precisionE1EEEPKcS8_St17integral_constantIbXT_EES9_IcXT0_EES9_IS6_XT1_EE
FNA:5,4438,_ZN5boost4json12basic_parserINS0_6detail7handlerEE12parse_numberILb1ELc48ELNS0_16number_precisionE2EEEPKcS8_St17integral_constantIbXT_EES9_IcXT0_EES9_IS6_XT1_EE
FNL:6,204,212
FNA:6,2805,_ZNK5boost4json12basic_parserINS0_11fail_parser7handlerEE19parse_number_helperILb0ELc0EEclILm0EEEPKcSt17integral_constantImXT_EE
FNA:6,0,_ZNK5boost4json12basic_parserINS0_11fail_parser7handlerEE19parse_number_helperILb0ELc0EEclILm1EEEPKcSt17integral_constantImXT_EE
FNA:6,0,_ZNK5boost4json12basic_parserINS0_11fail_parser7handlerEE19parse_number_helperILb0ELc0EEclILm2EEEPKcSt17integral_constantImXT_EE
FNA:6,15761,_ZNK5boost4json12basic_parserINS0_11fail_parser7handlerEE19parse_number_helperILb1ELc43EEclILm0EEEPKcSt17integral_constantImXT_EE
FNA:6,0,_ZNK5boost4json12basic_parserINS0_11fail_parser7handlerEE19parse_number_helperILb1ELc43EEclILm1EEEPKcSt17integral_constantImXT_EE
FNA:6,0,_ZNK5boost4json12basic_parserINS0_11fail_parser7handlerEE19parse_number_helperILb1ELc43EEclILm2EEEPKcSt17integral_constantImXT_EE
FNA:6,4382,_ZNK5boost4json12basic_parserINS0_11fail_parser7handlerEE19parse_number_helperILb1ELc45EEclILm0EEEPKcSt17integral_constantImXT_EE
FNA:6,0,_ZNK5boost4json12basic_parserINS0_11fail_parser7handlerEE19parse_number_helperILb1ELc45EEclILm1EEEPKcSt17integral_constantImXT_EE
FNA:6,0,_ZNK5boost4json12basic_parserINS0_11fail_parser7handlerEE19parse_number_helperILb1ELc45EEclILm2EEEPKcSt17integral_constantImXT_EE
FNA:6,2613,_ZNK5boost4json12basic_parserINS0_11fail_parser7handlerEE19parse_number_helperILb1ELc48EEclILm0EEEPKcSt17integral_constantImXT_EE
FNA:6,0,_ZNK5boost4json12basic_parserINS0_11fail_parser7handlerEE19parse_number_helperILb1ELc48EEclILm1EEEPKcSt17integral_constantImXT_EE
FNA:6,0,_ZNK5boost4json12basic_parserINS0_11fail_parser7handlerEE19parse_number_helperILb1ELc48EEclILm2EEEPKcSt17integral_constantImXT_EE
FNA:6,0,_ZNK5boost4json12basic_parserINS0_11null_parser7handlerEE19parse_number_helperILb0ELc0EEclILm0EEEPKcSt17integral_constantImXT_EE
FNA:6,0,_ZNK5boost4json12basic_parserINS0_11null_parser7handlerEE19parse_number_helperILb0ELc0EEclILm1EEEPKcSt17integral_constantImXT_EE
FNA:6,0,_ZNK5boost4json12basic_parserINS0_11null_parser7handlerEE19parse_number_helperILb0ELc0EEclILm2EEEPKcSt17integral_constantImXT_EE
FNA:6,0,_ZNK5boost4json12basic_parserINS0_11null_parser7handlerEE19parse_number_helperILb1ELc43EEclILm0EEEPKcSt17integral_constantImXT_EE
FNA:6,0,_ZNK5boost4json12basic_parserINS0_11null_parser7handlerEE19parse_number_helperILb1ELc43EEclILm1EEEPKcSt17integral_constantImXT_EE
FNA:6,0,_ZNK5boost4json12basic_parserINS0_11null_parser7handlerEE19parse_number_helperILb1ELc43EEclILm2EEEPKcSt17integral_constantImXT_EE
FNA:6,0,_ZNK5boost4json12basic_parserINS0_11null_parser7handlerEE19parse_number_helperILb1ELc45EEclILm0EEEPKcSt17integral_constantImXT_EE
FNA:6,0,_ZNK5boost4json12basic_parserINS0_11null_parser7handlerEE19parse_number_helperILb1ELc45EEclILm1EEEPKcSt17integral_constantImXT_EE
FNA:6,0,_ZNK5boost4json12basic_parserINS0_11null_parser7handlerEE19parse_number_helperILb1ELc45EEclILm2EEEPKcSt17integral_constantImXT_EE
FNA:6,0,_ZNK5boost4json12basic_parserINS0_11null_parser7handlerEE19parse_number_helperILb1ELc48EEclILm0EEEPKcSt17integral_constantImXT_EE
FNA:6,0,_ZNK5boost4json12basic_parserINS0_11null_parser7handlerEE19parse_number_helperILb1ELc48EEclILm1EEEPKcSt17integral_constantImXT_EE
FNA:6,0,_ZNK5boost4json12basic_parserINS0_11null_parser7handlerEE19parse_number_helperILb1ELc48EEclILm2EEEPKcSt17integral_constantImXT_EE
FNA:6,2805,_ZNK5boost4json12basic_parserINS0_12throw_parser7handlerEE19parse_number_helperILb0ELc0EEclILm0EEEPKcSt17integral_constantImXT_EE
FNA:6,0,_ZNK5boost4json12basic_parserINS0_12throw_parser7handlerEE19parse_number_helperILb0ELc0EEclILm1EEEPKcSt17integral_constantImXT_EE
FNA:6,0,_ZNK5boost4json12basic_parserINS0_12throw_parser7handlerEE19parse_number_helperILb0ELc0EEclILm2EEEPKcSt17integral_constantImXT_EE
FNA:6,14209,_ZNK5boost4json12basic_parserINS0_12throw_parser7handlerEE19parse_number_helperILb1ELc43EEclILm0EEEPKcSt17integral_constantImXT_EE
FNA:6,0,_ZNK5boost4json12basic_parserINS0_12throw_parser7handlerEE19parse_number_helperILb1ELc43EEclILm1EEEPKcSt17integral_constantImXT_EE
FNA:6,0,_ZNK5boost4json12basic_parserINS0_12throw_parser7handlerEE19parse_number_helperILb1ELc43EEclILm2EEEPKcSt17integral_constantImXT_EE
FNA:6,3872,_ZNK5boost4json12basic_parserINS0_12throw_parser7handlerEE19parse_number_helperILb1ELc45EEclILm0EEEPKcSt17integral_constantImXT_EE
FNA:6,0,_ZNK5boost4json12basic_parserINS0_12throw_parser7handlerEE19parse_number_helperILb1ELc45EEclILm1EEEPKcSt17integral_constantImXT_EE
FNA:6,0,_ZNK5boost4json12basic_parserINS0_12throw_parser7handlerEE19parse_number_helperILb1ELc45EEclILm2EEEPKcSt17integral_constantImXT_EE
FNA:6,2158,_ZNK5boost4json12basic_parserINS0_12throw_parser7handlerEE19parse_number_helperILb1ELc48EEclILm0EEEPKcSt17integral_constantImXT_EE
FNA:6,0,_ZNK5boost4json12basic_parserINS0_12throw_parser7handlerEE19parse_number_helperILb1ELc48EEclILm1EEEPKcSt17integral_constantImXT_EE
FNA:6,0,_ZNK5boost4json12basic_parserINS0_12throw_parser7handlerEE19parse_number_helperILb1ELc48EEclILm2EEEPKcSt17integral_constantImXT_EE
FNA:6,0,_ZNK5boost4json12basic_parserINS0_17basic_parser_test11utf8_parser7handlerEE19parse_number_helperILb0ELc0EEclILm0EEEPKcSt17integral_constantImXT_EE
FNA:6,0,_ZNK5boost4json12basic_parserINS0_17basic_parser_test11utf8_parser7handlerEE19parse_number_helperILb0ELc0EEclILm1EEEPKcSt17integral_constantImXT_EE
FNA:6,0,_ZNK5boost4json12basic_parserINS0_17basic_parser_test11utf8_parser7handlerEE19parse_number_helperILb0ELc0EEclILm2EEEPKcSt17integral_constantImXT_EE
FNA:6,0,_ZNK5boost4json12basic_parserINS0_17basic_parser_test11utf8_parser7handlerEE19parse_number_helperILb1ELc43EEclILm0EEEPKcSt17integral_constantImXT_EE
FNA:6,0,_ZNK5boost4json12basic_parserINS0_17basic_parser_test11utf8_parser7handlerEE19parse_number_helperILb1ELc43EEclILm1EEEPKcSt17integral_constantImXT_EE
FNA:6,0,_ZNK5boost4json12basic_parserINS0_17basic_parser_test11utf8_parser7handlerEE19parse_number_helperILb1ELc43EEclILm2EEEPKcSt17integral_constantImXT_EE
FNA:6,0,_ZNK5boost4json12basic_parserINS0_17basic_parser_test11utf8_parser7handlerEE19parse_number_helperILb1ELc45EEclILm0EEEPKcSt17integral_constantImXT_EE
FNA:6,0,_ZNK5boost4json12basic_parserINS0_17basic_parser_test11utf8_parser7handlerEE19parse_number_helperILb1ELc45EEclILm1EEEPKcSt17integral_constantImXT_EE
FNA:6,0,_ZNK5boost4json12basic_parserINS0_17basic_parser_test11utf8_parser7handlerEE19parse_number_helperILb1ELc45EEclILm2EEEPKcSt17integral_constantImXT_EE
FNA:6,0,_ZNK5boost4json12basic_parserINS0_17basic_parser_test11utf8_parser7handlerEE19parse_number_helperILb1ELc48EEclILm0EEEPKcSt17integral_constantImXT_EE
FNA:6,0,_ZNK5boost4json12basic_parserINS0_17basic_parser_test11utf8_parser7handlerEE19parse_number_helperILb1ELc48EEclILm1EEEPKcSt17integral_constantImXT_EE
FNA:6,0,_ZNK5boost4json12basic_parserINS0_17basic_parser_test11utf8_parser7handlerEE19parse_number_helperILb1ELc48EEclILm2EEEPKcSt17integral_constantImXT_EE
FNA:6,0,_ZNK5boost4json12basic_parserINS0_17basic_parser_test14comment_parser7handlerEE19parse_number_helperILb0ELc0EEclILm0EEEPKcSt17integral_constantImXT_EE
FNA:6,0,_ZNK5boost4json12basic_parserINS0_17basic_parser_test14comment_parser7handlerEE19parse_number_helperILb0ELc0EEclILm1EEEPKcSt17integral_constantImXT_EE
FNA:6,0,_ZNK5boost4json12basic_parserINS0_17basic_parser_test14comment_parser7handlerEE19parse_number_helperILb0ELc0EEclILm2EEEPKcSt17integral_constantImXT_EE
FNA:6,22,_ZNK5boost4json12basic_parserINS0_17basic_parser_test14comment_parser7handlerEE19parse_number_helperILb1ELc43EEclILm0EEEPKcSt17integral_constantImXT_EE
FNA:6,0,_ZNK5boost4json12basic_parserINS0_17basic_parser_test14comment_parser7handlerEE19parse_number_helperILb1ELc43EEclILm1EEEPKcSt17integral_constantImXT_EE
FNA:6,0,_ZNK5boost4json12basic_parserINS0_17basic_parser_test14comment_parser7handlerEE19parse_number_helperILb1ELc43EEclILm2EEEPKcSt17integral_constantImXT_EE
FNA:6,0,_ZNK5boost4json12basic_parserINS0_17basic_parser_test14comment_parser7handlerEE19parse_number_helperILb1ELc45EEclILm0EEEPKcSt17integral_constantImXT_EE
FNA:6,0,_ZNK5boost4json12basic_parserINS0_17basic_parser_test14comment_parser7handlerEE19parse_number_helperILb1ELc45EEclILm1EEEPKcSt17integral_constantImXT_EE
FNA:6,0,_ZNK5boost4json12basic_parserINS0_17basic_parser_test14comment_parser7handlerEE19parse_number_helperILb1ELc45EEclILm2EEEPKcSt17integral_constantImXT_EE
FNA:6,0,_ZNK5boost4json12basic_parserINS0_17basic_parser_test14comment_parser7handlerEE19parse_number_helperILb1ELc48EEclILm0EEEPKcSt17integral_constantImXT_EE
FNA:6,0,_ZNK5boost4json12basic_parserINS0_17basic_parser_test14comment_parser7handlerEE19parse_number_helperILb1ELc48EEclILm1EEEPKcSt17integral_constantImXT_EE
FNA:6,0,_ZNK5boost4json12basic_parserINS0_17basic_parser_test14comment_parser7handlerEE19parse_number_helperILb1ELc48EEclILm2EEEPKcSt17integral_constantImXT_EE
FNA:6,172,_ZNK5boost4json12basic_parserINS0_17basic_parser_test14literal_parser7handlerEE19parse_number_helperILb0ELc0EEclILm0EEEPKcSt17integral_constantImXT_EE
FNA:6,0,_ZNK5boost4json12basic_parserINS0_17basic_parser_test14literal_parser7handlerEE19parse_number_helperILb0ELc0EEclILm1EEEPKcSt17integral_constantImXT_EE
FNA:6,0,_ZNK5boost4json12basic_parserINS0_17basic_parser_test14literal_parser7handlerEE19parse_number_helperILb0ELc0EEclILm2EEEPKcSt17integral_constantImXT_EE
FNA:6,121,_ZNK5boost4json12basic_parserINS0_17basic_parser_test14literal_parser7handlerEE19parse_number_helperILb1ELc43EEclILm0EEEPKcSt17integral_constantImXT_EE
FNA:6,0,_ZNK5boost4json12basic_parserINS0_17basic_parser_test14literal_parser7handlerEE19parse_number_helperILb1ELc43EEclILm1EEEPKcSt17integral_constantImXT_EE
FNA:6,0,_ZNK5boost4json12basic_parserINS0_17basic_parser_test14literal_parser7handlerEE19parse_number_helperILb1ELc43EEclILm2EEEPKcSt17integral_constantImXT_EE
FNA:6,65,_ZNK5boost4json12basic_parserINS0_17basic_parser_test14literal_parser7handlerEE19parse_number_helperILb1ELc45EEclILm0EEEPKcSt17integral_constantImXT_EE
FNA:6,0,_ZNK5boost4json12basic_parserINS0_17basic_parser_test14literal_parser7handlerEE19parse_number_helperILb1ELc45EEclILm1EEEPKcSt17integral_constantImXT_EE
FNA:6,0,_ZNK5boost4json12basic_parserINS0_17basic_parser_test14literal_parser7handlerEE19parse_number_helperILb1ELc45EEclILm2EEEPKcSt17integral_constantImXT_EE
FNA:6,5,_ZNK5boost4json12basic_parserINS0_17basic_parser_test14literal_parser7handlerEE19parse_number_helperILb1ELc48EEclILm0EEEPKcSt17integral_constantImXT_EE
FNA:6,0,_ZNK5boost4json12basic_parserINS0_17basic_parser_test14literal_parser7handlerEE19parse_number_helperILb1ELc48EEclILm1EEEPKcSt17integral_constantImXT_EE
FNA:6,0,_ZNK5boost4json12basic_parserINS0_17basic_parser_test14literal_parser7handlerEE19parse_number_helperILb1ELc48EEclILm2EEEPKcSt17integral_constantImXT_EE
FNA:6,0,_ZNK5boost4json12basic_parserINS0_17basic_parser_test15std_null_parser7handlerEE19parse_number_helperILb0ELc0EEclILm0EEEPKcSt17integral_constantImXT_EE
FNA:6,0,_ZNK5boost4json12basic_parserINS0_17basic_parser_test15std_null_parser7handlerEE19parse_number_helperILb0ELc0EEclILm1EEEPKcSt17integral_constantImXT_EE
FNA:6,0,_ZNK5boost4json12basic_parserINS0_17basic_parser_test15std_null_parser7handlerEE19parse_number_helperILb0ELc0EEclILm2EEEPKcSt17integral_constantImXT_EE
FNA:6,0,_ZNK5boost4json12basic_parserINS0_17basic_parser_test15std_null_parser7handlerEE19parse_number_helperILb1ELc43EEclILm0EEEPKcSt17integral_constantImXT_EE
FNA:6,0,_ZNK5boost4json12basic_parserINS0_17basic_parser_test15std_null_parser7handlerEE19parse_number_helperILb1ELc43EEclILm1EEEPKcSt17integral_constantImXT_EE
FNA:6,0,_ZNK5boost4json12basic_parserINS0_17basic_parser_test15std_null_parser7handlerEE19parse_number_helperILb1ELc43EEclILm2EEEPKcSt17integral_constantImXT_EE
FNA:6,0,_ZNK5boost4json12basic_parserINS0_17basic_parser_test15std_null_parser7handlerEE19parse_number_helperILb1ELc45EEclILm0EEEPKcSt17integral_constantImXT_EE
FNA:6,0,_ZNK5boost4json12basic_parserINS0_17basic_parser_test15std_null_parser7handlerEE19parse_number_helperILb1ELc45EEclILm1EEEPKcSt17integral_constantImXT_EE
FNA:6,0,_ZNK5boost4json12basic_parserINS0_17basic_parser_test15std_null_parser7handlerEE19parse_number_helperILb1ELc45EEclILm2EEEPKcSt17integral_constantImXT_EE
FNA:6,0,_ZNK5boost4json12basic_parserINS0_17basic_parser_test15std_null_parser7handlerEE19parse_number_helperILb1ELc48EEclILm0EEEPKcSt17integral_constantImXT_EE
FNA:6,0,_ZNK5boost4json12basic_parserINS0_17basic_parser_test15std_null_parser7handlerEE19parse_number_helperILb1ELc48EEclILm1EEEPKcSt17integral_constantImXT_EE
FNA:6,0,_ZNK5boost4json12basic_parserINS0_17basic_parser_test15std_null_parser7handlerEE19parse_number_helperILb1ELc48EEclILm2EEEPKcSt17integral_constantImXT_EE
FNA:6,0,_ZNK5boost4json12basic_parserINS0_6detail12into_handlerIDnEEE19parse_number_helperILb0ELc0EEclILm0EEEPKcSt17integral_constantImXT_EE
FNA:6,0,_ZNK5boost4json12basic_parserINS0_6detail12into_handlerIDnEEE19parse_number_helperILb0ELc0EEclILm1EEEPKcSt17integral_constantImXT_EE
FNA:6,0,_ZNK5boost4json12basic_parserINS0_6detail12into_handlerIDnEEE19parse_number_helperILb0ELc0EEclILm2EEEPKcSt17integral_constantImXT_EE
FNA:6,2,_ZNK5boost4json12basic_parserINS0_6detail12into_handlerIDnEEE19parse_number_helperILb1ELc43EEclILm0EEEPKcSt17integral_constantImXT_EE
FNA:6,0,_ZNK5boost4json12basic_parserINS0_6detail12into_handlerIDnEEE19parse_number_helperILb1ELc43EEclILm1EEEPKcSt17integral_constantImXT_EE
FNA:6,0,_ZNK5boost4json12basic_parserINS0_6detail12into_handlerIDnEEE19parse_number_helperILb1ELc43EEclILm2EEEPKcSt17integral_constantImXT_EE
FNA:6,0,_ZNK5boost4json12basic_parserINS0_6detail12into_handlerIDnEEE19parse_number_helperILb1ELc45EEclILm0EEEPKcSt17integral_constantImXT_EE
FNA:6,0,_ZNK5boost4json12basic_parserINS0_6detail12into_handlerIDnEEE19parse_number_helperILb1ELc45EEclILm1EEEPKcSt17integral_constantImXT_EE
FNA:6,0,_ZNK5boost4json12basic_parserINS0_6detail12into_handlerIDnEEE19parse_number_helperILb1ELc45EEclILm2EEEPKcSt17integral_constantImXT_EE
FNA:6,0,_ZNK5boost4json12basic_parserINS0_6detail12into_handlerIDnEEE19parse_number_helperILb1ELc48EEclILm0EEEPKcSt17integral_constantImXT_EE
FNA:6,0,_ZNK5boost4json12basic_parserINS0_6detail12into_handlerIDnEEE19parse_number_helperILb1ELc48EEclILm1EEEPKcSt17integral_constantImXT_EE
FNA:6,0,_ZNK5boost4json12basic_parserINS0_6detail12into_handlerIDnEEE19parse_number_helperILb1ELc48EEclILm2EEEPKcSt17integral_constantImXT_EE
FNA:6,0,_ZNK5boost4json12basic_parserINS0_6detail12into_handlerINS0_6stringEEEE19parse_number_helperILb0ELc0EEclILm0EEEPKcSt17integral_constantImXT_EE
FNA:6,0,_ZNK5boost4json12basic_parserINS0_6detail12into_handlerINS0_6stringEEEE19parse_number_helperILb0ELc0EEclILm1EEEPKcSt17integral_constantImXT_EE
FNA:6,0,_ZNK5boost4json12basic_parserINS0_6detail12into_handlerINS0_6stringEEEE19parse_number_helperILb0ELc0EEclILm2EEEPKcSt17integral_constantImXT_EE
FNA:6,2,_ZNK5boost4json12basic_parserINS0_6detail12into_handlerINS0_6stringEEEE19parse_number_helperILb1ELc43EEclILm0EEEPKcSt17integral_constantImXT_EE
FNA:6,0,_ZNK5boost4json12basic_parserINS0_6detail12into_handlerINS0_6stringEEEE19parse_number_helperILb1ELc43EEclILm1EEEPKcSt17integral_constantImXT_EE
FNA:6,0,_ZNK5boost4json12basic_parserINS0_6detail12into_handlerINS0_6stringEEEE19parse_number_helperILb1ELc43EEclILm2EEEPKcSt17integral_constantImXT_EE
FNA:6,0,_ZNK5boost4json12basic_parserINS0_6detail12into_handlerINS0_6stringEEEE19parse_number_helperILb1ELc45EEclILm0EEEPKcSt17integral_constantImXT_EE
FNA:6,0,_ZNK5boost4json12basic_parserINS0_6detail12into_handlerINS0_6stringEEEE19parse_number_helperILb1ELc45EEclILm1EEEPKcSt17integral_constantImXT_EE
FNA:6,0,_ZNK5boost4json12basic_parserINS0_6detail12into_handlerINS0_6stringEEEE19parse_number_helperILb1ELc45EEclILm2EEEPKcSt17integral_constantImXT_EE
FNA:6,0,_ZNK5boost4json12basic_parserINS0_6detail12into_handlerINS0_6stringEEEE19parse_number_helperILb1ELc48EEclILm0EEEPKcSt17integral_constantImXT_EE
FNA:6,0,_ZNK5boost4json12basic_parserINS0_6detail12into_handlerINS0_6stringEEEE19parse_number_helperILb1ELc48EEclILm1EEEPKcSt17integral_constantImXT_EE
FNA:6,0,_ZNK5boost4json12basic_parserINS0_6detail12into_handlerINS0_6stringEEEE19parse_number_helperILb1ELc48EEclILm2EEEPKcSt17integral_constantImXT_EE
FNA:6,0,_ZNK5boost4json12basic_parserINS0_6detail12into_handlerINS_8variant27variantIJNS4_9monostateEEEEEEE19parse_number_helperILb0ELc0EEclILm0EEEPKcSt17integral_constantImXT_EE
FNA:6,0,_ZNK5boost4json12basic_parserINS0_6detail12into_handlerINS_8variant27variantIJNS4_9monostateEEEEEEE19parse_number_helperILb0ELc0EEclILm1EEEPKcSt17integral_constantImXT_EE
FNA:6,0,_ZNK5boost4json12basic_parserINS0_6detail12into_handlerINS_8variant27variantIJNS4_9monostateEEEEEEE19parse_number_helperILb0ELc0EEclILm2EEEPKcSt17integral_constantImXT_EE
FNA:6,0,_ZNK5boost4json12basic_parserINS0_6detail12into_handlerINS_8variant27variantIJNS4_9monostateEEEEEEE19parse_number_helperILb1ELc43EEclILm0EEEPKcSt17integral_constantImXT_EE
FNA:6,0,_ZNK5boost4json12basic_parserINS0_6detail12into_handlerINS_8variant27variantIJNS4_9monostateEEEEEEE19parse_number_helperILb1ELc43EEclILm1EEEPKcSt17integral_constantImXT_EE
FNA:6,0,_ZNK5boost4json12basic_parserINS0_6detail12into_handlerINS_8variant27variantIJNS4_9monostateEEEEEEE19parse_number_helperILb1ELc43EEclILm2EEEPKcSt17integral_constantImXT_EE
FNA:6,0,_ZNK5boost4json12basic_parserINS0_6detail12into_handlerINS_8variant27variantIJNS4_9monostateEEEEEEE19parse_number_helperILb1ELc45EEclILm0EEEPKcSt17integral_constantImXT_EE
FNA:6,0,_ZNK5boost4json12basic_parserINS0_6detail12into_handlerINS_8variant27variantIJNS4_9monostateEEEEEEE19parse_number_helperILb1ELc45EEclILm1EEEPKcSt17integral_constantImXT_EE
FNA:6,0,_ZNK5boost4json12basic_parserINS0_6detail12into_handlerINS_8variant27variantIJNS4_9monostateEEEEEEE19parse_number_helperILb1ELc45EEclILm2EEEPKcSt17integral_constantImXT_EE
FNA:6,0,_ZNK5boost4json12basic_parserINS0_6detail12into_handlerINS_8variant27variantIJNS4_9monostateEEEEEEE19parse_number_helperILb1ELc48EEclILm0EEEPKcSt17integral_constantImXT_EE
FNA:6,0,_ZNK5boost4json12basic_parserINS0_6detail12into_handlerINS_8variant27variantIJNS4_9monostateEEEEEEE19parse_number_helperILb1ELc48EEclILm1EEEPKcSt17integral_constantImXT_EE
FNA:6,0,_ZNK5boost4json12basic_parserINS0_6detail12into_handlerINS_8variant27variantIJNS4_9monostateEEEEEEE19parse_number_helperILb1ELc48EEclILm2EEEPKcSt17integral_constantImXT_EE
FNA:6,5,_ZNK5boost4json12basic_parserINS0_6detail12into_handlerINS_8variant27variantIJNS4_9monostateESt6vectorIiSaIiEEEEEEEE19parse_number_helperILb0ELc0EEclILm0EEEPKcSt17integral_constantImXT_EE
FNA:6,0,_ZNK5boost4json12basic_parserINS0_6detail12into_handlerINS_8variant27variantIJNS4_9monostateESt6vectorIiSaIiEEEEEEEE19parse_number_helperILb0ELc0EEclILm1EEEPKcSt17integral_constantImXT_EE
FNA:6,0,_ZNK5boost4json12basic_parserINS0_6detail12into_handlerINS_8variant27variantIJNS4_9monostateESt6vectorIiSaIiEEEEEEEE19parse_number_helperILb0ELc0EEclILm2EEEPKcSt17integral_constantImXT_EE
FNA:6,35,_ZNK5boost4json12basic_parserINS0_6detail12into_handlerINS_8variant27variantIJNS4_9monostateESt6vectorIiSaIiEEEEEEEE19parse_number_helperILb1ELc43EEclILm0EEEPKcSt17integral_constantImXT_EE
FNA:6,0,_ZNK5boost4json12basic_parserINS0_6detail12into_handlerINS_8variant27variantIJNS4_9monostateESt6vectorIiSaIiEEEEEEEE19parse_number_helperILb1ELc43EEclILm1EEEPKcSt17integral_constantImXT_EE
FNA:6,0,_ZNK5boost4json12basic_parserINS0_6detail12into_handlerINS_8variant27variantIJNS4_9monostateESt6vectorIiSaIiEEEEEEEE19parse_number_helperILb1ELc43EEclILm2EEEPKcSt17integral_constantImXT_EE
FNA:6,0,_ZNK5boost4json12basic_parserINS0_6detail12into_handlerINS_8variant27variantIJNS4_9monostateESt6vectorIiSaIiEEEEEEEE19parse_number_helperILb1ELc45EEclILm0EEEPKcSt17integral_constantImXT_EE
FNA:6,0,_ZNK5boost4json12basic_parserINS0_6detail12into_handlerINS_8variant27variantIJNS4_9monostateESt6vectorIiSaIiEEEEEEEE19parse_number_helperILb1ELc45EEclILm1EEEPKcSt17integral_constantImXT_EE
FNA:6,0,_ZNK5boost4json12basic_parserINS0_6detail12into_handlerINS_8variant27variantIJNS4_9monostateESt6vectorIiSaIiEEEEEEEE19parse_number_helperILb1ELc45EEclILm2EEEPKcSt17integral_constantImXT_EE
FNA:6,0,_ZNK5boost4json12basic_parserINS0_6detail12into_handlerINS_8variant27variantIJNS4_9monostateESt6vectorIiSaIiEEEEEEEE19parse_number_helperILb1ELc48EEclILm0EEEPKcSt17integral_constantImXT_EE
FNA:6,0,_ZNK5boost4json12basic_parserINS0_6detail12into_handlerINS_8variant27variantIJNS4_9monostateESt6vectorIiSaIiEEEEEEEE19parse_number_helperILb1ELc48EEclILm1EEEPKcSt17integral_constantImXT_EE
FNA:6,0,_ZNK5boost4json12basic_parserINS0_6detail12into_handlerINS_8variant27variantIJNS4_9monostateESt6vectorIiSaIiEEEEEEEE19parse_number_helperILb1ELc48EEclILm2EEEPKcSt17integral_constantImXT_EE
FNA:6,4,_ZNK5boost4json12basic_parserINS0_6detail12into_handlerINS_8variant27variantIJNS4_9monostateEiNSt7__cxx1112basic_stringIcSt11char_traitsIcESaIcEEEEEEEEE19parse_number_helperILb0ELc0EEclILm0EEEPKcSt17integral_constantImXT_EE
FNA:6,0,_ZNK5boost4json12basic_parserINS0_6detail12into_handlerINS_8variant27variantIJNS4_9monostateEiNSt7__cxx1112basic_stringIcSt11char_traitsIcESaIcEEEEEEEEE19parse_number_helperILb0ELc0EEclILm1EEEPKcSt17integral_constantImXT_EE
FNA:6,0,_ZNK5boost4json12basic_parserINS0_6detail12into_handlerINS_8variant27variantIJNS4_9monostateEiNSt7__cxx1112basic_stringIcSt11char_traitsIcESaIcEEEEEEEEE19parse_number_helperILb0ELc0EEclILm2EEEPKcSt17integral_constantImXT_EE
FNA:6,7,_ZNK5boost4json12basic_parserINS0_6detail12into_handlerINS_8variant27variantIJNS4_9monostateEiNSt7__cxx1112basic_stringIcSt11char_traitsIcESaIcEEEEEEEEE19parse_number_helperILb1ELc43EEclILm0EEEPKcSt17integral_constantImXT_EE
FNA:6,0,_ZNK5boost4json12basic_parserINS0_6detail12into_handlerINS_8variant27variantIJNS4_9monostateEiNSt7__cxx1112basic_stringIcSt11char_traitsIcESaIcEEEEEEEEE19parse_number_helperILb1ELc43EEclILm1EEEPKcSt17integral_constantImXT_EE
FNA:6,0,_ZNK5boost4json12basic_parserINS0_6detail12into_handlerINS_8variant27variantIJNS4_9monostateEiNSt7__cxx1112basic_stringIcSt11char_traitsIcESaIcEEEEEEEEE19parse_number_helperILb1ELc43EEclILm2EEEPKcSt17integral_constantImXT_EE
FNA:6,0,_ZNK5boost4json12basic_parserINS0_6detail12into_handlerINS_8variant27variantIJNS4_9monostateEiNSt7__cxx1112basic_stringIcSt11char_traitsIcESaIcEEEEEEEEE19parse_number_helperILb1ELc45EEclILm0EEEPKcSt17integral_constantImXT_EE
FNA:6,0,_ZNK5boost4json12basic_parserINS0_6detail12into_handlerINS_8variant27variantIJNS4_9monostateEiNSt7__cxx1112basic_stringIcSt11char_traitsIcESaIcEEEEEEEEE19parse_number_helperILb1ELc45EEclILm1EEEPKcSt17integral_constantImXT_EE
FNA:6,0,_ZNK5boost4json12basic_parserINS0_6detail12into_handlerINS_8variant27variantIJNS4_9monostateEiNSt7__cxx1112basic_stringIcSt11char_traitsIcESaIcEEEEEEEEE19parse_number_helperILb1ELc45EEclILm2EEEPKcSt17integral_constantImXT_EE
FNA:6,0,_ZNK5boost4json12basic_parserINS0_6detail12into_handlerINS_8variant27variantIJNS4_9monostateEiNSt7__cxx1112basic_stringIcSt11char_traitsIcESaIcEEEEEEEEE19parse_number_helperILb1ELc48EEclILm0EEEPKcSt17integral_constantImXT_EE
FNA:6,0,_ZNK5boost4json12basic_parserINS0_6detail12into_handlerINS_8variant27variantIJNS4_9monostateEiNSt7__cxx1112basic_stringIcSt11char_traitsIcESaIcEEEEEEEEE19parse_number_helperILb1ELc48EEclILm1EEEPKcSt17integral_constantImXT_EE
FNA:6,0,_ZNK5boost4json12basic_parserINS0_6detail12into_handlerINS_8variant27variantIJNS4_9monostateEiNSt7__cxx1112basic_stringIcSt11char_traitsIcESaIcEEEEEEEEE19parse_number_helperILb1ELc48EEclILm2EEEPKcSt17integral_constantImXT_EE
FNA:6,0,_ZNK5boost4json12basic_parserINS0_6detail12into_handlerINS_8variant27variantIJNS4_9monostateEibEEEEEE19parse_number_helperILb0ELc0EEclILm0EEEPKcSt17integral_constantImXT_EE
FNA:6,0,_ZNK5boost4json12basic_parserINS0_6detail12into_handlerINS_8variant27variantIJNS4_9monostateEibEEEEEE19parse_number_helperILb0ELc0EEclILm1EEEPKcSt17integral_constantImXT_EE
FNA:6,0,_ZNK5boost4json12basic_parserINS0_6detail12into_handlerINS_8variant27variantIJNS4_9monostateEibEEEEEE19parse_number_helperILb0ELc0EEclILm2EEEPKcSt17integral_constantImXT_EE
FNA:6,0,_ZNK5boost4json12basic_parserINS0_6detail12into_handlerINS_8variant27variantIJNS4_9monostateEibEEEEEE19parse_number_helperILb1ELc43EEclILm0EEEPKcSt17integral_constantImXT_EE
FNA:6,0,_ZNK5boost4json12basic_parserINS0_6detail12into_handlerINS_8variant27variantIJNS4_9monostateEibEEEEEE19parse_number_helperILb1ELc43EEclILm1EEEPKcSt17integral_constantImXT_EE
FNA:6,0,_ZNK5boost4json12basic_parserINS0_6detail12into_handlerINS_8variant27variantIJNS4_9monostateEibEEEEEE19parse_number_helperILb1ELc43EEclILm2EEEPKcSt17integral_constantImXT_EE
FNA:6,0,_ZNK5boost4json12basic_parserINS0_6detail12into_handlerINS_8variant27variantIJNS4_9monostateEibEEEEEE19parse_number_helperILb1ELc45EEclILm0EEEPKcSt17integral_constantImXT_EE
FNA:6,0,_ZNK5boost4json12basic_parserINS0_6detail12into_handlerINS_8variant27variantIJNS4_9monostateEibEEEEEE19parse_number_helperILb1ELc45EEclILm1EEEPKcSt17integral_constantImXT_EE
FNA:6,0,_ZNK5boost4json12basic_parserINS0_6detail12into_handlerINS_8variant27variantIJNS4_9monostateEibEEEEEE19parse_number_helperILb1ELc45EEclILm2EEEPKcSt17integral_constantImXT_EE
FNA:6,0,_ZNK5boost4json12basic_parserINS0_6detail12into_handlerINS_8variant27variantIJNS4_9monostateEibEEEEEE19parse_number_helperILb1ELc48EEclILm0EEEPKcSt17integral_constantImXT_EE
FNA:6,0,_ZNK5boost4json12basic_parserINS0_6detail12into_handlerINS_8variant27variantIJNS4_9monostateEibEEEEEE19parse_number_helperILb1ELc48EEclILm1EEEPKcSt17integral_constantImXT_EE
FNA:6,0,_ZNK5boost4json12basic_parserINS0_6detail12into_handlerINS_8variant27variantIJNS4_9monostateEibEEEEEE19parse_number_helperILb1ELc48EEclILm2EEEPKcSt17integral_constantImXT_EE
FNA:6,5,_ZNK5boost4json12basic_parserINS0_6detail12into_handlerINS_8variant27variantIJSt6vectorIiSaIiEEEEEEEE19parse_number_helperILb0ELc0EEclILm0EEEPKcSt17integral_constantImXT_EE
FNA:6,0,_ZNK5boost4json12basic_parserINS0_6detail12into_handlerINS_8variant27variantIJSt6vectorIiSaIiEEEEEEEE19parse_number_helperILb0ELc0EEclILm1EEEPKcSt17integral_constantImXT_EE
FNA:6,0,_ZNK5boost4json12basic_parserINS0_6detail12into_handlerINS_8variant27variantIJSt6vectorIiSaIiEEEEEEEE19parse_number_helperILb0ELc0EEclILm2EEEPKcSt17integral_constantImXT_EE
FNA:6,35,_ZNK5boost4json12basic_parserINS0_6detail12into_handlerINS_8variant27variantIJSt6vectorIiSaIiEEEEEEEE19parse_number_helperILb1ELc43EEclILm0EEEPKcSt17integral_constantImXT_EE
FNA:6,0,_ZNK5boost4json12basic_parserINS0_6detail12into_handlerINS_8variant27variantIJSt6vectorIiSaIiEEEEEEEE19parse_number_helperILb1ELc43EEclILm1EEEPKcSt17integral_constantImXT_EE
FNA:6,0,_ZNK5boost4json12basic_parserINS0_6detail12into_handlerINS_8variant27variantIJSt6vectorIiSaIiEEEEEEEE19parse_number_helperILb1ELc43EEclILm2EEEPKcSt17integral_constantImXT_EE
FNA:6,0,_ZNK5boost4json12basic_parserINS0_6detail12into_handlerINS_8variant27variantIJSt6vectorIiSaIiEEEEEEEE19parse_number_helperILb1ELc45EEclILm0EEEPKcSt17integral_constantImXT_EE
FNA:6,0,_ZNK5boost4json12basic_parserINS0_6detail12into_handlerINS_8variant27variantIJSt6vectorIiSaIiEEEEEEEE19parse_number_helperILb1ELc45EEclILm1EEEPKcSt17integral_constantImXT_EE
FNA:6,0,_ZNK5boost4json12basic_parserINS0_6detail12into_handlerINS_8variant27variantIJSt6vectorIiSaIiEEEEEEEE19parse_number_helperILb1ELc45EEclILm2EEEPKcSt17integral_constantImXT_EE
FNA:6,0,_ZNK5boost4json12basic_parserINS0_6detail12into_handlerINS_8variant27variantIJSt6vectorIiSaIiEEEEEEEE19parse_number_helperILb1ELc48EEclILm0EEEPKcSt17integral_constantImXT_EE
FNA:6,0,_ZNK5boost4json12basic_parserINS0_6detail12into_handlerINS_8variant27variantIJSt6vectorIiSaIiEEEEEEEE19parse_number_helperILb1ELc48EEclILm1EEEPKcSt17integral_constantImXT_EE
FNA:6,0,_ZNK5boost4json12basic_parserINS0_6detail12into_handlerINS_8variant27variantIJSt6vectorIiSaIiEEEEEEEE19parse_number_helperILb1ELc48EEclILm2EEEPKcSt17integral_constantImXT_EE
FNA:6,10,_ZNK5boost4json12basic_parserINS0_6detail12into_handlerINS_8variant27variantIJSt6vectorIiSaIiEESt5tupleIJiNSt7__cxx1112basic_stringIcSt11char_traitsIcESaIcEEESt3mapISF_iSt4lessISF_ESaISt4pairIKSF_iEEEEES9_IJiSF_SG_ISF_dSI_SaISJ_ISK_dEEEEEEEEEEE19parse_number_helperILb0ELc0EEclILm0EEEPKcSt17integral_constantImXT_EE
FNA:6,0,_ZNK5boost4json12basic_parserINS0_6detail12into_handlerINS_8variant27variantIJSt6vectorIiSaIiEESt5tupleIJiNSt7__cxx1112basic_stringIcSt11char_traitsIcESaIcEEESt3mapISF_iSt4lessISF_ESaISt4pairIKSF_iEEEEES9_IJiSF_SG_ISF_dSI_SaISJ_ISK_dEEEEEEEEEEE19parse_number_helperILb0ELc0EEclILm1EEEPKcSt17integral_constantImXT_EE
FNA:6,0,_ZNK5boost4json12basic_parserINS0_6detail12into_handlerINS_8variant27variantIJSt6vectorIiSaIiEESt5tupleIJiNSt7__cxx1112basic_stringIcSt11char_traitsIcESaIcEEESt3mapISF_iSt4lessISF_ESaISt4pairIKSF_iEEEEES9_IJiSF_SG_ISF_dSI_SaISJ_ISK_dEEEEEEEEEEE19parse_number_helperILb0ELc0EEclILm2EEEPKcSt17integral_constantImXT_EE
FNA:6,21,_ZNK5boost4json12basic_parserINS0_6detail12into_handlerINS_8variant27variantIJSt6vectorIiSaIiEESt5tupleIJiNSt7__cxx1112basic_stringIcSt11char_traitsIcESaIcEEESt3mapISF_iSt4lessISF_ESaISt4pairIKSF_iEEEEES9_IJiSF_SG_ISF_dSI_SaISJ_ISK_dEEEEEEEEEEE19parse_number_helperILb1ELc43EEclILm0EEEPKcSt17integral_constantImXT_EE
FNA:6,0,_ZNK5boost4json12basic_parserINS0_6detail12into_handlerINS_8variant27variantIJSt6vectorIiSaIiEESt5tupleIJiNSt7__cxx1112basic_stringIcSt11char_traitsIcESaIcEEESt3mapISF_iSt4lessISF_ESaISt4pairIKSF_iEEEEES9_IJiSF_SG_ISF_dSI_SaISJ_ISK_dEEEEEEEEEEE19parse_number_helperILb1ELc43EEclILm1EEEPKcSt17integral_constantImXT_EE
FNA:6,0,_ZNK5boost4json12basic_parserINS0_6detail12into_handlerINS_8variant27variantIJSt6vectorIiSaIiEESt5tupleIJiNSt7__cxx1112basic_stringIcSt11char_traitsIcESaIcEEESt3mapISF_iSt4lessISF_ESaISt4pairIKSF_iEEEEES9_IJiSF_SG_ISF_dSI_SaISJ_ISK_dEEEEEEEEEEE19parse_number_helperILb1ELc43EEclILm2EEEPKcSt17integral_constantImXT_EE
FNA:6,0,_ZNK5boost4json12basic_parserINS0_6detail12into_handlerINS_8variant27variantIJSt6vectorIiSaIiEESt5tupleIJiNSt7__cxx1112basic_stringIcSt11char_traitsIcESaIcEEESt3mapISF_iSt4lessISF_ESaISt4pairIKSF_iEEEEES9_IJiSF_SG_ISF_dSI_SaISJ_ISK_dEEEEEEEEEEE19parse_number_helperILb1ELc45EEclILm0EEEPKcSt17integral_constantImXT_EE
FNA:6,0,_ZNK5boost4json12basic_parserINS0_6detail12into_handlerINS_8variant27variantIJSt6vectorIiSaIiEESt5tupleIJiNSt7__cxx1112basic_stringIcSt11char_traitsIcESaIcEEESt3mapISF_iSt4lessISF_ESaISt4pairIKSF_iEEEEES9_IJiSF_SG_ISF_dSI_SaISJ_ISK_dEEEEEEEEEEE19parse_number_helperILb1ELc45EEclILm1EEEPKcSt17integral_constantImXT_EE
FNA:6,0,_ZNK5boost4json12basic_parserINS0_6detail12into_handlerINS_8variant27variantIJSt6vectorIiSaIiEESt5tupleIJiNSt7__cxx1112basic_stringIcSt11char_traitsIcESaIcEEESt3mapISF_iSt4lessISF_ESaISt4pairIKSF_iEEEEES9_IJiSF_SG_ISF_dSI_SaISJ_ISK_dEEEEEEEEEEE19parse_number_helperILb1ELc45EEclILm2EEEPKcSt17integral_constantImXT_EE
FNA:6,0,_ZNK5boost4json12basic_parserINS0_6detail12into_handlerINS_8variant27variantIJSt6vectorIiSaIiEESt5tupleIJiNSt7__cxx1112basic_stringIcSt11char_traitsIcESaIcEEESt3mapISF_iSt4lessISF_ESaISt4pairIKSF_iEEEEES9_IJiSF_SG_ISF_dSI_SaISJ_ISK_dEEEEEEEEEEE19parse_number_helperILb1ELc48EEclILm0EEEPKcSt17integral_constantImXT_EE
FNA:6,0,_ZNK5boost4json12basic_parserINS0_6detail12into_handlerINS_8variant27variantIJSt6vectorIiSaIiEESt5tupleIJiNSt7__cxx1112basic_stringIcSt11char_traitsIcESaIcEEESt3mapISF_iSt4lessISF_ESaISt4pairIKSF_iEEEEES9_IJiSF_SG_ISF_dSI_SaISJ_ISK_dEEEEEEEEEEE19parse_number_helperILb1ELc48EEclILm1EEEPKcSt17integral_constantImXT_EE
FNA:6,0,_ZNK5boost4json12basic_parserINS0_6detail12into_handlerINS_8variant27variantIJSt6vectorIiSaIiEESt5tupleIJiNSt7__cxx1112basic_stringIcSt11char_traitsIcESaIcEEESt3mapISF_iSt4lessISF_ESaISt4pairIKSF_iEEEEES9_IJiSF_SG_ISF_dSI_SaISJ_ISK_dEEEEEEEEEEE19parse_number_helperILb1ELc48EEclILm2EEEPKcSt17integral_constantImXT_EE
FNA:6,23,_ZNK5boost4json12basic_parserINS0_6detail12into_handlerINS_8variant27variantIJbmEEEEEE19parse_number_helperILb0ELc0EEclILm0EEEPKcSt17integral_constantImXT_EE
FNA:6,0,_ZNK5boost4json12basic_parserINS0_6detail12into_handlerINS_8variant27variantIJbmEEEEEE19parse_number_helperILb0ELc0EEclILm1EEEPKcSt17integral_constantImXT_EE
FNA:6,0,_ZNK5boost4json12basic_parserINS0_6detail12into_handlerINS_8variant27variantIJbmEEEEEE19parse_number_helperILb0ELc0EEclILm2EEEPKcSt17integral_constantImXT_EE
FNA:6,7,_ZNK5boost4json12basic_parserINS0_6detail12into_handlerINS_8variant27variantIJbmEEEEEE19parse_number_helperILb1ELc43EEclILm0EEEPKcSt17integral_constantImXT_EE
FNA:6,0,_ZNK5boost4json12basic_parserINS0_6detail12into_handlerINS_8variant27variantIJbmEEEEEE19parse_number_helperILb1ELc43EEclILm1EEEPKcSt17integral_constantImXT_EE
FNA:6,0,_ZNK5boost4json12basic_parserINS0_6detail12into_handlerINS_8variant27variantIJbmEEEEEE19parse_number_helperILb1ELc43EEclILm2EEEPKcSt17integral_constantImXT_EE
FNA:6,0,_ZNK5boost4json12basic_parserINS0_6detail12into_handlerINS_8variant27variantIJbmEEEEEE19parse_number_helperILb1ELc45EEclILm0EEEPKcSt17integral_constantImXT_EE
FNA:6,0,_ZNK5boost4json12basic_parserINS0_6detail12into_handlerINS_8variant27variantIJbmEEEEEE19parse_number_helperILb1ELc45EEclILm1EEEPKcSt17integral_constantImXT_EE
FNA:6,0,_ZNK5boost4json12basic_parserINS0_6detail12into_handlerINS_8variant27variantIJbmEEEEEE19parse_number_helperILb1ELc45EEclILm2EEEPKcSt17integral_constantImXT_EE
FNA:6,0,_ZNK5boost4json12basic_parserINS0_6detail12into_handlerINS_8variant27variantIJbmEEEEEE19parse_number_helperILb1ELc48EEclILm0EEEPKcSt17integral_constantImXT_EE
FNA:6,0,_ZNK5boost4json12basic_parserINS0_6detail12into_handlerINS_8variant27variantIJbmEEEEEE19parse_number_helperILb1ELc48EEclILm1EEEPKcSt17integral_constantImXT_EE
FNA:6,0,_ZNK5boost4json12basic_parserINS0_6detail12into_handlerINS_8variant27variantIJbmEEEEEE19parse_number_helperILb1ELc48EEclILm2EEEPKcSt17integral_constantImXT_EE
FNA:6,4,_ZNK5boost4json12basic_parserINS0_6detail12into_handlerINS_8variant27variantIJiEEEEEE19parse_number_helperILb0ELc0EEclILm0EEEPKcSt17integral_constantImXT_EE
FNA:6,0,_ZNK5boost4json12basic_parserINS0_6detail12into_handlerINS_8variant27variantIJiEEEEEE19parse_number_helperILb0ELc0EEclILm1EEEPKcSt17integral_constantImXT_EE
FNA:6,0,_ZNK5boost4json12basic_parserINS0_6detail12into_handlerINS_8variant27variantIJiEEEEEE19parse_number_helperILb0ELc0EEclILm2EEEPKcSt17integral_constantImXT_EE
FNA:6,7,_ZNK5boost4json12basic_parserINS0_6detail12into_handlerINS_8variant27variantIJiEEEEEE19parse_number_helperILb1ELc43EEclILm0EEEPKcSt17integral_constantImXT_EE
FNA:6,0,_ZNK5boost4json12basic_parserINS0_6detail12into_handlerINS_8variant27variantIJiEEEEEE19parse_number_helperILb1ELc43EEclILm1EEEPKcSt17integral_constantImXT_EE
FNA:6,0,_ZNK5boost4json12basic_parserINS0_6detail12into_handlerINS_8variant27variantIJiEEEEEE19parse_number_helperILb1ELc43EEclILm2EEEPKcSt17integral_constantImXT_EE
FNA:6,0,_ZNK5boost4json12basic_parserINS0_6detail12into_handlerINS_8variant27variantIJiEEEEEE19parse_number_helperILb1ELc45EEclILm0EEEPKcSt17integral_constantImXT_EE
FNA:6,0,_ZNK5boost4json12basic_parserINS0_6detail12into_handlerINS_8variant27variantIJiEEEEEE19parse_number_helperILb1ELc45EEclILm1EEEPKcSt17integral_constantImXT_EE
FNA:6,0,_ZNK5boost4json12basic_parserINS0_6detail12into_handlerINS_8variant27variantIJiEEEEEE19parse_number_helperILb1ELc45EEclILm2EEEPKcSt17integral_constantImXT_EE
FNA:6,0,_ZNK5boost4json12basic_parserINS0_6detail12into_handlerINS_8variant27variantIJiEEEEEE19parse_number_helperILb1ELc48EEclILm0EEEPKcSt17integral_constantImXT_EE
FNA:6,0,_ZNK5boost4json12basic_parserINS0_6detail12into_handlerINS_8variant27variantIJiEEEEEE19parse_number_helperILb1ELc48EEclILm1EEEPKcSt17integral_constantImXT_EE
FNA:6,0,_ZNK5boost4json12basic_parserINS0_6detail12into_handlerINS_8variant27variantIJiEEEEEE19parse_number_helperILb1ELc48EEclILm2EEEPKcSt17integral_constantImXT_EE
FNA:6,4,_ZNK5boost4json12basic_parserINS0_6detail12into_handlerINS_8variant27variantIJiNSt7__cxx1112basic_stringIcSt11char_traitsIcESaIcEEEEEEEEE19parse_number_helperILb0ELc0EEclILm0EEEPKcSt17integral_constantImXT_EE
FNA:6,0,_ZNK5boost4json12basic_parserINS0_6detail12into_handlerINS_8variant27variantIJiNSt7__cxx1112basic_stringIcSt11char_traitsIcESaIcEEEEEEEEE19parse_number_helperILb0ELc0EEclILm1EEEPKcSt17integral_constantImXT_EE
FNA:6,0,_ZNK5boost4json12basic_parserINS0_6detail12into_handlerINS_8variant27variantIJiNSt7__cxx1112basic_stringIcSt11char_traitsIcESaIcEEEEEEEEE19parse_number_helperILb0ELc0EEclILm2EEEPKcSt17integral_constantImXT_EE
FNA:6,7,_ZNK5boost4json12basic_parserINS0_6detail12into_handlerINS_8variant27variantIJiNSt7__cxx1112basic_stringIcSt11char_traitsIcESaIcEEEEEEEEE19parse_number_helperILb1ELc43EEclILm0EEEPKcSt17integral_constantImXT_EE
FNA:6,0,_ZNK5boost4json12basic_parserINS0_6detail12into_handlerINS_8variant27variantIJiNSt7__cxx1112basic_stringIcSt11char_traitsIcESaIcEEEEEEEEE19parse_number_helperILb1ELc43EEclILm1EEEPKcSt17integral_constantImXT_EE
FNA:6,0,_ZNK5boost4json12basic_parserINS0_6detail12into_handlerINS_8variant27variantIJiNSt7__cxx1112basic_stringIcSt11char_traitsIcESaIcEEEEEEEEE19parse_number_helperILb1ELc43EEclILm2EEEPKcSt17integral_constantImXT_EE
FNA:6,0,_ZNK5boost4json12basic_parserINS0_6detail12into_handlerINS_8variant27variantIJiNSt7__cxx1112basic_stringIcSt11char_traitsIcESaIcEEEEEEEEE19parse_number_helperILb1ELc45EEclILm0EEEPKcSt17integral_constantImXT_EE
FNA:6,0,_ZNK5boost4json12basic_parserINS0_6detail12into_handlerINS_8variant27variantIJiNSt7__cxx1112basic_stringIcSt11char_traitsIcESaIcEEEEEEEEE19parse_number_helperILb1ELc45EEclILm1EEEPKcSt17integral_constantImXT_EE
FNA:6,0,_ZNK5boost4json12basic_parserINS0_6detail12into_handlerINS_8variant27variantIJiNSt7__cxx1112basic_stringIcSt11char_traitsIcESaIcEEEEEEEEE19parse_number_helperILb1ELc45EEclILm2EEEPKcSt17integral_constantImXT_EE
FNA:6,0,_ZNK5boost4json12basic_parserINS0_6detail12into_handlerINS_8variant27variantIJiNSt7__cxx1112basic_stringIcSt11char_traitsIcESaIcEEEEEEEEE19parse_number_helperILb1ELc48EEclILm0EEEPKcSt17integral_constantImXT_EE
FNA:6,0,_ZNK5boost4json12basic_parserINS0_6detail12into_handlerINS_8variant27variantIJiNSt7__cxx1112basic_stringIcSt11char_traitsIcESaIcEEEEEEEEE19parse_number_helperILb1ELc48EEclILm1EEEPKcSt17integral_constantImXT_EE
FNA:6,0,_ZNK5boost4json12basic_parserINS0_6detail12into_handlerINS_8variant27variantIJiNSt7__cxx1112basic_stringIcSt11char_traitsIcESaIcEEEEEEEEE19parse_number_helperILb1ELc48EEclILm2EEEPKcSt17integral_constantImXT_EE
FNA:6,0,_ZNK5boost4json12basic_parserINS0_6detail12into_handlerINSt7__cxx1112basic_stringIcSt11char_traitsIcESaIcEEEEEE19parse_number_helperILb0ELc0EEclILm0EEEPKcSt17integral_constantImXT_EE
FNA:6,0,_ZNK5boost4json12basic_parserINS0_6detail12into_handlerINSt7__cxx1112basic_stringIcSt11char_traitsIcESaIcEEEEEE19parse_number_helperILb0ELc0EEclILm1EEEPKcSt17integral_constantImXT_EE
FNA:6,0,_ZNK5boost4json12basic_parserINS0_6detail12into_handlerINSt7__cxx1112basic_stringIcSt11char_traitsIcESaIcEEEEEE19parse_number_helperILb0ELc0EEclILm2EEEPKcSt17integral_constantImXT_EE
FNA:6,0,_ZNK5boost4json12basic_parserINS0_6detail12into_handlerINSt7__cxx1112basic_stringIcSt11char_traitsIcESaIcEEEEEE19parse_number_helperILb1ELc43EEclILm0EEEPKcSt17integral_constantImXT_EE
FNA:6,0,_ZNK5boost4json12basic_parserINS0_6detail12into_handlerINSt7__cxx1112basic_stringIcSt11char_traitsIcESaIcEEEEEE19parse_number_helperILb1ELc43EEclILm1EEEPKcSt17integral_constantImXT_EE
FNA:6,0,_ZNK5boost4json12basic_parserINS0_6detail12into_handlerINSt7__cxx1112basic_stringIcSt11char_traitsIcESaIcEEEEEE19parse_number_helperILb1ELc43EEclILm2EEEPKcSt17integral_constantImXT_EE
FNA:6,0,_ZNK5boost4json12basic_parserINS0_6detail12into_handlerINSt7__cxx1112basic_stringIcSt11char_traitsIcESaIcEEEEEE19parse_number_helperILb1ELc45EEclILm0EEEPKcSt17integral_constantImXT_EE
FNA:6,0,_ZNK5boost4json12basic_parserINS0_6detail12into_handlerINSt7__cxx1112basic_stringIcSt11char_traitsIcESaIcEEEEEE19parse_number_helperILb1ELc45EEclILm1EEEPKcSt17integral_constantImXT_EE
FNA:6,0,_ZNK5boost4json12basic_parserINS0_6detail12into_handlerINSt7__cxx1112basic_stringIcSt11char_traitsIcESaIcEEEEEE19parse_number_helperILb1ELc45EEclILm2EEEPKcSt17integral_constantImXT_EE
FNA:6,0,_ZNK5boost4json12basic_parserINS0_6detail12into_handlerINSt7__cxx1112basic_stringIcSt11char_traitsIcESaIcEEEEEE19parse_number_helperILb1ELc48EEclILm0EEEPKcSt17integral_constantImXT_EE
FNA:6,0,_ZNK5boost4json12basic_parserINS0_6detail12into_handlerINSt7__cxx1112basic_stringIcSt11char_traitsIcESaIcEEEEEE19parse_number_helperILb1ELc48EEclILm1EEEPKcSt17integral_constantImXT_EE
FNA:6,0,_ZNK5boost4json12basic_parserINS0_6detail12into_handlerINSt7__cxx1112basic_stringIcSt11char_traitsIcESaIcEEEEEE19parse_number_helperILb1ELc48EEclILm2EEEPKcSt17integral_constantImXT_EE
FNA:6,2,_ZNK5boost4json12basic_parserINS0_6detail12into_handlerISt3mapINSt7__cxx1112basic_stringIcSt11char_traitsIcESaIcEEES4_ISA_iSt4lessISA_ESaISt4pairIKSA_iEEESC_SaISD_ISE_SH_EEEEEE19parse_number_helperILb0ELc0EEclILm0EEEPKcSt17integral_constantImXT_EE
FNA:6,0,_ZNK5boost4json12basic_parserINS0_6detail12into_handlerISt3mapINSt7__cxx1112basic_stringIcSt11char_traitsIcESaIcEEES4_ISA_iSt4lessISA_ESaISt4pairIKSA_iEEESC_SaISD_ISE_SH_EEEEEE19parse_number_helperILb0ELc0EEclILm1EEEPKcSt17integral_constantImXT_EE
FNA:6,0,_ZNK5boost4json12basic_parserINS0_6detail12into_handlerISt3mapINSt7__cxx1112basic_stringIcSt11char_traitsIcESaIcEEES4_ISA_iSt4lessISA_ESaISt4pairIKSA_iEEESC_SaISD_ISE_SH_EEEEEE19parse_number_helperILb0ELc0EEclILm2EEEPKcSt17integral_constantImXT_EE
FNA:6,14,_ZNK5boost4json12basic_parserINS0_6detail12into_handlerISt3mapINSt7__cxx1112basic_stringIcSt11char_traitsIcESaIcEEES4_ISA_iSt4lessISA_ESaISt4pairIKSA_iEEESC_SaISD_ISE_SH_EEEEEE19parse_number_helperILb1ELc43EEclILm0EEEPKcSt17integral_constantImXT_EE
FNA:6,0,_ZNK5boost4json12basic_parserINS0_6detail12into_handlerISt3mapINSt7__cxx1112basic_stringIcSt11char_traitsIcESaIcEEES4_ISA_iSt4lessISA_ESaISt4pairIKSA_iEEESC_SaISD_ISE_SH_EEEEEE19parse_number_helperILb1ELc43EEclILm1EEEPKcSt17integral_constantImXT_EE
FNA:6,0,_ZNK5boost4json12basic_parserINS0_6detail12into_handlerISt3mapINSt7__cxx1112basic_stringIcSt11char_traitsIcESaIcEEES4_ISA_iSt4lessISA_ESaISt4pairIKSA_iEEESC_SaISD_ISE_SH_EEEEEE19parse_number_helperILb1ELc43EEclILm2EEEPKcSt17integral_constantImXT_EE
FNA:6,0,_ZNK5boost4json12basic_parserINS0_6detail12into_handlerISt3mapINSt7__cxx1112basic_stringIcSt11char_traitsIcESaIcEEES4_ISA_iSt4lessISA_ESaISt4pairIKSA_iEEESC_SaISD_ISE_SH_EEEEEE19parse_number_helperILb1ELc45EEclILm0EEEPKcSt17integral_constantImXT_EE
FNA:6,0,_ZNK5boost4json12basic_parserINS0_6detail12into_handlerISt3mapINSt7__cxx1112basic_stringIcSt11char_traitsIcESaIcEEES4_ISA_iSt4lessISA_ESaISt4pairIKSA_iEEESC_SaISD_ISE_SH_EEEEEE19parse_number_helperILb1ELc45EEclILm1EEEPKcSt17integral_constantImXT_EE
FNA:6,0,_ZNK5boost4json12basic_parserINS0_6detail12into_handlerISt3mapINSt7__cxx1112basic_stringIcSt11char_traitsIcESaIcEEES4_ISA_iSt4lessISA_ESaISt4pairIKSA_iEEESC_SaISD_ISE_SH_EEEEEE19parse_number_helperILb1ELc45EEclILm2EEEPKcSt17integral_constantImXT_EE
FNA:6,0,_ZNK5boost4json12basic_parserINS0_6detail12into_handlerISt3mapINSt7__cxx1112basic_stringIcSt11char_traitsIcESaIcEEES4_ISA_iSt4lessISA_ESaISt4pairIKSA_iEEESC_SaISD_ISE_SH_EEEEEE19parse_number_helperILb1ELc48EEclILm0EEEPKcSt17integral_constantImXT_EE
FNA:6,0,_ZNK5boost4json12basic_parserINS0_6detail12into_handlerISt3mapINSt7__cxx1112basic_stringIcSt11char_traitsIcESaIcEEES4_ISA_iSt4lessISA_ESaISt4pairIKSA_iEEESC_SaISD_ISE_SH_EEEEEE19parse_number_helperILb1ELc48EEclILm1EEEPKcSt17integral_constantImXT_EE
FNA:6,0,_ZNK5boost4json12basic_parserINS0_6detail12into_handlerISt3mapINSt7__cxx1112basic_stringIcSt11char_traitsIcESaIcEEES4_ISA_iSt4lessISA_ESaISt4pairIKSA_iEEESC_SaISD_ISE_SH_EEEEEE19parse_number_helperILb1ELc48EEclILm2EEEPKcSt17integral_constantImXT_EE
FNA:6,0,_ZNK5boost4json12basic_parserINS0_6detail12into_handlerISt3mapINSt7__cxx1112basic_stringIcSt11char_traitsIcESaIcEEESt5tupleIJiiEESt4lessISA_ESaISt4pairIKSA_SC_EEEEEE19parse_number_helperILb0ELc0EEclILm0EEEPKcSt17integral_constantImXT_EE
FNA:6,0,_ZNK5boost4json12basic_parserINS0_6detail12into_handlerISt3mapINSt7__cxx1112basic_stringIcSt11char_traitsIcESaIcEEESt5tupleIJiiEESt4lessISA_ESaISt4pairIKSA_SC_EEEEEE19parse_number_helperILb0ELc0EEclILm1EEEPKcSt17integral_constantImXT_EE
FNA:6,0,_ZNK5boost4json12basic_parserINS0_6detail12into_handlerISt3mapINSt7__cxx1112basic_stringIcSt11char_traitsIcESaIcEEESt5tupleIJiiEESt4lessISA_ESaISt4pairIKSA_SC_EEEEEE19parse_number_helperILb0ELc0EEclILm2EEEPKcSt17integral_constantImXT_EE
FNA:6,0,_ZNK5boost4json12basic_parserINS0_6detail12into_handlerISt3mapINSt7__cxx1112basic_stringIcSt11char_traitsIcESaIcEEESt5tupleIJiiEESt4lessISA_ESaISt4pairIKSA_SC_EEEEEE19parse_number_helperILb1ELc43EEclILm0EEEPKcSt17integral_constantImXT_EE
FNA:6,0,_ZNK5boost4json12basic_parserINS0_6detail12into_handlerISt3mapINSt7__cxx1112basic_stringIcSt11char_traitsIcESaIcEEESt5tupleIJiiEESt4lessISA_ESaISt4pairIKSA_SC_EEEEEE19parse_number_helperILb1ELc43EEclILm1EEEPKcSt17integral_constantImXT_EE
FNA:6,0,_ZNK5boost4json12basic_parserINS0_6detail12into_handlerISt3mapINSt7__cxx1112basic_stringIcSt11char_traitsIcESaIcEEESt5tupleIJiiEESt4lessISA_ESaISt4pairIKSA_SC_EEEEEE19parse_number_helperILb1ELc43EEclILm2EEEPKcSt17integral_constantImXT_EE
FNA:6,0,_ZNK5boost4json12basic_parserINS0_6detail12into_handlerISt3mapINSt7__cxx1112basic_stringIcSt11char_traitsIcESaIcEEESt5tupleIJiiEESt4lessISA_ESaISt4pairIKSA_SC_EEEEEE19parse_number_helperILb1ELc45EEclILm0EEEPKcSt17integral_constantImXT_EE
FNA:6,0,_ZNK5boost4json12basic_parserINS0_6detail12into_handlerISt3mapINSt7__cxx1112basic_stringIcSt11char_traitsIcESaIcEEESt5tupleIJiiEESt4lessISA_ESaISt4pairIKSA_SC_EEEEEE19parse_number_helperILb1ELc45EEclILm1EEEPKcSt17integral_constantImXT_EE
FNA:6,0,_ZNK5boost4json12basic_parserINS0_6detail12into_handlerISt3mapINSt7__cxx1112basic_stringIcSt11char_traitsIcESaIcEEESt5tupleIJiiEESt4lessISA_ESaISt4pairIKSA_SC_EEEEEE19parse_number_helperILb1ELc45EEclILm2EEEPKcSt17integral_constantImXT_EE
FNA:6,0,_ZNK5boost4json12basic_parserINS0_6detail12into_handlerISt3mapINSt7__cxx1112basic_stringIcSt11char_traitsIcESaIcEEESt5tupleIJiiEESt4lessISA_ESaISt4pairIKSA_SC_EEEEEE19parse_number_helperILb1ELc48EEclILm0EEEPKcSt17integral_constantImXT_EE
FNA:6,0,_ZNK5boost4json12basic_parserINS0_6detail12into_handlerISt3mapINSt7__cxx1112basic_stringIcSt11char_traitsIcESaIcEEESt5tupleIJiiEESt4lessISA_ESaISt4pairIKSA_SC_EEEEEE19parse_number_helperILb1ELc48EEclILm1EEEPKcSt17integral_constantImXT_EE
FNA:6,0,_ZNK5boost4json12basic_parserINS0_6detail12into_handlerISt3mapINSt7__cxx1112basic_stringIcSt11char_traitsIcESaIcEEESt5tupleIJiiEESt4lessISA_ESaISt4pairIKSA_SC_EEEEEE19parse_number_helperILb1ELc48EEclILm2EEEPKcSt17integral_constantImXT_EE
FNA:6,4,_ZNK5boost4json12basic_parserINS0_6detail12into_handlerISt3mapINSt7__cxx1112basic_stringIcSt11char_traitsIcESaIcEEESt6vectorISt4pairIiiESaISD_EESt4lessISA_ESaISC_IKSA_SF_EEEEEE19parse_number_helperILb0ELc0EEclILm0EEEPKcSt17integral_constantImXT_EE
FNA:6,0,_ZNK5boost4json12basic_parserINS0_6detail12into_handlerISt3mapINSt7__cxx1112basic_stringIcSt11char_traitsIcESaIcEEESt6vectorISt4pairIiiESaISD_EESt4lessISA_ESaISC_IKSA_SF_EEEEEE19parse_number_helperILb0ELc0EEclILm1EEEPKcSt17integral_constantImXT_EE
FNA:6,0,_ZNK5boost4json12basic_parserINS0_6detail12into_handlerISt3mapINSt7__cxx1112basic_stringIcSt11char_traitsIcESaIcEEESt6vectorISt4pairIiiESaISD_EESt4lessISA_ESaISC_IKSA_SF_EEEEEE19parse_number_helperILb0ELc0EEclILm2EEEPKcSt17integral_constantImXT_EE
FNA:6,28,_ZNK5boost4json12basic_parserINS0_6detail12into_handlerISt3mapINSt7__cxx1112basic_stringIcSt11char_traitsIcESaIcEEESt6vectorISt4pairIiiESaISD_EESt4lessISA_ESaISC_IKSA_SF_EEEEEE19parse_number_helperILb1ELc43EEclILm0EEEPKcSt17integral_constantImXT_EE
FNA:6,0,_ZNK5boost4json12basic_parserINS0_6detail12into_handlerISt3mapINSt7__cxx1112basic_stringIcSt11char_traitsIcESaIcEEESt6vectorISt4pairIiiESaISD_EESt4lessISA_ESaISC_IKSA_SF_EEEEEE19parse_number_helperILb1ELc43EEclILm1EEEPKcSt17integral_constantImXT_EE
FNA:6,0,_ZNK5boost4json12basic_parserINS0_6detail12into_handlerISt3mapINSt7__cxx1112basic_stringIcSt11char_traitsIcESaIcEEESt6vectorISt4pairIiiESaISD_EESt4lessISA_ESaISC_IKSA_SF_EEEEEE19parse_number_helperILb1ELc43EEclILm2EEEPKcSt17integral_constantImXT_EE
FNA:6,0,_ZNK5boost4json12basic_parserINS0_6detail12into_handlerISt3mapINSt7__cxx1112basic_stringIcSt11char_traitsIcESaIcEEESt6vectorISt4pairIiiESaISD_EESt4lessISA_ESaISC_IKSA_SF_EEEEEE19parse_number_helperILb1ELc45EEclILm0EEEPKcSt17integral_constantImXT_EE
FNA:6,0,_ZNK5boost4json12basic_parserINS0_6detail12into_handlerISt3mapINSt7__cxx1112basic_stringIcSt11char_traitsIcESaIcEEESt6vectorISt4pairIiiESaISD_EESt4lessISA_ESaISC_IKSA_SF_EEEEEE19parse_number_helperILb1ELc45EEclILm1EEEPKcSt17integral_constantImXT_EE
FNA:6,0,_ZNK5boost4json12basic_parserINS0_6detail12into_handlerISt3mapINSt7__cxx1112basic_stringIcSt11char_traitsIcESaIcEEESt6vectorISt4pairIiiESaISD_EESt4lessISA_ESaISC_IKSA_SF_EEEEEE19parse_number_helperILb1ELc45EEclILm2EEEPKcSt17integral_constantImXT_EE
FNA:6,0,_ZNK5boost4json12basic_parserINS0_6detail12into_handlerISt3mapINSt7__cxx1112basic_stringIcSt11char_traitsIcESaIcEEESt6vectorISt4pairIiiESaISD_EESt4lessISA_ESaISC_IKSA_SF_EEEEEE19parse_number_helperILb1ELc48EEclILm0EEEPKcSt17integral_constantImXT_EE
FNA:6,0,_ZNK5boost4json12basic_parserINS0_6detail12into_handlerISt3mapINSt7__cxx1112basic_stringIcSt11char_traitsIcESaIcEEESt6vectorISt4pairIiiESaISD_EESt4lessISA_ESaISC_IKSA_SF_EEEEEE19parse_number_helperILb1ELc48EEclILm1EEEPKcSt17integral_constantImXT_EE
FNA:6,0,_ZNK5boost4json12basic_parserINS0_6detail12into_handlerISt3mapINSt7__cxx1112basic_stringIcSt11char_traitsIcESaIcEEESt6vectorISt4pairIiiESaISD_EESt4lessISA_ESaISC_IKSA_SF_EEEEEE19parse_number_helperILb1ELc48EEclILm2EEEPKcSt17integral_constantImXT_EE
FNA:6,3,_ZNK5boost4json12basic_parserINS0_6detail12into_handlerISt3mapINSt7__cxx1112basic_stringIcSt11char_traitsIcESaIcEEESt6vectorIiSaIiEESt4lessISA_ESaISt4pairIKSA_SD_EEEEEE19parse_number_helperILb0ELc0EEclILm0EEEPKcSt17integral_constantImXT_EE
FNA:6,0,_ZNK5boost4json12basic_parserINS0_6detail12into_handlerISt3mapINSt7__cxx1112basic_stringIcSt11char_traitsIcESaIcEEESt6vectorIiSaIiEESt4lessISA_ESaISt4pairIKSA_SD_EEEEEE19parse_number_helperILb0ELc0EEclILm1EEEPKcSt17integral_constantImXT_EE
FNA:6,0,_ZNK5boost4json12basic_parserINS0_6detail12into_handlerISt3mapINSt7__cxx1112basic_stringIcSt11char_traitsIcESaIcEEESt6vectorIiSaIiEESt4lessISA_ESaISt4pairIKSA_SD_EEEEEE19parse_number_helperILb0ELc0EEclILm2EEEPKcSt17integral_constantImXT_EE
FNA:6,27,_ZNK5boost4json12basic_parserINS0_6detail12into_handlerISt3mapINSt7__cxx1112basic_stringIcSt11char_traitsIcESaIcEEESt6vectorIiSaIiEESt4lessISA_ESaISt4pairIKSA_SD_EEEEEE19parse_number_helperILb1ELc43EEclILm0EEEPKcSt17integral_constantImXT_EE
FNA:6,0,_ZNK5boost4json12basic_parserINS0_6detail12into_handlerISt3mapINSt7__cxx1112basic_stringIcSt11char_traitsIcESaIcEEESt6vectorIiSaIiEESt4lessISA_ESaISt4pairIKSA_SD_EEEEEE19parse_number_helperILb1ELc43EEclILm1EEEPKcSt17integral_constantImXT_EE
FNA:6,0,_ZNK5boost4json12basic_parserINS0_6detail12into_handlerISt3mapINSt7__cxx1112basic_stringIcSt11char_traitsIcESaIcEEESt6vectorIiSaIiEESt4lessISA_ESaISt4pairIKSA_SD_EEEEEE19parse_number_helperILb1ELc43EEclILm2EEEPKcSt17integral_constantImXT_EE
FNA:6,0,_ZNK5boost4json12basic_parserINS0_6detail12into_handlerISt3mapINSt7__cxx1112basic_stringIcSt11char_traitsIcESaIcEEESt6vectorIiSaIiEESt4lessISA_ESaISt4pairIKSA_SD_EEEEEE19parse_number_helperILb1ELc45EEclILm0EEEPKcSt17integral_constantImXT_EE
FNA:6,0,_ZNK5boost4json12basic_parserINS0_6detail12into_handlerISt3mapINSt7__cxx1112basic_stringIcSt11char_traitsIcESaIcEEESt6vectorIiSaIiEESt4lessISA_ESaISt4pairIKSA_SD_EEEEEE19parse_number_helperILb1ELc45EEclILm1EEEPKcSt17integral_constantImXT_EE
FNA:6,0,_ZNK5boost4json12basic_parserINS0_6detail12into_handlerISt3mapINSt7__cxx1112basic_stringIcSt11char_traitsIcESaIcEEESt6vectorIiSaIiEESt4lessISA_ESaISt4pairIKSA_SD_EEEEEE19parse_number_helperILb1ELc45EEclILm2EEEPKcSt17integral_constantImXT_EE
FNA:6,0,_ZNK5boost4json12basic_parserINS0_6detail12into_handlerISt3mapINSt7__cxx1112basic_stringIcSt11char_traitsIcESaIcEEESt6vectorIiSaIiEESt4lessISA_ESaISt4pairIKSA_SD_EEEEEE19parse_number_helperILb1ELc48EEclILm0EEEPKcSt17integral_constantImXT_EE
FNA:6,0,_ZNK5boost4json12basic_parserINS0_6detail12into_handlerISt3mapINSt7__cxx1112basic_stringIcSt11char_traitsIcESaIcEEESt6vectorIiSaIiEESt4lessISA_ESaISt4pairIKSA_SD_EEEEEE19parse_number_helperILb1ELc48EEclILm1EEEPKcSt17integral_constantImXT_EE
FNA:6,0,_ZNK5boost4json12basic_parserINS0_6detail12into_handlerISt3mapINSt7__cxx1112basic_stringIcSt11char_traitsIcESaIcEEESt6vectorIiSaIiEESt4lessISA_ESaISt4pairIKSA_SD_EEEEEE19parse_number_helperILb1ELc48EEclILm2EEEPKcSt17integral_constantImXT_EE
FNA:6,4,_ZNK5boost4json12basic_parserINS0_6detail12into_handlerISt3mapINSt7__cxx1112basic_stringIcSt11char_traitsIcESaIcEEEiSt4lessISA_ESaISt4pairIKSA_iEEEEEE19parse_number_helperILb0ELc0EEclILm0EEEPKcSt17integral_constantImXT_EE
FNA:6,0,_ZNK5boost4json12basic_parserINS0_6detail12into_handlerISt3mapINSt7__cxx1112basic_stringIcSt11char_traitsIcESaIcEEEiSt4lessISA_ESaISt4pairIKSA_iEEEEEE19parse_number_helperILb0ELc0EEclILm1EEEPKcSt17integral_constantImXT_EE
FNA:6,0,_ZNK5boost4json12basic_parserINS0_6detail12into_handlerISt3mapINSt7__cxx1112basic_stringIcSt11char_traitsIcESaIcEEEiSt4lessISA_ESaISt4pairIKSA_iEEEEEE19parse_number_helperILb0ELc0EEclILm2EEEPKcSt17integral_constantImXT_EE
FNA:6,33,_ZNK5boost4json12basic_parserINS0_6detail12into_handlerISt3mapINSt7__cxx1112basic_stringIcSt11char_traitsIcESaIcEEEiSt4lessISA_ESaISt4pairIKSA_iEEEEEE19parse_number_helperILb1ELc43EEclILm0EEEPKcSt17integral_constantImXT_EE
FNA:6,0,_ZNK5boost4json12basic_parserINS0_6detail12into_handlerISt3mapINSt7__cxx1112basic_stringIcSt11char_traitsIcESaIcEEEiSt4lessISA_ESaISt4pairIKSA_iEEEEEE19parse_number_helperILb1ELc43EEclILm1EEEPKcSt17integral_constantImXT_EE
FNA:6,0,_ZNK5boost4json12basic_parserINS0_6detail12into_handlerISt3mapINSt7__cxx1112basic_stringIcSt11char_traitsIcESaIcEEEiSt4lessISA_ESaISt4pairIKSA_iEEEEEE19parse_number_helperILb1ELc43EEclILm2EEEPKcSt17integral_constantImXT_EE
FNA:6,0,_ZNK5boost4json12basic_parserINS0_6detail12into_handlerISt3mapINSt7__cxx1112basic_stringIcSt11char_traitsIcESaIcEEEiSt4lessISA_ESaISt4pairIKSA_iEEEEEE19parse_number_helperILb1ELc45EEclILm0EEEPKcSt17integral_constantImXT_EE
FNA:6,0,_ZNK5boost4json12basic_parserINS0_6detail12into_handlerISt3mapINSt7__cxx1112basic_stringIcSt11char_traitsIcESaIcEEEiSt4lessISA_ESaISt4pairIKSA_iEEEEEE19parse_number_helperILb1ELc45EEclILm1EEEPKcSt17integral_constantImXT_EE
FNA:6,0,_ZNK5boost4json12basic_parserINS0_6detail12into_handlerISt3mapINSt7__cxx1112basic_stringIcSt11char_traitsIcESaIcEEEiSt4lessISA_ESaISt4pairIKSA_iEEEEEE19parse_number_helperILb1ELc45EEclILm2EEEPKcSt17integral_constantImXT_EE
FNA:6,0,_ZNK5boost4json12basic_parserINS0_6detail12into_handlerISt3mapINSt7__cxx1112basic_stringIcSt11char_traitsIcESaIcEEEiSt4lessISA_ESaISt4pairIKSA_iEEEEEE19parse_number_helperILb1ELc48EEclILm0EEEPKcSt17integral_constantImXT_EE
FNA:6,0,_ZNK5boost4json12basic_parserINS0_6detail12into_handlerISt3mapINSt7__cxx1112basic_stringIcSt11char_traitsIcESaIcEEEiSt4lessISA_ESaISt4pairIKSA_iEEEEEE19parse_number_helperILb1ELc48EEclILm1EEEPKcSt17integral_constantImXT_EE
FNA:6,0,_ZNK5boost4json12basic_parserINS0_6detail12into_handlerISt3mapINSt7__cxx1112basic_stringIcSt11char_traitsIcESaIcEEEiSt4lessISA_ESaISt4pairIKSA_iEEEEEE19parse_number_helperILb1ELc48EEclILm2EEEPKcSt17integral_constantImXT_EE
FNA:6,20,_ZNK5boost4json12basic_parserINS0_6detail12into_handlerISt4pairIDnmEEEE19parse_number_helperILb0ELc0EEclILm0EEEPKcSt17integral_constantImXT_EE
FNA:6,0,_ZNK5boost4json12basic_parserINS0_6detail12into_handlerISt4pairIDnmEEEE19parse_number_helperILb0ELc0EEclILm1EEEPKcSt17integral_constantImXT_EE
FNA:6,0,_ZNK5boost4json12basic_parserINS0_6detail12into_handlerISt4pairIDnmEEEE19parse_number_helperILb0ELc0EEclILm2EEEPKcSt17integral_constantImXT_EE
FNA:6,7,_ZNK5boost4json12basic_parserINS0_6detail12into_handlerISt4pairIDnmEEEE19parse_number_helperILb1ELc43EEclILm0EEEPKcSt17integral_constantImXT_EE
FNA:6,0,_ZNK5boost4json12basic_parserINS0_6detail12into_handlerISt4pairIDnmEEEE19parse_number_helperILb1ELc43EEclILm1EEEPKcSt17integral_constantImXT_EE
FNA:6,0,_ZNK5boost4json12basic_parserINS0_6detail12into_handlerISt4pairIDnmEEEE19parse_number_helperILb1ELc43EEclILm2EEEPKcSt17integral_constantImXT_EE
FNA:6,0,_ZNK5boost4json12basic_parserINS0_6detail12into_handlerISt4pairIDnmEEEE19parse_number_helperILb1ELc45EEclILm0EEEPKcSt17integral_constantImXT_EE
FNA:6,0,_ZNK5boost4json12basic_parserINS0_6detail12into_handlerISt4pairIDnmEEEE19parse_number_helperILb1ELc45EEclILm1EEEPKcSt17integral_constantImXT_EE
FNA:6,0,_ZNK5boost4json12basic_parserINS0_6detail12into_handlerISt4pairIDnmEEEE19parse_number_helperILb1ELc45EEclILm2EEEPKcSt17integral_constantImXT_EE
FNA:6,0,_ZNK5boost4json12basic_parserINS0_6detail12into_handlerISt4pairIDnmEEEE19parse_number_helperILb1ELc48EEclILm0EEEPKcSt17integral_constantImXT_EE
FNA:6,0,_ZNK5boost4json12basic_parserINS0_6detail12into_handlerISt4pairIDnmEEEE19parse_number_helperILb1ELc48EEclILm1EEEPKcSt17integral_constantImXT_EE
FNA:6,0,_ZNK5boost4json12basic_parserINS0_6detail12into_handlerISt4pairIDnmEEEE19parse_number_helperILb1ELc48EEclILm2EEEPKcSt17integral_constantImXT_EE
FNA:6,4,_ZNK5boost4json12basic_parserINS0_6detail12into_handlerISt4pairISt6vectorIiSaIiEESt3mapINSt7__cxx1112basic_stringIcSt11char_traitsIcESaIcEEES4_IibESt4lessISE_ESaIS4_IKSE_SF_EEEEEEE19parse_number_helperILb0ELc0EEclILm0EEEPKcSt17integral_constantImXT_EE
FNA:6,0,_ZNK5boost4json12basic_parserINS0_6detail12into_handlerISt4pairISt6vectorIiSaIiEESt3mapINSt7__cxx1112basic_stringIcSt11char_traitsIcESaIcEEES4_IibESt4lessISE_ESaIS4_IKSE_SF_EEEEEEE19parse_number_helperILb0ELc0EEclILm1EEEPKcSt17integral_constantImXT_EE
FNA:6,0,_ZNK5boost4json12basic_parserINS0_6detail12into_handlerISt4pairISt6vectorIiSaIiEESt3mapINSt7__cxx1112basic_stringIcSt11char_traitsIcESaIcEEES4_IibESt4lessISE_ESaIS4_IKSE_SF_EEEEEEE19parse_number_helperILb0ELc0EEclILm2EEEPKcSt17integral_constantImXT_EE
FNA:6,28,_ZNK5boost4json12basic_parserINS0_6detail12into_handlerISt4pairISt6vectorIiSaIiEESt3mapINSt7__cxx1112basic_stringIcSt11char_traitsIcESaIcEEES4_IibESt4lessISE_ESaIS4_IKSE_SF_EEEEEEE19parse_number_helperILb1ELc43EEclILm0EEEPKcSt17integral_constantImXT_EE
FNA:6,0,_ZNK5boost4json12basic_parserINS0_6detail12into_handlerISt4pairISt6vectorIiSaIiEESt3mapINSt7__cxx1112basic_stringIcSt11char_traitsIcESaIcEEES4_IibESt4lessISE_ESaIS4_IKSE_SF_EEEEEEE19parse_number_helperILb1ELc43EEclILm1EEEPKcSt17integral_constantImXT_EE
FNA:6,0,_ZNK5boost4json12basic_parserINS0_6detail12into_handlerISt4pairISt6vectorIiSaIiEESt3mapINSt7__cxx1112basic_stringIcSt11char_traitsIcESaIcEEES4_IibESt4lessISE_ESaIS4_IKSE_SF_EEEEEEE19parse_number_helperILb1ELc43EEclILm2EEEPKcSt17integral_constantImXT_EE
FNA:6,0,_ZNK5boost4json12basic_parserINS0_6detail12into_handlerISt4pairISt6vectorIiSaIiEESt3mapINSt7__cxx1112basic_stringIcSt11char_traitsIcESaIcEEES4_IibESt4lessISE_ESaIS4_IKSE_SF_EEEEEEE19parse_number_helperILb1ELc45EEclILm0EEEPKcSt17integral_constantImXT_EE
FNA:6,0,_ZNK5boost4json12basic_parserINS0_6detail12into_handlerISt4pairISt6vectorIiSaIiEESt3mapINSt7__cxx1112basic_stringIcSt11char_traitsIcESaIcEEES4_IibESt4lessISE_ESaIS4_IKSE_SF_EEEEEEE19parse_number_helperILb1ELc45EEclILm1EEEPKcSt17integral_constantImXT_EE
FNA:6,0,_ZNK5boost4json12basic_parserINS0_6detail12into_handlerISt4pairISt6vectorIiSaIiEESt3mapINSt7__cxx1112basic_stringIcSt11char_traitsIcESaIcEEES4_IibESt4lessISE_ESaIS4_IKSE_SF_EEEEEEE19parse_number_helperILb1ELc45EEclILm2EEEPKcSt17integral_constantImXT_EE
FNA:6,0,_ZNK5boost4json12basic_parserINS0_6detail12into_handlerISt4pairISt6vectorIiSaIiEESt3mapINSt7__cxx1112basic_stringIcSt11char_traitsIcESaIcEEES4_IibESt4lessISE_ESaIS4_IKSE_SF_EEEEEEE19parse_number_helperILb1ELc48EEclILm0EEEPKcSt17integral_constantImXT_EE
FNA:6,0,_ZNK5boost4json12basic_parserINS0_6detail12into_handlerISt4pairISt6vectorIiSaIiEESt3mapINSt7__cxx1112basic_stringIcSt11char_traitsIcESaIcEEES4_IibESt4lessISE_ESaIS4_IKSE_SF_EEEEEEE19parse_number_helperILb1ELc48EEclILm1EEEPKcSt17integral_constantImXT_EE
FNA:6,0,_ZNK5boost4json12basic_parserINS0_6detail12into_handlerISt4pairISt6vectorIiSaIiEESt3mapINSt7__cxx1112basic_stringIcSt11char_traitsIcESaIcEEES4_IibESt4lessISE_ESaIS4_IKSE_SF_EEEEEEE19parse_number_helperILb1ELc48EEclILm2EEEPKcSt17integral_constantImXT_EE
FNA:6,2,_ZNK5boost4json12basic_parserINS0_6detail12into_handlerISt4pairIiiEEEE19parse_number_helperILb0ELc0EEclILm0EEEPKcSt17integral_constantImXT_EE
FNA:6,0,_ZNK5boost4json12basic_parserINS0_6detail12into_handlerISt4pairIiiEEEE19parse_number_helperILb0ELc0EEclILm1EEEPKcSt17integral_constantImXT_EE
FNA:6,0,_ZNK5boost4json12basic_parserINS0_6detail12into_handlerISt4pairIiiEEEE19parse_number_helperILb0ELc0EEclILm2EEEPKcSt17integral_constantImXT_EE
FNA:6,8,_ZNK5boost4json12basic_parserINS0_6detail12into_handlerISt4pairIiiEEEE19parse_number_helperILb1ELc43EEclILm0EEEPKcSt17integral_constantImXT_EE
FNA:6,0,_ZNK5boost4json12basic_parserINS0_6detail12into_handlerISt4pairIiiEEEE19parse_number_helperILb1ELc43EEclILm1EEEPKcSt17integral_constantImXT_EE
FNA:6,0,_ZNK5boost4json12basic_parserINS0_6detail12into_handlerISt4pairIiiEEEE19parse_number_helperILb1ELc43EEclILm2EEEPKcSt17integral_constantImXT_EE
FNA:6,0,_ZNK5boost4json12basic_parserINS0_6detail12into_handlerISt4pairIiiEEEE19parse_number_helperILb1ELc45EEclILm0EEEPKcSt17integral_constantImXT_EE
FNA:6,0,_ZNK5boost4json12basic_parserINS0_6detail12into_handlerISt4pairIiiEEEE19parse_number_helperILb1ELc45EEclILm1EEEPKcSt17integral_constantImXT_EE
FNA:6,0,_ZNK5boost4json12basic_parserINS0_6detail12into_handlerISt4pairIiiEEEE19parse_number_helperILb1ELc45EEclILm2EEEPKcSt17integral_constantImXT_EE
FNA:6,0,_ZNK5boost4json12basic_parserINS0_6detail12into_handlerISt4pairIiiEEEE19parse_number_helperILb1ELc48EEclILm0EEEPKcSt17integral_constantImXT_EE
FNA:6,0,_ZNK5boost4json12basic_parserINS0_6detail12into_handlerISt4pairIiiEEEE19parse_number_helperILb1ELc48EEclILm1EEEPKcSt17integral_constantImXT_EE
FNA:6,0,_ZNK5boost4json12basic_parserINS0_6detail12into_handlerISt4pairIiiEEEE19parse_number_helperILb1ELc48EEclILm2EEEPKcSt17integral_constantImXT_EE
FNA:6,16,_ZNK5boost4json12basic_parserINS0_6detail12into_handlerISt5arrayIiLm4EEEEE19parse_number_helperILb0ELc0EEclILm0EEEPKcSt17integral_constantImXT_EE
FNA:6,0,_ZNK5boost4json12basic_parserINS0_6detail12into_handlerISt5arrayIiLm4EEEEE19parse_number_helperILb0ELc0EEclILm1EEEPKcSt17integral_constantImXT_EE
FNA:6,0,_ZNK5boost4json12basic_parserINS0_6detail12into_handlerISt5arrayIiLm4EEEEE19parse_number_helperILb0ELc0EEclILm2EEEPKcSt17integral_constantImXT_EE
FNA:6,44,_ZNK5boost4json12basic_parserINS0_6detail12into_handlerISt5arrayIiLm4EEEEE19parse_number_helperILb1ELc43EEclILm0EEEPKcSt17integral_constantImXT_EE
FNA:6,0,_ZNK5boost4json12basic_parserINS0_6detail12into_handlerISt5arrayIiLm4EEEEE19parse_number_helperILb1ELc43EEclILm1EEEPKcSt17integral_constantImXT_EE
FNA:6,0,_ZNK5boost4json12basic_parserINS0_6detail12into_handlerISt5arrayIiLm4EEEEE19parse_number_helperILb1ELc43EEclILm2EEEPKcSt17integral_constantImXT_EE
FNA:6,0,_ZNK5boost4json12basic_parserINS0_6detail12into_handlerISt5arrayIiLm4EEEEE19parse_number_helperILb1ELc45EEclILm0EEEPKcSt17integral_constantImXT_EE
FNA:6,0,_ZNK5boost4json12basic_parserINS0_6detail12into_handlerISt5arrayIiLm4EEEEE19parse_number_helperILb1ELc45EEclILm1EEEPKcSt17integral_constantImXT_EE
FNA:6,0,_ZNK5boost4json12basic_parserINS0_6detail12into_handlerISt5arrayIiLm4EEEEE19parse_number_helperILb1ELc45EEclILm2EEEPKcSt17integral_constantImXT_EE
FNA:6,0,_ZNK5boost4json12basic_parserINS0_6detail12into_handlerISt5arrayIiLm4EEEEE19parse_number_helperILb1ELc48EEclILm0EEEPKcSt17integral_constantImXT_EE
FNA:6,0,_ZNK5boost4json12basic_parserINS0_6detail12into_handlerISt5arrayIiLm4EEEEE19parse_number_helperILb1ELc48EEclILm1EEEPKcSt17integral_constantImXT_EE
FNA:6,0,_ZNK5boost4json12basic_parserINS0_6detail12into_handlerISt5arrayIiLm4EEEEE19parse_number_helperILb1ELc48EEclILm2EEEPKcSt17integral_constantImXT_EE
FNA:6,2,_ZNK5boost4json12basic_parserINS0_6detail12into_handlerISt5tupleIJSt6vectorIiSaIiEEEEEEE19parse_number_helperILb0ELc0EEclILm0EEEPKcSt17integral_constantImXT_EE
FNA:6,0,_ZNK5boost4json12basic_parserINS0_6detail12into_handlerISt5tupleIJSt6vectorIiSaIiEEEEEEE19parse_number_helperILb0ELc0EEclILm1EEEPKcSt17integral_constantImXT_EE
FNA:6,0,_ZNK5boost4json12basic_parserINS0_6detail12into_handlerISt5tupleIJSt6vectorIiSaIiEEEEEEE19parse_number_helperILb0ELc0EEclILm2EEEPKcSt17integral_constantImXT_EE
FNA:6,4,_ZNK5boost4json12basic_parserINS0_6detail12into_handlerISt5tupleIJSt6vectorIiSaIiEEEEEEE19parse_number_helperILb1ELc43EEclILm0EEEPKcSt17integral_constantImXT_EE
FNA:6,0,_ZNK5boost4json12basic_parserINS0_6detail12into_handlerISt5tupleIJSt6vectorIiSaIiEEEEEEE19parse_number_helperILb1ELc43EEclILm1EEEPKcSt17integral_constantImXT_EE
FNA:6,0,_ZNK5boost4json12basic_parserINS0_6detail12into_handlerISt5tupleIJSt6vectorIiSaIiEEEEEEE19parse_number_helperILb1ELc43EEclILm2EEEPKcSt17integral_constantImXT_EE
FNA:6,0,_ZNK5boost4json12basic_parserINS0_6detail12into_handlerISt5tupleIJSt6vectorIiSaIiEEEEEEE19parse_number_helperILb1ELc45EEclILm0EEEPKcSt17integral_constantImXT_EE
FNA:6,0,_ZNK5boost4json12basic_parserINS0_6detail12into_handlerISt5tupleIJSt6vectorIiSaIiEEEEEEE19parse_number_helperILb1ELc45EEclILm1EEEPKcSt17integral_constantImXT_EE
FNA:6,0,_ZNK5boost4json12basic_parserINS0_6detail12into_handlerISt5tupleIJSt6vectorIiSaIiEEEEEEE19parse_number_helperILb1ELc45EEclILm2EEEPKcSt17integral_constantImXT_EE
FNA:6,0,_ZNK5boost4json12basic_parserINS0_6detail12into_handlerISt5tupleIJSt6vectorIiSaIiEEEEEEE19parse_number_helperILb1ELc48EEclILm0EEEPKcSt17integral_constantImXT_EE
FNA:6,0,_ZNK5boost4json12basic_parserINS0_6detail12into_handlerISt5tupleIJSt6vectorIiSaIiEEEEEEE19parse_number_helperILb1ELc48EEclILm1EEEPKcSt17integral_constantImXT_EE
FNA:6,0,_ZNK5boost4json12basic_parserINS0_6detail12into_handlerISt5tupleIJSt6vectorIiSaIiEEEEEEE19parse_number_helperILb1ELc48EEclILm2EEEPKcSt17integral_constantImXT_EE
FNA:6,24,_ZNK5boost4json12basic_parserINS0_6detail12into_handlerISt5tupleIJifNSt7__cxx1112basic_stringIcSt11char_traitsIcESaIcEEEEEEEE19parse_number_helperILb0ELc0EEclILm0EEEPKcSt17integral_constantImXT_EE
FNA:6,0,_ZNK5boost4json12basic_parserINS0_6detail12into_handlerISt5tupleIJifNSt7__cxx1112basic_stringIcSt11char_traitsIcESaIcEEEEEEEE19parse_number_helperILb0ELc0EEclILm1EEEPKcSt17integral_constantImXT_EE
FNA:6,0,_ZNK5boost4json12basic_parserINS0_6detail12into_handlerISt5tupleIJifNSt7__cxx1112basic_stringIcSt11char_traitsIcESaIcEEEEEEEE19parse_number_helperILb0ELc0EEclILm2EEEPKcSt17integral_constantImXT_EE
FNA:6,14,_ZNK5boost4json12basic_parserINS0_6detail12into_handlerISt5tupleIJifNSt7__cxx1112basic_stringIcSt11char_traitsIcESaIcEEEEEEEE19parse_number_helperILb1ELc43EEclILm0EEEPKcSt17integral_constantImXT_EE
FNA:6,0,_ZNK5boost4json12basic_parserINS0_6detail12into_handlerISt5tupleIJifNSt7__cxx1112basic_stringIcSt11char_traitsIcESaIcEEEEEEEE19parse_number_helperILb1ELc43EEclILm1EEEPKcSt17integral_constantImXT_EE
FNA:6,0,_ZNK5boost4json12basic_parserINS0_6detail12into_handlerISt5tupleIJifNSt7__cxx1112basic_stringIcSt11char_traitsIcESaIcEEEEEEEE19parse_number_helperILb1ELc43EEclILm2EEEPKcSt17integral_constantImXT_EE
FNA:6,0,_ZNK5boost4json12basic_parserINS0_6detail12into_handlerISt5tupleIJifNSt7__cxx1112basic_stringIcSt11char_traitsIcESaIcEEEEEEEE19parse_number_helperILb1ELc45EEclILm0EEEPKcSt17integral_constantImXT_EE
FNA:6,0,_ZNK5boost4json12basic_parserINS0_6detail12into_handlerISt5tupleIJifNSt7__cxx1112basic_stringIcSt11char_traitsIcESaIcEEEEEEEE19parse_number_helperILb1ELc45EEclILm1EEEPKcSt17integral_constantImXT_EE
FNA:6,0,_ZNK5boost4json12basic_parserINS0_6detail12into_handlerISt5tupleIJifNSt7__cxx1112basic_stringIcSt11char_traitsIcESaIcEEEEEEEE19parse_number_helperILb1ELc45EEclILm2EEEPKcSt17integral_constantImXT_EE
FNA:6,14,_ZNK5boost4json12basic_parserINS0_6detail12into_handlerISt5tupleIJifNSt7__cxx1112basic_stringIcSt11char_traitsIcESaIcEEEEEEEE19parse_number_helperILb1ELc48EEclILm0EEEPKcSt17integral_constantImXT_EE
FNA:6,0,_ZNK5boost4json12basic_parserINS0_6detail12into_handlerISt5tupleIJifNSt7__cxx1112basic_stringIcSt11char_traitsIcESaIcEEEEEEEE19parse_number_helperILb1ELc48EEclILm1EEEPKcSt17integral_constantImXT_EE
FNA:6,0,_ZNK5boost4json12basic_parserINS0_6detail12into_handlerISt5tupleIJifNSt7__cxx1112basic_stringIcSt11char_traitsIcESaIcEEEEEEEE19parse_number_helperILb1ELc48EEclILm2EEEPKcSt17integral_constantImXT_EE
FNA:6,2,_ZNK5boost4json12basic_parserINS0_6detail12into_handlerISt5tupleIJiiiEEEEE19parse_number_helperILb0ELc0EEclILm0EEEPKcSt17integral_constantImXT_EE
FNA:6,0,_ZNK5boost4json12basic_parserINS0_6detail12into_handlerISt5tupleIJiiiEEEEE19parse_number_helperILb0ELc0EEclILm1EEEPKcSt17integral_constantImXT_EE
FNA:6,0,_ZNK5boost4json12basic_parserINS0_6detail12into_handlerISt5tupleIJiiiEEEEE19parse_number_helperILb0ELc0EEclILm2EEEPKcSt17integral_constantImXT_EE
FNA:6,4,_ZNK5boost4json12basic_parserINS0_6detail12into_handlerISt5tupleIJiiiEEEEE19parse_number_helperILb1ELc43EEclILm0EEEPKcSt17integral_constantImXT_EE
FNA:6,0,_ZNK5boost4json12basic_parserINS0_6detail12into_handlerISt5tupleIJiiiEEEEE19parse_number_helperILb1ELc43EEclILm1EEEPKcSt17integral_constantImXT_EE
FNA:6,0,_ZNK5boost4json12basic_parserINS0_6detail12into_handlerISt5tupleIJiiiEEEEE19parse_number_helperILb1ELc43EEclILm2EEEPKcSt17integral_constantImXT_EE
FNA:6,0,_ZNK5boost4json12basic_parserINS0_6detail12into_handlerISt5tupleIJiiiEEEEE19parse_number_helperILb1ELc45EEclILm0EEEPKcSt17integral_constantImXT_EE
FNA:6,0,_ZNK5boost4json12basic_parserINS0_6detail12into_handlerISt5tupleIJiiiEEEEE19parse_number_helperILb1ELc45EEclILm1EEEPKcSt17integral_constantImXT_EE
FNA:6,0,_ZNK5boost4json12basic_parserINS0_6detail12into_handlerISt5tupleIJiiiEEEEE19parse_number_helperILb1ELc45EEclILm2EEEPKcSt17integral_constantImXT_EE
FNA:6,0,_ZNK5boost4json12basic_parserINS0_6detail12into_handlerISt5tupleIJiiiEEEEE19parse_number_helperILb1ELc48EEclILm0EEEPKcSt17integral_constantImXT_EE
FNA:6,0,_ZNK5boost4json12basic_parserINS0_6detail12into_handlerISt5tupleIJiiiEEEEE19parse_number_helperILb1ELc48EEclILm1EEEPKcSt17integral_constantImXT_EE
FNA:6,0,_ZNK5boost4json12basic_parserINS0_6detail12into_handlerISt5tupleIJiiiEEEEE19parse_number_helperILb1ELc48EEclILm2EEEPKcSt17integral_constantImXT_EE
FNA:6,0,_ZNK5boost4json12basic_parserINS0_6detail12into_handlerISt6vectorIDnSaIDnEEEEE19parse_number_helperILb0ELc0EEclILm0EEEPKcSt17integral_constantImXT_EE
FNA:6,0,_ZNK5boost4json12basic_parserINS0_6detail12into_handlerISt6vectorIDnSaIDnEEEEE19parse_number_helperILb0ELc0EEclILm1EEEPKcSt17integral_constantImXT_EE
FNA:6,0,_ZNK5boost4json12basic_parserINS0_6detail12into_handlerISt6vectorIDnSaIDnEEEEE19parse_number_helperILb0ELc0EEclILm2EEEPKcSt17integral_constantImXT_EE
FNA:6,0,_ZNK5boost4json12basic_parserINS0_6detail12into_handlerISt6vectorIDnSaIDnEEEEE19parse_number_helperILb1ELc43EEclILm0EEEPKcSt17integral_constantImXT_EE
FNA:6,0,_ZNK5boost4json12basic_parserINS0_6detail12into_handlerISt6vectorIDnSaIDnEEEEE19parse_number_helperILb1ELc43EEclILm1EEEPKcSt17integral_constantImXT_EE
FNA:6,0,_ZNK5boost4json12basic_parserINS0_6detail12into_handlerISt6vectorIDnSaIDnEEEEE19parse_number_helperILb1ELc43EEclILm2EEEPKcSt17integral_constantImXT_EE
FNA:6,0,_ZNK5boost4json12basic_parserINS0_6detail12into_handlerISt6vectorIDnSaIDnEEEEE19parse_number_helperILb1ELc45EEclILm0EEEPKcSt17integral_constantImXT_EE
FNA:6,0,_ZNK5boost4json12basic_parserINS0_6detail12into_handlerISt6vectorIDnSaIDnEEEEE19parse_number_helperILb1ELc45EEclILm1EEEPKcSt17integral_constantImXT_EE
FNA:6,0,_ZNK5boost4json12basic_parserINS0_6detail12into_handlerISt6vectorIDnSaIDnEEEEE19parse_number_helperILb1ELc45EEclILm2EEEPKcSt17integral_constantImXT_EE
FNA:6,0,_ZNK5boost4json12basic_parserINS0_6detail12into_handlerISt6vectorIDnSaIDnEEEEE19parse_number_helperILb1ELc48EEclILm0EEEPKcSt17integral_constantImXT_EE
FNA:6,0,_ZNK5boost4json12basic_parserINS0_6detail12into_handlerISt6vectorIDnSaIDnEEEEE19parse_number_helperILb1ELc48EEclILm1EEEPKcSt17integral_constantImXT_EE
FNA:6,0,_ZNK5boost4json12basic_parserINS0_6detail12into_handlerISt6vectorIDnSaIDnEEEEE19parse_number_helperILb1ELc48EEclILm2EEEPKcSt17integral_constantImXT_EE
FNA:6,5,_ZNK5boost4json12basic_parserINS0_6detail12into_handlerISt6vectorINS_8variant27variantIJiNSt7__cxx1112basic_stringIcSt11char_traitsIcESaIcEEEEEESaISD_EEEEE19parse_number_helperILb0ELc0EEclILm0EEEPKcSt17integral_constantImXT_EE
FNA:6,0,_ZNK5boost4json12basic_parserINS0_6detail12into_handlerISt6vectorINS_8variant27variantIJiNSt7__cxx1112basic_stringIcSt11char_traitsIcESaIcEEEEEESaISD_EEEEE19parse_number_helperILb0ELc0EEclILm1EEEPKcSt17integral_constantImXT_EE
FNA:6,0,_ZNK5boost4json12basic_parserINS0_6detail12into_handlerISt6vectorINS_8variant27variantIJiNSt7__cxx1112basic_stringIcSt11char_traitsIcESaIcEEEEEESaISD_EEEEE19parse_number_helperILb0ELc0EEclILm2EEEPKcSt17integral_constantImXT_EE
FNA:6,35,_ZNK5boost4json12basic_parserINS0_6detail12into_handlerISt6vectorINS_8variant27variantIJiNSt7__cxx1112basic_stringIcSt11char_traitsIcESaIcEEEEEESaISD_EEEEE19parse_number_helperILb1ELc43EEclILm0EEEPKcSt17integral_constantImXT_EE
FNA:6,0,_ZNK5boost4json12basic_parserINS0_6detail12into_handlerISt6vectorINS_8variant27variantIJiNSt7__cxx1112basic_stringIcSt11char_traitsIcESaIcEEEEEESaISD_EEEEE19parse_number_helperILb1ELc43EEclILm1EEEPKcSt17integral_constantImXT_EE
FNA:6,0,_ZNK5boost4json12basic_parserINS0_6detail12into_handlerISt6vectorINS_8variant27variantIJiNSt7__cxx1112basic_stringIcSt11char_traitsIcESaIcEEEEEESaISD_EEEEE19parse_number_helperILb1ELc43EEclILm2EEEPKcSt17integral_constantImXT_EE
FNA:6,0,_ZNK5boost4json12basic_parserINS0_6detail12into_handlerISt6vectorINS_8variant27variantIJiNSt7__cxx1112basic_stringIcSt11char_traitsIcESaIcEEEEEESaISD_EEEEE19parse_number_helperILb1ELc45EEclILm0EEEPKcSt17integral_constantImXT_EE
FNA:6,0,_ZNK5boost4json12basic_parserINS0_6detail12into_handlerISt6vectorINS_8variant27variantIJiNSt7__cxx1112basic_stringIcSt11char_traitsIcESaIcEEEEEESaISD_EEEEE19parse_number_helperILb1ELc45EEclILm1EEEPKcSt17integral_constantImXT_EE
FNA:6,0,_ZNK5boost4json12basic_parserINS0_6detail12into_handlerISt6vectorINS_8variant27variantIJiNSt7__cxx1112basic_stringIcSt11char_traitsIcESaIcEEEEEESaISD_EEEEE19parse_number_helperILb1ELc45EEclILm2EEEPKcSt17integral_constantImXT_EE
FNA:6,0,_ZNK5boost4json12basic_parserINS0_6detail12into_handlerISt6vectorINS_8variant27variantIJiNSt7__cxx1112basic_stringIcSt11char_traitsIcESaIcEEEEEESaISD_EEEEE19parse_number_helperILb1ELc48EEclILm0EEEPKcSt17integral_constantImXT_EE
FNA:6,0,_ZNK5boost4json12basic_parserINS0_6detail12into_handlerISt6vectorINS_8variant27variantIJiNSt7__cxx1112basic_stringIcSt11char_traitsIcESaIcEEEEEESaISD_EEEEE19parse_number_helperILb1ELc48EEclILm1EEEPKcSt17integral_constantImXT_EE
FNA:6,0,_ZNK5boost4json12basic_parserINS0_6detail12into_handlerISt6vectorINS_8variant27variantIJiNSt7__cxx1112basic_stringIcSt11char_traitsIcESaIcEEEEEESaISD_EEEEE19parse_number_helperILb1ELc48EEclILm2EEEPKcSt17integral_constantImXT_EE
FNA:6,0,_ZNK5boost4json12basic_parserINS0_6detail12into_handlerISt6vectorINSt7__cxx1112basic_stringIcSt11char_traitsIcESaIcEEESaISA_EEEEE19parse_number_helperILb0ELc0EEclILm0EEEPKcSt17integral_constantImXT_EE
FNA:6,0,_ZNK5boost4json12basic_parserINS0_6detail12into_handlerISt6vectorINSt7__cxx1112basic_stringIcSt11char_traitsIcESaIcEEESaISA_EEEEE19parse_number_helperILb0ELc0EEclILm1EEEPKcSt17integral_constantImXT_EE
FNA:6,0,_ZNK5boost4json12basic_parserINS0_6detail12into_handlerISt6vectorINSt7__cxx1112basic_stringIcSt11char_traitsIcESaIcEEESaISA_EEEEE19parse_number_helperILb0ELc0EEclILm2EEEPKcSt17integral_constantImXT_EE
FNA:6,0,_ZNK5boost4json12basic_parserINS0_6detail12into_handlerISt6vectorINSt7__cxx1112basic_stringIcSt11char_traitsIcESaIcEEESaISA_EEEEE19parse_number_helperILb1ELc43EEclILm0EEEPKcSt17integral_constantImXT_EE
FNA:6,0,_ZNK5boost4json12basic_parserINS0_6detail12into_handlerISt6vectorINSt7__cxx1112basic_stringIcSt11char_traitsIcESaIcEEESaISA_EEEEE19parse_number_helperILb1ELc43EEclILm1EEEPKcSt17integral_constantImXT_EE
FNA:6,0,_ZNK5boost4json12basic_parserINS0_6detail12into_handlerISt6vectorINSt7__cxx1112basic_stringIcSt11char_traitsIcESaIcEEESaISA_EEEEE19parse_number_helperILb1ELc43EEclILm2EEEPKcSt17integral_constantImXT_EE
FNA:6,0,_ZNK5boost4json12basic_parserINS0_6detail12into_handlerISt6vectorINSt7__cxx1112basic_stringIcSt11char_traitsIcESaIcEEESaISA_EEEEE19parse_number_helperILb1ELc45EEclILm0EEEPKcSt17integral_constantImXT_EE
FNA:6,0,_ZNK5boost4json12basic_parserINS0_6detail12into_handlerISt6vectorINSt7__cxx1112basic_stringIcSt11char_traitsIcESaIcEEESaISA_EEEEE19parse_number_helperILb1ELc45EEclILm1EEEPKcSt17integral_constantImXT_EE
FNA:6,0,_ZNK5boost4json12basic_parserINS0_6detail12into_handlerISt6vectorINSt7__cxx1112basic_stringIcSt11char_traitsIcESaIcEEESaISA_EEEEE19parse_number_helperILb1ELc45EEclILm2EEEPKcSt17integral_constantImXT_EE
FNA:6,0,_ZNK5boost4json12basic_parserINS0_6detail12into_handlerISt6vectorINSt7__cxx1112basic_stringIcSt11char_traitsIcESaIcEEESaISA_EEEEE19parse_number_helperILb1ELc48EEclILm0EEEPKcSt17integral_constantImXT_EE
FNA:6,0,_ZNK5boost4json12basic_parserINS0_6detail12into_handlerISt6vectorINSt7__cxx1112basic_stringIcSt11char_traitsIcESaIcEEESaISA_EEEEE19parse_number_helperILb1ELc48EEclILm1EEEPKcSt17integral_constantImXT_EE
FNA:6,0,_ZNK5boost4json12basic_parserINS0_6detail12into_handlerISt6vectorINSt7__cxx1112basic_stringIcSt11char_traitsIcESaIcEEESaISA_EEEEE19parse_number_helperILb1ELc48EEclILm2EEEPKcSt17integral_constantImXT_EE
FNA:6,12,_ZNK5boost4json12basic_parserINS0_6detail12into_handlerISt6vectorIS4_ISt4pairIiiESaIS6_EESaIS8_EEEEE19parse_number_helperILb0ELc0EEclILm0EEEPKcSt17integral_constantImXT_EE
FNA:6,0,_ZNK5boost4json12basic_parserINS0_6detail12into_handlerISt6vectorIS4_ISt4pairIiiESaIS6_EESaIS8_EEEEE19parse_number_helperILb0ELc0EEclILm1EEEPKcSt17integral_constantImXT_EE
FNA:6,0,_ZNK5boost4json12basic_parserINS0_6detail12into_handlerISt6vectorIS4_ISt4pairIiiESaIS6_EESaIS8_EEEEE19parse_number_helperILb0ELc0EEclILm2EEEPKcSt17integral_constantImXT_EE
FNA:6,84,_ZNK5boost4json12basic_parserINS0_6detail12into_handlerISt6vectorIS4_ISt4pairIiiESaIS6_EESaIS8_EEEEE19parse_number_helperILb1ELc43EEclILm0EEEPKcSt17integral_constantImXT_EE
FNA:6,0,_ZNK5boost4json12basic_parserINS0_6detail12into_handlerISt6vectorIS4_ISt4pairIiiESaIS6_EESaIS8_EEEEE19parse_number_helperILb1ELc43EEclILm1EEEPKcSt17integral_constantImXT_EE
FNA:6,0,_ZNK5boost4json12basic_parserINS0_6detail12into_handlerISt6vectorIS4_ISt4pairIiiESaIS6_EESaIS8_EEEEE19parse_number_helperILb1ELc43EEclILm2EEEPKcSt17integral_constantImXT_EE
FNA:6,0,_ZNK5boost4json12basic_parserINS0_6detail12into_handlerISt6vectorIS4_ISt4pairIiiESaIS6_EESaIS8_EEEEE19parse_number_helperILb1ELc45EEclILm0EEEPKcSt17integral_constantImXT_EE
FNA:6,0,_ZNK5boost4json12basic_parserINS0_6detail12into_handlerISt6vectorIS4_ISt4pairIiiESaIS6_EESaIS8_EEEEE19parse_number_helperILb1ELc45EEclILm1EEEPKcSt17integral_constantImXT_EE
FNA:6,0,_ZNK5boost4json12basic_parserINS0_6detail12into_handlerISt6vectorIS4_ISt4pairIiiESaIS6_EESaIS8_EEEEE19parse_number_helperILb1ELc45EEclILm2EEEPKcSt17integral_constantImXT_EE
FNA:6,0,_ZNK5boost4json12basic_parserINS0_6detail12into_handlerISt6vectorIS4_ISt4pairIiiESaIS6_EESaIS8_EEEEE19parse_number_helperILb1ELc48EEclILm0EEEPKcSt17integral_constantImXT_EE
FNA:6,0,_ZNK5boost4json12basic_parserINS0_6detail12into_handlerISt6vectorIS4_ISt4pairIiiESaIS6_EESaIS8_EEEEE19parse_number_helperILb1ELc48EEclILm1EEEPKcSt17integral_constantImXT_EE
FNA:6,0,_ZNK5boost4json12basic_parserINS0_6detail12into_handlerISt6vectorIS4_ISt4pairIiiESaIS6_EESaIS8_EEEEE19parse_number_helperILb1ELc48EEclILm2EEEPKcSt17integral_constantImXT_EE
FNA:6,6,_ZNK5boost4json12basic_parserINS0_6detail12into_handlerISt6vectorIS4_IiSaIiEESaIS6_EEEEE19parse_number_helperILb0ELc0EEclILm0EEEPKcSt17integral_constantImXT_EE
FNA:6,0,_ZNK5boost4json12basic_parserINS0_6detail12into_handlerISt6vectorIS4_IiSaIiEESaIS6_EEEEE19parse_number_helperILb0ELc0EEclILm1EEEPKcSt17integral_constantImXT_EE
FNA:6,0,_ZNK5boost4json12basic_parserINS0_6detail12into_handlerISt6vectorIS4_IiSaIiEESaIS6_EEEEE19parse_number_helperILb0ELc0EEclILm2EEEPKcSt17integral_constantImXT_EE
FNA:6,44,_ZNK5boost4json12basic_parserINS0_6detail12into_handlerISt6vectorIS4_IiSaIiEESaIS6_EEEEE19parse_number_helperILb1ELc43EEclILm0EEEPKcSt17integral_constantImXT_EE
FNA:6,0,_ZNK5boost4json12basic_parserINS0_6detail12into_handlerISt6vectorIS4_IiSaIiEESaIS6_EEEEE19parse_number_helperILb1ELc43EEclILm1EEEPKcSt17integral_constantImXT_EE
FNA:6,0,_ZNK5boost4json12basic_parserINS0_6detail12into_handlerISt6vectorIS4_IiSaIiEESaIS6_EEEEE19parse_number_helperILb1ELc43EEclILm2EEEPKcSt17integral_constantImXT_EE
FNA:6,0,_ZNK5boost4json12basic_parserINS0_6detail12into_handlerISt6vectorIS4_IiSaIiEESaIS6_EEEEE19parse_number_helperILb1ELc45EEclILm0EEEPKcSt17integral_constantImXT_EE
FNA:6,0,_ZNK5boost4json12basic_parserINS0_6detail12into_handlerISt6vectorIS4_IiSaIiEESaIS6_EEEEE19parse_number_helperILb1ELc45EEclILm1EEEPKcSt17integral_constantImXT_EE
FNA:6,0,_ZNK5boost4json12basic_parserINS0_6detail12into_handlerISt6vectorIS4_IiSaIiEESaIS6_EEEEE19parse_number_helperILb1ELc45EEclILm2EEEPKcSt17integral_constantImXT_EE
FNA:6,0,_ZNK5boost4json12basic_parserINS0_6detail12into_handlerISt6vectorIS4_IiSaIiEESaIS6_EEEEE19parse_number_helperILb1ELc48EEclILm0EEEPKcSt17integral_constantImXT_EE
FNA:6,0,_ZNK5boost4json12basic_parserINS0_6detail12into_handlerISt6vectorIS4_IiSaIiEESaIS6_EEEEE19parse_number_helperILb1ELc48EEclILm1EEEPKcSt17integral_constantImXT_EE
FNA:6,0,_ZNK5boost4json12basic_parserINS0_6detail12into_handlerISt6vectorIS4_IiSaIiEESaIS6_EEEEE19parse_number_helperILb1ELc48EEclILm2EEEPKcSt17integral_constantImXT_EE
FNA:6,3,_ZNK5boost4json12basic_parserINS0_6detail12into_handlerISt6vectorISt3mapINSt7__cxx1112basic_stringIcSt11char_traitsIcESaIcEEEiSt4lessISB_ESaISt4pairIKSB_iEEESaISI_EEEEE19parse_number_helperILb0ELc0EEclILm0EEEPKcSt17integral_constantImXT_EE
FNA:6,0,_ZNK5boost4json12basic_parserINS0_6detail12into_handlerISt6vectorISt3mapINSt7__cxx1112basic_stringIcSt11char_traitsIcESaIcEEEiSt4lessISB_ESaISt4pairIKSB_iEEESaISI_EEEEE19parse_number_helperILb0ELc0EEclILm1EEEPKcSt17integral_constantImXT_EE
FNA:6,0,_ZNK5boost4json12basic_parserINS0_6detail12into_handlerISt6vectorISt3mapINSt7__cxx1112basic_stringIcSt11char_traitsIcESaIcEEEiSt4lessISB_ESaISt4pairIKSB_iEEESaISI_EEEEE19parse_number_helperILb0ELc0EEclILm2EEEPKcSt17integral_constantImXT_EE
FNA:6,21,_ZNK5boost4json12basic_parserINS0_6detail12into_handlerISt6vectorISt3mapINSt7__cxx1112basic_stringIcSt11char_traitsIcESaIcEEEiSt4lessISB_ESaISt4pairIKSB_iEEESaISI_EEEEE19parse_number_helperILb1ELc43EEclILm0EEEPKcSt17integral_constantImXT_EE
FNA:6,0,_ZNK5boost4json12basic_parserINS0_6detail12into_handlerISt6vectorISt3mapINSt7__cxx1112basic_stringIcSt11char_traitsIcESaIcEEEiSt4lessISB_ESaISt4pairIKSB_iEEESaISI_EEEEE19parse_number_helperILb1ELc43EEclILm1EEEPKcSt17integral_constantImXT_EE
FNA:6,0,_ZNK5boost4json12basic_parserINS0_6detail12into_handlerISt6vectorISt3mapINSt7__cxx1112basic_stringIcSt11char_traitsIcESaIcEEEiSt4lessISB_ESaISt4pairIKSB_iEEESaISI_EEEEE19parse_number_helperILb1ELc43EEclILm2EEEPKcSt17integral_constantImXT_EE
FNA:6,0,_ZNK5boost4json12basic_parserINS0_6detail12into_handlerISt6vectorISt3mapINSt7__cxx1112basic_stringIcSt11char_traitsIcESaIcEEEiSt4lessISB_ESaISt4pairIKSB_iEEESaISI_EEEEE19parse_number_helperILb1ELc45EEclILm0EEEPKcSt17integral_constantImXT_EE
FNA:6,0,_ZNK5boost4json12basic_parserINS0_6detail12into_handlerISt6vectorISt3mapINSt7__cxx1112basic_stringIcSt11char_traitsIcESaIcEEEiSt4lessISB_ESaISt4pairIKSB_iEEESaISI_EEEEE19parse_number_helperILb1ELc45EEclILm1EEEPKcSt17integral_constantImXT_EE
FNA:6,0,_ZNK5boost4json12basic_parserINS0_6detail12into_handlerISt6vectorISt3mapINSt7__cxx1112basic_stringIcSt11char_traitsIcESaIcEEEiSt4lessISB_ESaISt4pairIKSB_iEEESaISI_EEEEE19parse_number_helperILb1ELc45EEclILm2EEEPKcSt17integral_constantImXT_EE
FNA:6,0,_ZNK5boost4json12basic_parserINS0_6detail12into_handlerISt6vectorISt3mapINSt7__cxx1112basic_stringIcSt11char_traitsIcESaIcEEEiSt4lessISB_ESaISt4pairIKSB_iEEESaISI_EEEEE19parse_number_helperILb1ELc48EEclILm0EEEPKcSt17integral_constantImXT_EE
FNA:6,0,_ZNK5boost4json12basic_parserINS0_6detail12into_handlerISt6vectorISt3mapINSt7__cxx1112basic_stringIcSt11char_traitsIcESaIcEEEiSt4lessISB_ESaISt4pairIKSB_iEEESaISI_EEEEE19parse_number_helperILb1ELc48EEclILm1EEEPKcSt17integral_constantImXT_EE
FNA:6,0,_ZNK5boost4json12basic_parserINS0_6detail12into_handlerISt6vectorISt3mapINSt7__cxx1112basic_stringIcSt11char_traitsIcESaIcEEEiSt4lessISB_ESaISt4pairIKSB_iEEESaISI_EEEEE19parse_number_helperILb1ELc48EEclILm2EEEPKcSt17integral_constantImXT_EE
FNA:6,4,_ZNK5boost4json12basic_parserINS0_6detail12into_handlerISt6vectorISt4pairIiiESaIS6_EEEEE19parse_number_helperILb0ELc0EEclILm0EEEPKcSt17integral_constantImXT_EE
FNA:6,0,_ZNK5boost4json12basic_parserINS0_6detail12into_handlerISt6vectorISt4pairIiiESaIS6_EEEEE19parse_number_helperILb0ELc0EEclILm1EEEPKcSt17integral_constantImXT_EE
FNA:6,0,_ZNK5boost4json12basic_parserINS0_6detail12into_handlerISt6vectorISt4pairIiiESaIS6_EEEEE19parse_number_helperILb0ELc0EEclILm2EEEPKcSt17integral_constantImXT_EE
FNA:6,28,_ZNK5boost4json12basic_parserINS0_6detail12into_handlerISt6vectorISt4pairIiiESaIS6_EEEEE19parse_number_helperILb1ELc43EEclILm0EEEPKcSt17integral_constantImXT_EE
FNA:6,0,_ZNK5boost4json12basic_parserINS0_6detail12into_handlerISt6vectorISt4pairIiiESaIS6_EEEEE19parse_number_helperILb1ELc43EEclILm1EEEPKcSt17integral_constantImXT_EE
FNA:6,0,_ZNK5boost4json12basic_parserINS0_6detail12into_handlerISt6vectorISt4pairIiiESaIS6_EEEEE19parse_number_helperILb1ELc43EEclILm2EEEPKcSt17integral_constantImXT_EE
FNA:6,0,_ZNK5boost4json12basic_parserINS0_6detail12into_handlerISt6vectorISt4pairIiiESaIS6_EEEEE19parse_number_helperILb1ELc45EEclILm0EEEPKcSt17integral_constantImXT_EE
FNA:6,0,_ZNK5boost4json12basic_parserINS0_6detail12into_handlerISt6vectorISt4pairIiiESaIS6_EEEEE19parse_number_helperILb1ELc45EEclILm1EEEPKcSt17integral_constantImXT_EE
FNA:6,0,_ZNK5boost4json12basic_parserINS0_6detail12into_handlerISt6vectorISt4pairIiiESaIS6_EEEEE19parse_number_helperILb1ELc45EEclILm2EEEPKcSt17integral_constantImXT_EE
FNA:6,0,_ZNK5boost4json12basic_parserINS0_6detail12into_handlerISt6vectorISt4pairIiiESaIS6_EEEEE19parse_number_helperILb1ELc48EEclILm0EEEPKcSt17integral_constantImXT_EE
FNA:6,0,_ZNK5boost4json12basic_parserINS0_6detail12into_handlerISt6vectorISt4pairIiiESaIS6_EEEEE19parse_number_helperILb1ELc48EEclILm1EEEPKcSt17integral_constantImXT_EE
FNA:6,0,_ZNK5boost4json12basic_parserINS0_6detail12into_handlerISt6vectorISt4pairIiiESaIS6_EEEEE19parse_number_helperILb1ELc48EEclILm2EEEPKcSt17integral_constantImXT_EE
FNA:6,24,_ZNK5boost4json12basic_parserINS0_6detail12into_handlerISt6vectorISt5arrayIiLm4EESaIS6_EEEEE19parse_number_helperILb0ELc0EEclILm0EEEPKcSt17integral_constantImXT_EE
FNA:6,0,_ZNK5boost4json12basic_parserINS0_6detail12into_handlerISt6vectorISt5arrayIiLm4EESaIS6_EEEEE19parse_number_helperILb0ELc0EEclILm1EEEPKcSt17integral_constantImXT_EE
FNA:6,0,_ZNK5boost4json12basic_parserINS0_6detail12into_handlerISt6vectorISt5arrayIiLm4EESaIS6_EEEEE19parse_number_helperILb0ELc0EEclILm2EEEPKcSt17integral_constantImXT_EE
FNA:6,84,_ZNK5boost4json12basic_parserINS0_6detail12into_handlerISt6vectorISt5arrayIiLm4EESaIS6_EEEEE19parse_number_helperILb1ELc43EEclILm0EEEPKcSt17integral_constantImXT_EE
FNA:6,0,_ZNK5boost4json12basic_parserINS0_6detail12into_handlerISt6vectorISt5arrayIiLm4EESaIS6_EEEEE19parse_number_helperILb1ELc43EEclILm1EEEPKcSt17integral_constantImXT_EE
FNA:6,0,_ZNK5boost4json12basic_parserINS0_6detail12into_handlerISt6vectorISt5arrayIiLm4EESaIS6_EEEEE19parse_number_helperILb1ELc43EEclILm2EEEPKcSt17integral_constantImXT_EE
FNA:6,0,_ZNK5boost4json12basic_parserINS0_6detail12into_handlerISt6vectorISt5arrayIiLm4EESaIS6_EEEEE19parse_number_helperILb1ELc45EEclILm0EEEPKcSt17integral_constantImXT_EE
FNA:6,0,_ZNK5boost4json12basic_parserINS0_6detail12into_handlerISt6vectorISt5arrayIiLm4EESaIS6_EEEEE19parse_number_helperILb1ELc45EEclILm1EEEPKcSt17integral_constantImXT_EE
FNA:6,0,_ZNK5boost4json12basic_parserINS0_6detail12into_handlerISt6vectorISt5arrayIiLm4EESaIS6_EEEEE19parse_number_helperILb1ELc45EEclILm2EEEPKcSt17integral_constantImXT_EE
FNA:6,0,_ZNK5boost4json12basic_parserINS0_6detail12into_handlerISt6vectorISt5arrayIiLm4EESaIS6_EEEEE19parse_number_helperILb1ELc48EEclILm0EEEPKcSt17integral_constantImXT_EE
FNA:6,0,_ZNK5boost4json12basic_parserINS0_6detail12into_handlerISt6vectorISt5arrayIiLm4EESaIS6_EEEEE19parse_number_helperILb1ELc48EEclILm1EEEPKcSt17integral_constantImXT_EE
FNA:6,0,_ZNK5boost4json12basic_parserINS0_6detail12into_handlerISt6vectorISt5arrayIiLm4EESaIS6_EEEEE19parse_number_helperILb1ELc48EEclILm2EEEPKcSt17integral_constantImXT_EE
FNA:6,0,_ZNK5boost4json12basic_parserINS0_6detail12into_handlerISt6vectorIbSaIbEEEEE19parse_number_helperILb0ELc0EEclILm0EEEPKcSt17integral_constantImXT_EE
FNA:6,0,_ZNK5boost4json12basic_parserINS0_6detail12into_handlerISt6vectorIbSaIbEEEEE19parse_number_helperILb0ELc0EEclILm1EEEPKcSt17integral_constantImXT_EE
FNA:6,0,_ZNK5boost4json12basic_parserINS0_6detail12into_handlerISt6vectorIbSaIbEEEEE19parse_number_helperILb0ELc0EEclILm2EEEPKcSt17integral_constantImXT_EE
FNA:6,0,_ZNK5boost4json12basic_parserINS0_6detail12into_handlerISt6vectorIbSaIbEEEEE19parse_number_helperILb1ELc43EEclILm0EEEPKcSt17integral_constantImXT_EE
FNA:6,0,_ZNK5boost4json12basic_parserINS0_6detail12into_handlerISt6vectorIbSaIbEEEEE19parse_number_helperILb1ELc43EEclILm1EEEPKcSt17integral_constantImXT_EE
FNA:6,0,_ZNK5boost4json12basic_parserINS0_6detail12into_handlerISt6vectorIbSaIbEEEEE19parse_number_helperILb1ELc43EEclILm2EEEPKcSt17integral_constantImXT_EE
FNA:6,0,_ZNK5boost4json12basic_parserINS0_6detail12into_handlerISt6vectorIbSaIbEEEEE19parse_number_helperILb1ELc45EEclILm0EEEPKcSt17integral_constantImXT_EE
FNA:6,0,_ZNK5boost4json12basic_parserINS0_6detail12into_handlerISt6vectorIbSaIbEEEEE19parse_number_helperILb1ELc45EEclILm1EEEPKcSt17integral_constantImXT_EE
FNA:6,0,_ZNK5boost4json12basic_parserINS0_6detail12into_handlerISt6vectorIbSaIbEEEEE19parse_number_helperILb1ELc45EEclILm2EEEPKcSt17integral_constantImXT_EE
FNA:6,0,_ZNK5boost4json12basic_parserINS0_6detail12into_handlerISt6vectorIbSaIbEEEEE19parse_number_helperILb1ELc48EEclILm0EEEPKcSt17integral_constantImXT_EE
FNA:6,0,_ZNK5boost4json12basic_parserINS0_6detail12into_handlerISt6vectorIbSaIbEEEEE19parse_number_helperILb1ELc48EEclILm1EEEPKcSt17integral_constantImXT_EE
FNA:6,0,_ZNK5boost4json12basic_parserINS0_6detail12into_handlerISt6vectorIbSaIbEEEEE19parse_number_helperILb1ELc48EEclILm2EEEPKcSt17integral_constantImXT_EE
FNA:6,0,_ZNK5boost4json12basic_parserINS0_6detail12into_handlerISt6vectorIcSaIcEEEEE19parse_number_helperILb0ELc0EEclILm0EEEPKcSt17integral_constantImXT_EE
FNA:6,0,_ZNK5boost4json12basic_parserINS0_6detail12into_handlerISt6vectorIcSaIcEEEEE19parse_number_helperILb0ELc0EEclILm1EEEPKcSt17integral_constantImXT_EE
FNA:6,0,_ZNK5boost4json12basic_parserINS0_6detail12into_handlerISt6vectorIcSaIcEEEEE19parse_number_helperILb0ELc0EEclILm2EEEPKcSt17integral_constantImXT_EE
FNA:6,0,_ZNK5boost4json12basic_parserINS0_6detail12into_handlerISt6vectorIcSaIcEEEEE19parse_number_helperILb1ELc43EEclILm0EEEPKcSt17integral_constantImXT_EE
FNA:6,0,_ZNK5boost4json12basic_parserINS0_6detail12into_handlerISt6vectorIcSaIcEEEEE19parse_number_helperILb1ELc43EEclILm1EEEPKcSt17integral_constantImXT_EE
FNA:6,0,_ZNK5boost4json12basic_parserINS0_6detail12into_handlerISt6vectorIcSaIcEEEEE19parse_number_helperILb1ELc43EEclILm2EEEPKcSt17integral_constantImXT_EE
FNA:6,0,_ZNK5boost4json12basic_parserINS0_6detail12into_handlerISt6vectorIcSaIcEEEEE19parse_number_helperILb1ELc45EEclILm0EEEPKcSt17integral_constantImXT_EE
FNA:6,0,_ZNK5boost4json12basic_parserINS0_6detail12into_handlerISt6vectorIcSaIcEEEEE19parse_number_helperILb1ELc45EEclILm1EEEPKcSt17integral_constantImXT_EE
FNA:6,0,_ZNK5boost4json12basic_parserINS0_6detail12into_handlerISt6vectorIcSaIcEEEEE19parse_number_helperILb1ELc45EEclILm2EEEPKcSt17integral_constantImXT_EE
FNA:6,0,_ZNK5boost4json12basic_parserINS0_6detail12into_handlerISt6vectorIcSaIcEEEEE19parse_number_helperILb1ELc48EEclILm0EEEPKcSt17integral_constantImXT_EE
FNA:6,0,_ZNK5boost4json12basic_parserINS0_6detail12into_handlerISt6vectorIcSaIcEEEEE19parse_number_helperILb1ELc48EEclILm1EEEPKcSt17integral_constantImXT_EE
FNA:6,0,_ZNK5boost4json12basic_parserINS0_6detail12into_handlerISt6vectorIcSaIcEEEEE19parse_number_helperILb1ELc48EEclILm2EEEPKcSt17integral_constantImXT_EE
FNA:6,58,_ZNK5boost4json12basic_parserINS0_6detail12into_handlerISt6vectorIfSaIfEEEEE19parse_number_helperILb0ELc0EEclILm0EEEPKcSt17integral_constantImXT_EE
FNA:6,0,_ZNK5boost4json12basic_parserINS0_6detail12into_handlerISt6vectorIfSaIfEEEEE19parse_number_helperILb0ELc0EEclILm1EEEPKcSt17integral_constantImXT_EE
FNA:6,0,_ZNK5boost4json12basic_parserINS0_6detail12into_handlerISt6vectorIfSaIfEEEEE19parse_number_helperILb0ELc0EEclILm2EEEPKcSt17integral_constantImXT_EE
FNA:6,21,_ZNK5boost4json12basic_parserINS0_6detail12into_handlerISt6vectorIfSaIfEEEEE19parse_number_helperILb1ELc43EEclILm0EEEPKcSt17integral_constantImXT_EE
FNA:6,0,_ZNK5boost4json12basic_parserINS0_6detail12into_handlerISt6vectorIfSaIfEEEEE19parse_number_helperILb1ELc43EEclILm1EEEPKcSt17integral_constantImXT_EE
FNA:6,0,_ZNK5boost4json12basic_parserINS0_6detail12into_handlerISt6vectorIfSaIfEEEEE19parse_number_helperILb1ELc43EEclILm2EEEPKcSt17integral_constantImXT_EE
FNA:6,0,_ZNK5boost4json12basic_parserINS0_6detail12into_handlerISt6vectorIfSaIfEEEEE19parse_number_helperILb1ELc45EEclILm0EEEPKcSt17integral_constantImXT_EE
FNA:6,0,_ZNK5boost4json12basic_parserINS0_6detail12into_handlerISt6vectorIfSaIfEEEEE19parse_number_helperILb1ELc45EEclILm1EEEPKcSt17integral_constantImXT_EE
FNA:6,0,_ZNK5boost4json12basic_parserINS0_6detail12into_handlerISt6vectorIfSaIfEEEEE19parse_number_helperILb1ELc45EEclILm2EEEPKcSt17integral_constantImXT_EE
FNA:6,0,_ZNK5boost4json12basic_parserINS0_6detail12into_handlerISt6vectorIfSaIfEEEEE19parse_number_helperILb1ELc48EEclILm0EEEPKcSt17integral_constantImXT_EE
FNA:6,0,_ZNK5boost4json12basic_parserINS0_6detail12into_handlerISt6vectorIfSaIfEEEEE19parse_number_helperILb1ELc48EEclILm1EEEPKcSt17integral_constantImXT_EE
FNA:6,0,_ZNK5boost4json12basic_parserINS0_6detail12into_handlerISt6vectorIfSaIfEEEEE19parse_number_helperILb1ELc48EEclILm2EEEPKcSt17integral_constantImXT_EE
FNA:6,3,_ZNK5boost4json12basic_parserINS0_6detail12into_handlerISt6vectorIiSaIiEEEEE19parse_number_helperILb0ELc0EEclILm0EEEPKcSt17integral_constantImXT_EE
FNA:6,0,_ZNK5boost4json12basic_parserINS0_6detail12into_handlerISt6vectorIiSaIiEEEEE19parse_number_helperILb0ELc0EEclILm1EEEPKcSt17integral_constantImXT_EE
FNA:6,0,_ZNK5boost4json12basic_parserINS0_6detail12into_handlerISt6vectorIiSaIiEEEEE19parse_number_helperILb0ELc0EEclILm2EEEPKcSt17integral_constantImXT_EE
FNA:6,30,_ZNK5boost4json12basic_parserINS0_6detail12into_handlerISt6vectorIiSaIiEEEEE19parse_number_helperILb1ELc43EEclILm0EEEPKcSt17integral_constantImXT_EE
FNA:6,0,_ZNK5boost4json12basic_parserINS0_6detail12into_handlerISt6vectorIiSaIiEEEEE19parse_number_helperILb1ELc43EEclILm1EEEPKcSt17integral_constantImXT_EE
FNA:6,0,_ZNK5boost4json12basic_parserINS0_6detail12into_handlerISt6vectorIiSaIiEEEEE19parse_number_helperILb1ELc43EEclILm2EEEPKcSt17integral_constantImXT_EE
FNA:6,0,_ZNK5boost4json12basic_parserINS0_6detail12into_handlerISt6vectorIiSaIiEEEEE19parse_number_helperILb1ELc45EEclILm0EEEPKcSt17integral_constantImXT_EE
FNA:6,0,_ZNK5boost4json12basic_parserINS0_6detail12into_handlerISt6vectorIiSaIiEEEEE19parse_number_helperILb1ELc45EEclILm1EEEPKcSt17integral_constantImXT_EE
FNA:6,0,_ZNK5boost4json12basic_parserINS0_6detail12into_handlerISt6vectorIiSaIiEEEEE19parse_number_helperILb1ELc45EEclILm2EEEPKcSt17integral_constantImXT_EE
FNA:6,0,_ZNK5boost4json12basic_parserINS0_6detail12into_handlerISt6vectorIiSaIiEEEEE19parse_number_helperILb1ELc48EEclILm0EEEPKcSt17integral_constantImXT_EE
FNA:6,0,_ZNK5boost4json12basic_parserINS0_6detail12into_handlerISt6vectorIiSaIiEEEEE19parse_number_helperILb1ELc48EEclILm1EEEPKcSt17integral_constantImXT_EE
FNA:6,0,_ZNK5boost4json12basic_parserINS0_6detail12into_handlerISt6vectorIiSaIiEEEEE19parse_number_helperILb1ELc48EEclILm2EEEPKcSt17integral_constantImXT_EE
FNA:6,22,_ZNK5boost4json12basic_parserINS0_6detail12into_handlerISt6vectorImSaImEEEEE19parse_number_helperILb0ELc0EEclILm0EEEPKcSt17integral_constantImXT_EE
FNA:6,0,_ZNK5boost4json12basic_parserINS0_6detail12into_handlerISt6vectorImSaImEEEEE19parse_number_helperILb0ELc0EEclILm1EEEPKcSt17integral_constantImXT_EE
FNA:6,0,_ZNK5boost4json12basic_parserINS0_6detail12into_handlerISt6vectorImSaImEEEEE19parse_number_helperILb0ELc0EEclILm2EEEPKcSt17integral_constantImXT_EE
FNA:6,21,_ZNK5boost4json12basic_parserINS0_6detail12into_handlerISt6vectorImSaImEEEEE19parse_number_helperILb1ELc43EEclILm0EEEPKcSt17integral_constantImXT_EE
FNA:6,0,_ZNK5boost4json12basic_parserINS0_6detail12into_handlerISt6vectorImSaImEEEEE19parse_number_helperILb1ELc43EEclILm1EEEPKcSt17integral_constantImXT_EE
FNA:6,0,_ZNK5boost4json12basic_parserINS0_6detail12into_handlerISt6vectorImSaImEEEEE19parse_number_helperILb1ELc43EEclILm2EEEPKcSt17integral_constantImXT_EE
FNA:6,0,_ZNK5boost4json12basic_parserINS0_6detail12into_handlerISt6vectorImSaImEEEEE19parse_number_helperILb1ELc45EEclILm0EEEPKcSt17integral_constantImXT_EE
FNA:6,0,_ZNK5boost4json12basic_parserINS0_6detail12into_handlerISt6vectorImSaImEEEEE19parse_number_helperILb1ELc45EEclILm1EEEPKcSt17integral_constantImXT_EE
FNA:6,0,_ZNK5boost4json12basic_parserINS0_6detail12into_handlerISt6vectorImSaImEEEEE19parse_number_helperILb1ELc45EEclILm2EEEPKcSt17integral_constantImXT_EE
FNA:6,0,_ZNK5boost4json12basic_parserINS0_6detail12into_handlerISt6vectorImSaImEEEEE19parse_number_helperILb1ELc48EEclILm0EEEPKcSt17integral_constantImXT_EE
FNA:6,0,_ZNK5boost4json12basic_parserINS0_6detail12into_handlerISt6vectorImSaImEEEEE19parse_number_helperILb1ELc48EEclILm1EEEPKcSt17integral_constantImXT_EE
FNA:6,0,_ZNK5boost4json12basic_parserINS0_6detail12into_handlerISt6vectorImSaImEEEEE19parse_number_helperILb1ELc48EEclILm2EEEPKcSt17integral_constantImXT_EE
FNA:6,7,_ZNK5boost4json12basic_parserINS0_6detail12into_handlerIaEEE19parse_number_helperILb0ELc0EEclILm0EEEPKcSt17integral_constantImXT_EE
FNA:6,0,_ZNK5boost4json12basic_parserINS0_6detail12into_handlerIaEEE19parse_number_helperILb0ELc0EEclILm1EEEPKcSt17integral_constantImXT_EE
FNA:6,0,_ZNK5boost4json12basic_parserINS0_6detail12into_handlerIaEEE19parse_number_helperILb0ELc0EEclILm2EEEPKcSt17integral_constantImXT_EE
FNA:6,0,_ZNK5boost4json12basic_parserINS0_6detail12into_handlerIaEEE19parse_number_helperILb1ELc43EEclILm0EEEPKcSt17integral_constantImXT_EE
FNA:6,0,_ZNK5boost4json12basic_parserINS0_6detail12into_handlerIaEEE19parse_number_helperILb1ELc43EEclILm1EEEPKcSt17integral_constantImXT_EE
FNA:6,0,_ZNK5boost4json12basic_parserINS0_6detail12into_handlerIaEEE19parse_number_helperILb1ELc43EEclILm2EEEPKcSt17integral_constantImXT_EE
FNA:6,7,_ZNK5boost4json12basic_parserINS0_6detail12into_handlerIaEEE19parse_number_helperILb1ELc45EEclILm0EEEPKcSt17integral_constantImXT_EE
FNA:6,0,_ZNK5boost4json12basic_parserINS0_6detail12into_handlerIaEEE19parse_number_helperILb1ELc45EEclILm1EEEPKcSt17integral_constantImXT_EE
FNA:6,0,_ZNK5boost4json12basic_parserINS0_6detail12into_handlerIaEEE19parse_number_helperILb1ELc45EEclILm2EEEPKcSt17integral_constantImXT_EE
FNA:6,0,_ZNK5boost4json12basic_parserINS0_6detail12into_handlerIaEEE19parse_number_helperILb1ELc48EEclILm0EEEPKcSt17integral_constantImXT_EE
FNA:6,0,_ZNK5boost4json12basic_parserINS0_6detail12into_handlerIaEEE19parse_number_helperILb1ELc48EEclILm1EEEPKcSt17integral_constantImXT_EE
FNA:6,0,_ZNK5boost4json12basic_parserINS0_6detail12into_handlerIaEEE19parse_number_helperILb1ELc48EEclILm2EEEPKcSt17integral_constantImXT_EE
FNA:6,0,_ZNK5boost4json12basic_parserINS0_6detail12into_handlerIbEEE19parse_number_helperILb0ELc0EEclILm0EEEPKcSt17integral_constantImXT_EE
FNA:6,0,_ZNK5boost4json12basic_parserINS0_6detail12into_handlerIbEEE19parse_number_helperILb0ELc0EEclILm1EEEPKcSt17integral_constantImXT_EE
FNA:6,0,_ZNK5boost4json12basic_parserINS0_6detail12into_handlerIbEEE19parse_number_helperILb0ELc0EEclILm2EEEPKcSt17integral_constantImXT_EE
FNA:6,0,_ZNK5boost4json12basic_parserINS0_6detail12into_handlerIbEEE19parse_number_helperILb1ELc43EEclILm0EEEPKcSt17integral_constantImXT_EE
FNA:6,0,_ZNK5boost4json12basic_parserINS0_6detail12into_handlerIbEEE19parse_number_helperILb1ELc43EEclILm1EEEPKcSt17integral_constantImXT_EE
FNA:6,0,_ZNK5boost4json12basic_parserINS0_6detail12into_handlerIbEEE19parse_number_helperILb1ELc43EEclILm2EEEPKcSt17integral_constantImXT_EE
FNA:6,0,_ZNK5boost4json12basic_parserINS0_6detail12into_handlerIbEEE19parse_number_helperILb1ELc45EEclILm0EEEPKcSt17integral_constantImXT_EE
FNA:6,0,_ZNK5boost4json12basic_parserINS0_6detail12into_handlerIbEEE19parse_number_helperILb1ELc45EEclILm1EEEPKcSt17integral_constantImXT_EE
FNA:6,0,_ZNK5boost4json12basic_parserINS0_6detail12into_handlerIbEEE19parse_number_helperILb1ELc45EEclILm2EEEPKcSt17integral_constantImXT_EE
FNA:6,0,_ZNK5boost4json12basic_parserINS0_6detail12into_handlerIbEEE19parse_number_helperILb1ELc48EEclILm0EEEPKcSt17integral_constantImXT_EE
FNA:6,0,_ZNK5boost4json12basic_parserINS0_6detail12into_handlerIbEEE19parse_number_helperILb1ELc48EEclILm1EEEPKcSt17integral_constantImXT_EE
FNA:6,0,_ZNK5boost4json12basic_parserINS0_6detail12into_handlerIbEEE19parse_number_helperILb1ELc48EEclILm2EEEPKcSt17integral_constantImXT_EE
FNA:6,5,_ZNK5boost4json12basic_parserINS0_6detail12into_handlerIcEEE19parse_number_helperILb0ELc0EEclILm0EEEPKcSt17integral_constantImXT_EE
FNA:6,0,_ZNK5boost4json12basic_parserINS0_6detail12into_handlerIcEEE19parse_number_helperILb0ELc0EEclILm1EEEPKcSt17integral_constantImXT_EE
FNA:6,0,_ZNK5boost4json12basic_parserINS0_6detail12into_handlerIcEEE19parse_number_helperILb0ELc0EEclILm2EEEPKcSt17integral_constantImXT_EE
FNA:6,7,_ZNK5boost4json12basic_parserINS0_6detail12into_handlerIcEEE19parse_number_helperILb1ELc43EEclILm0EEEPKcSt17integral_constantImXT_EE
FNA:6,0,_ZNK5boost4json12basic_parserINS0_6detail12into_handlerIcEEE19parse_number_helperILb1ELc43EEclILm1EEEPKcSt17integral_constantImXT_EE
FNA:6,0,_ZNK5boost4json12basic_parserINS0_6detail12into_handlerIcEEE19parse_number_helperILb1ELc43EEclILm2EEEPKcSt17integral_constantImXT_EE
FNA:6,0,_ZNK5boost4json12basic_parserINS0_6detail12into_handlerIcEEE19parse_number_helperILb1ELc45EEclILm0EEEPKcSt17integral_constantImXT_EE
FNA:6,0,_ZNK5boost4json12basic_parserINS0_6detail12into_handlerIcEEE19parse_number_helperILb1ELc45EEclILm1EEEPKcSt17integral_constantImXT_EE
FNA:6,0,_ZNK5boost4json12basic_parserINS0_6detail12into_handlerIcEEE19parse_number_helperILb1ELc45EEclILm2EEEPKcSt17integral_constantImXT_EE
FNA:6,0,_ZNK5boost4json12basic_parserINS0_6detail12into_handlerIcEEE19parse_number_helperILb1ELc48EEclILm0EEEPKcSt17integral_constantImXT_EE
FNA:6,0,_ZNK5boost4json12basic_parserINS0_6detail12into_handlerIcEEE19parse_number_helperILb1ELc48EEclILm1EEEPKcSt17integral_constantImXT_EE
FNA:6,0,_ZNK5boost4json12basic_parserINS0_6detail12into_handlerIcEEE19parse_number_helperILb1ELc48EEclILm2EEEPKcSt17integral_constantImXT_EE
FNA:6,10,_ZNK5boost4json12basic_parserINS0_6detail12into_handlerIdEEE19parse_number_helperILb0ELc0EEclILm0EEEPKcSt17integral_constantImXT_EE
FNA:6,0,_ZNK5boost4json12basic_parserINS0_6detail12into_handlerIdEEE19parse_number_helperILb0ELc0EEclILm1EEEPKcSt17integral_constantImXT_EE
FNA:6,0,_ZNK5boost4json12basic_parserINS0_6detail12into_handlerIdEEE19parse_number_helperILb0ELc0EEclILm2EEEPKcSt17integral_constantImXT_EE
FNA:6,9,_ZNK5boost4json12basic_parserINS0_6detail12into_handlerIdEEE19parse_number_helperILb1ELc43EEclILm0EEEPKcSt17integral_constantImXT_EE
FNA:6,0,_ZNK5boost4json12basic_parserINS0_6detail12into_handlerIdEEE19parse_number_helperILb1ELc43EEclILm1EEEPKcSt17integral_constantImXT_EE
FNA:6,0,_ZNK5boost4json12basic_parserINS0_6detail12into_handlerIdEEE19parse_number_helperILb1ELc43EEclILm2EEEPKcSt17integral_constantImXT_EE
FNA:6,0,_ZNK5boost4json12basic_parserINS0_6detail12into_handlerIdEEE19parse_number_helperILb1ELc45EEclILm0EEEPKcSt17integral_constantImXT_EE
FNA:6,0,_ZNK5boost4json12basic_parserINS0_6detail12into_handlerIdEEE19parse_number_helperILb1ELc45EEclILm1EEEPKcSt17integral_constantImXT_EE
FNA:6,0,_ZNK5boost4json12basic_parserINS0_6detail12into_handlerIdEEE19parse_number_helperILb1ELc45EEclILm2EEEPKcSt17integral_constantImXT_EE
FNA:6,0,_ZNK5boost4json12basic_parserINS0_6detail12into_handlerIdEEE19parse_number_helperILb1ELc48EEclILm0EEEPKcSt17integral_constantImXT_EE
FNA:6,0,_ZNK5boost4json12basic_parserINS0_6detail12into_handlerIdEEE19parse_number_helperILb1ELc48EEclILm1EEEPKcSt17integral_constantImXT_EE
FNA:6,0,_ZNK5boost4json12basic_parserINS0_6detail12into_handlerIdEEE19parse_number_helperILb1ELc48EEclILm2EEEPKcSt17integral_constantImXT_EE
FNA:6,9,_ZNK5boost4json12basic_parserINS0_6detail12into_handlerIfEEE19parse_number_helperILb0ELc0EEclILm0EEEPKcSt17integral_constantImXT_EE
FNA:6,0,_ZNK5boost4json12basic_parserINS0_6detail12into_handlerIfEEE19parse_number_helperILb0ELc0EEclILm1EEEPKcSt17integral_constantImXT_EE
FNA:6,0,_ZNK5boost4json12basic_parserINS0_6detail12into_handlerIfEEE19parse_number_helperILb0ELc0EEclILm2EEEPKcSt17integral_constantImXT_EE
FNA:6,7,_ZNK5boost4json12basic_parserINS0_6detail12into_handlerIfEEE19parse_number_helperILb1ELc43EEclILm0EEEPKcSt17integral_constantImXT_EE
FNA:6,0,_ZNK5boost4json12basic_parserINS0_6detail12into_handlerIfEEE19parse_number_helperILb1ELc43EEclILm1EEEPKcSt17integral_constantImXT_EE
FNA:6,0,_ZNK5boost4json12basic_parserINS0_6detail12into_handlerIfEEE19parse_number_helperILb1ELc43EEclILm2EEEPKcSt17integral_constantImXT_EE
FNA:6,0,_ZNK5boost4json12basic_parserINS0_6detail12into_handlerIfEEE19parse_number_helperILb1ELc45EEclILm0EEEPKcSt17integral_constantImXT_EE
FNA:6,0,_ZNK5boost4json12basic_parserINS0_6detail12into_handlerIfEEE19parse_number_helperILb1ELc45EEclILm1EEEPKcSt17integral_constantImXT_EE
FNA:6,0,_ZNK5boost4json12basic_parserINS0_6detail12into_handlerIfEEE19parse_number_helperILb1ELc45EEclILm2EEEPKcSt17integral_constantImXT_EE
FNA:6,0,_ZNK5boost4json12basic_parserINS0_6detail12into_handlerIfEEE19parse_number_helperILb1ELc48EEclILm0EEEPKcSt17integral_constantImXT_EE
FNA:6,0,_ZNK5boost4json12basic_parserINS0_6detail12into_handlerIfEEE19parse_number_helperILb1ELc48EEclILm1EEEPKcSt17integral_constantImXT_EE
FNA:6,0,_ZNK5boost4json12basic_parserINS0_6detail12into_handlerIfEEE19parse_number_helperILb1ELc48EEclILm2EEEPKcSt17integral_constantImXT_EE
FNA:6,6,_ZNK5boost4json12basic_parserINS0_6detail12into_handlerIhEEE19parse_number_helperILb0ELc0EEclILm0EEEPKcSt17integral_constantImXT_EE
FNA:6,0,_ZNK5boost4json12basic_parserINS0_6detail12into_handlerIhEEE19parse_number_helperILb0ELc0EEclILm1EEEPKcSt17integral_constantImXT_EE
FNA:6,0,_ZNK5boost4json12basic_parserINS0_6detail12into_handlerIhEEE19parse_number_helperILb0ELc0EEclILm2EEEPKcSt17integral_constantImXT_EE
FNA:6,7,_ZNK5boost4json12basic_parserINS0_6detail12into_handlerIhEEE19parse_number_helperILb1ELc43EEclILm0EEEPKcSt17integral_constantImXT_EE
FNA:6,0,_ZNK5boost4json12basic_parserINS0_6detail12into_handlerIhEEE19parse_number_helperILb1ELc43EEclILm1EEEPKcSt17integral_constantImXT_EE
FNA:6,0,_ZNK5boost4json12basic_parserINS0_6detail12into_handlerIhEEE19parse_number_helperILb1ELc43EEclILm2EEEPKcSt17integral_constantImXT_EE
FNA:6,0,_ZNK5boost4json12basic_parserINS0_6detail12into_handlerIhEEE19parse_number_helperILb1ELc45EEclILm0EEEPKcSt17integral_constantImXT_EE
FNA:6,0,_ZNK5boost4json12basic_parserINS0_6detail12into_handlerIhEEE19parse_number_helperILb1ELc45EEclILm1EEEPKcSt17integral_constantImXT_EE
FNA:6,0,_ZNK5boost4json12basic_parserINS0_6detail12into_handlerIhEEE19parse_number_helperILb1ELc45EEclILm2EEEPKcSt17integral_constantImXT_EE
FNA:6,0,_ZNK5boost4json12basic_parserINS0_6detail12into_handlerIhEEE19parse_number_helperILb1ELc48EEclILm0EEEPKcSt17integral_constantImXT_EE
FNA:6,0,_ZNK5boost4json12basic_parserINS0_6detail12into_handlerIhEEE19parse_number_helperILb1ELc48EEclILm1EEEPKcSt17integral_constantImXT_EE
FNA:6,0,_ZNK5boost4json12basic_parserINS0_6detail12into_handlerIhEEE19parse_number_helperILb1ELc48EEclILm2EEEPKcSt17integral_constantImXT_EE
FNA:6,49,_ZNK5boost4json12basic_parserINS0_6detail12into_handlerIiEEE19parse_number_helperILb0ELc0EEclILm0EEEPKcSt17integral_constantImXT_EE
FNA:6,0,_ZNK5boost4json12basic_parserINS0_6detail12into_handlerIiEEE19parse_number_helperILb0ELc0EEclILm1EEEPKcSt17integral_constantImXT_EE
FNA:6,0,_ZNK5boost4json12basic_parserINS0_6detail12into_handlerIiEEE19parse_number_helperILb0ELc0EEclILm2EEEPKcSt17integral_constantImXT_EE
FNA:6,4,_ZNK5boost4json12basic_parserINS0_6detail12into_handlerIiEEE19parse_number_helperILb1ELc43EEclILm0EEEPKcSt17integral_constantImXT_EE
FNA:6,0,_ZNK5boost4json12basic_parserINS0_6detail12into_handlerIiEEE19parse_number_helperILb1ELc43EEclILm1EEEPKcSt17integral_constantImXT_EE
FNA:6,0,_ZNK5boost4json12basic_parserINS0_6detail12into_handlerIiEEE19parse_number_helperILb1ELc43EEclILm2EEEPKcSt17integral_constantImXT_EE
FNA:6,9,_ZNK5boost4json12basic_parserINS0_6detail12into_handlerIiEEE19parse_number_helperILb1ELc45EEclILm0EEEPKcSt17integral_constantImXT_EE
FNA:6,0,_ZNK5boost4json12basic_parserINS0_6detail12into_handlerIiEEE19parse_number_helperILb1ELc45EEclILm1EEEPKcSt17integral_constantImXT_EE
FNA:6,0,_ZNK5boost4json12basic_parserINS0_6detail12into_handlerIiEEE19parse_number_helperILb1ELc45EEclILm2EEEPKcSt17integral_constantImXT_EE
FNA:6,0,_ZNK5boost4json12basic_parserINS0_6detail12into_handlerIiEEE19parse_number_helperILb1ELc48EEclILm0EEEPKcSt17integral_constantImXT_EE
FNA:6,0,_ZNK5boost4json12basic_parserINS0_6detail12into_handlerIiEEE19parse_number_helperILb1ELc48EEclILm1EEEPKcSt17integral_constantImXT_EE
FNA:6,0,_ZNK5boost4json12basic_parserINS0_6detail12into_handlerIiEEE19parse_number_helperILb1ELc48EEclILm2EEEPKcSt17integral_constantImXT_EE
FNA:6,8,_ZNK5boost4json12basic_parserINS0_6detail12into_handlerIjEEE19parse_number_helperILb0ELc0EEclILm0EEEPKcSt17integral_constantImXT_EE
FNA:6,0,_ZNK5boost4json12basic_parserINS0_6detail12into_handlerIjEEE19parse_number_helperILb0ELc0EEclILm1EEEPKcSt17integral_constantImXT_EE
FNA:6,0,_ZNK5boost4json12basic_parserINS0_6detail12into_handlerIjEEE19parse_number_helperILb0ELc0EEclILm2EEEPKcSt17integral_constantImXT_EE
FNA:6,7,_ZNK5boost4json12basic_parserINS0_6detail12into_handlerIjEEE19parse_number_helperILb1ELc43EEclILm0EEEPKcSt17integral_constantImXT_EE
FNA:6,0,_ZNK5boost4json12basic_parserINS0_6detail12into_handlerIjEEE19parse_number_helperILb1ELc43EEclILm1EEEPKcSt17integral_constantImXT_EE
FNA:6,0,_ZNK5boost4json12basic_parserINS0_6detail12into_handlerIjEEE19parse_number_helperILb1ELc43EEclILm2EEEPKcSt17integral_constantImXT_EE
FNA:6,0,_ZNK5boost4json12basic_parserINS0_6detail12into_handlerIjEEE19parse_number_helperILb1ELc45EEclILm0EEEPKcSt17integral_constantImXT_EE
FNA:6,0,_ZNK5boost4json12basic_parserINS0_6detail12into_handlerIjEEE19parse_number_helperILb1ELc45EEclILm1EEEPKcSt17integral_constantImXT_EE
FNA:6,0,_ZNK5boost4json12basic_parserINS0_6detail12into_handlerIjEEE19parse_number_helperILb1ELc45EEclILm2EEEPKcSt17integral_constantImXT_EE
FNA:6,0,_ZNK5boost4json12basic_parserINS0_6detail12into_handlerIjEEE19parse_number_helperILb1ELc48EEclILm0EEEPKcSt17integral_constantImXT_EE
FNA:6,0,_ZNK5boost4json12basic_parserINS0_6detail12into_handlerIjEEE19parse_number_helperILb1ELc48EEclILm1EEEPKcSt17integral_constantImXT_EE
FNA:6,0,_ZNK5boost4json12basic_parserINS0_6detail12into_handlerIjEEE19parse_number_helperILb1ELc48EEclILm2EEEPKcSt17integral_constantImXT_EE
FNA:6,23,_ZNK5boost4json12basic_parserINS0_6detail12into_handlerIlEEE19parse_number_helperILb0ELc0EEclILm0EEEPKcSt17integral_constantImXT_EE
FNA:6,0,_ZNK5boost4json12basic_parserINS0_6detail12into_handlerIlEEE19parse_number_helperILb0ELc0EEclILm1EEEPKcSt17integral_constantImXT_EE
FNA:6,0,_ZNK5boost4json12basic_parserINS0_6detail12into_handlerIlEEE19parse_number_helperILb0ELc0EEclILm2EEEPKcSt17integral_constantImXT_EE
FNA:6,0,_ZNK5boost4json12basic_parserINS0_6detail12into_handlerIlEEE19parse_number_helperILb1ELc43EEclILm0EEEPKcSt17integral_constantImXT_EE
FNA:6,0,_ZNK5boost4json12basic_parserINS0_6detail12into_handlerIlEEE19parse_number_helperILb1ELc43EEclILm1EEEPKcSt17integral_constantImXT_EE
FNA:6,0,_ZNK5boost4json12basic_parserINS0_6detail12into_handlerIlEEE19parse_number_helperILb1ELc43EEclILm2EEEPKcSt17integral_constantImXT_EE
FNA:6,7,_ZNK5boost4json12basic_parserINS0_6detail12into_handlerIlEEE19parse_number_helperILb1ELc45EEclILm0EEEPKcSt17integral_constantImXT_EE
FNA:6,0,_ZNK5boost4json12basic_parserINS0_6detail12into_handlerIlEEE19parse_number_helperILb1ELc45EEclILm1EEEPKcSt17integral_constantImXT_EE
FNA:6,0,_ZNK5boost4json12basic_parserINS0_6detail12into_handlerIlEEE19parse_number_helperILb1ELc45EEclILm2EEEPKcSt17integral_constantImXT_EE
FNA:6,0,_ZNK5boost4json12basic_parserINS0_6detail12into_handlerIlEEE19parse_number_helperILb1ELc48EEclILm0EEEPKcSt17integral_constantImXT_EE
FNA:6,0,_ZNK5boost4json12basic_parserINS0_6detail12into_handlerIlEEE19parse_number_helperILb1ELc48EEclILm1EEEPKcSt17integral_constantImXT_EE
FNA:6,0,_ZNK5boost4json12basic_parserINS0_6detail12into_handlerIlEEE19parse_number_helperILb1ELc48EEclILm2EEEPKcSt17integral_constantImXT_EE
FNA:6,23,_ZNK5boost4json12basic_parserINS0_6detail12into_handlerImEEE19parse_number_helperILb0ELc0EEclILm0EEEPKcSt17integral_constantImXT_EE
FNA:6,0,_ZNK5boost4json12basic_parserINS0_6detail12into_handlerImEEE19parse_number_helperILb0ELc0EEclILm1EEEPKcSt17integral_constantImXT_EE
FNA:6,0,_ZNK5boost4json12basic_parserINS0_6detail12into_handlerImEEE19parse_number_helperILb0ELc0EEclILm2EEEPKcSt17integral_constantImXT_EE
FNA:6,7,_ZNK5boost4json12basic_parserINS0_6detail12into_handlerImEEE19parse_number_helperILb1ELc43EEclILm0EEEPKcSt17integral_constantImXT_EE
FNA:6,0,_ZNK5boost4json12basic_parserINS0_6detail12into_handlerImEEE19parse_number_helperILb1ELc43EEclILm1EEEPKcSt17integral_constantImXT_EE
FNA:6,0,_ZNK5boost4json12basic_parserINS0_6detail12into_handlerImEEE19parse_number_helperILb1ELc43EEclILm2EEEPKcSt17integral_constantImXT_EE
FNA:6,0,_ZNK5boost4json12basic_parserINS0_6detail12into_handlerImEEE19parse_number_helperILb1ELc45EEclILm0EEEPKcSt17integral_constantImXT_EE
FNA:6,0,_ZNK5boost4json12basic_parserINS0_6detail12into_handlerImEEE19parse_number_helperILb1ELc45EEclILm1EEEPKcSt17integral_constantImXT_EE
FNA:6,0,_ZNK5boost4json12basic_parserINS0_6detail12into_handlerImEEE19parse_number_helperILb1ELc45EEclILm2EEEPKcSt17integral_constantImXT_EE
FNA:6,0,_ZNK5boost4json12basic_parserINS0_6detail12into_handlerImEEE19parse_number_helperILb1ELc48EEclILm0EEEPKcSt17integral_constantImXT_EE
FNA:6,0,_ZNK5boost4json12basic_parserINS0_6detail12into_handlerImEEE19parse_number_helperILb1ELc48EEclILm1EEEPKcSt17integral_constantImXT_EE
FNA:6,0,_ZNK5boost4json12basic_parserINS0_6detail12into_handlerImEEE19parse_number_helperILb1ELc48EEclILm2EEEPKcSt17integral_constantImXT_EE
FNA:6,9,_ZNK5boost4json12basic_parserINS0_6detail12into_handlerIsEEE19parse_number_helperILb0ELc0EEclILm0EEEPKcSt17integral_constantImXT_EE
FNA:6,0,_ZNK5boost4json12basic_parserINS0_6detail12into_handlerIsEEE19parse_number_helperILb0ELc0EEclILm1EEEPKcSt17integral_constantImXT_EE
FNA:6,0,_ZNK5boost4json12basic_parserINS0_6detail12into_handlerIsEEE19parse_number_helperILb0ELc0EEclILm2EEEPKcSt17integral_constantImXT_EE
FNA:6,0,_ZNK5boost4json12basic_parserINS0_6detail12into_handlerIsEEE19parse_number_helperILb1ELc43EEclILm0EEEPKcSt17integral_constantImXT_EE
FNA:6,0,_ZNK5boost4json12basic_parserINS0_6detail12into_handlerIsEEE19parse_number_helperILb1ELc43EEclILm1EEEPKcSt17integral_constantImXT_EE
FNA:6,0,_ZNK5boost4json12basic_parserINS0_6detail12into_handlerIsEEE19parse_number_helperILb1ELc43EEclILm2EEEPKcSt17integral_constantImXT_EE
FNA:6,7,_ZNK5boost4json12basic_parserINS0_6detail12into_handlerIsEEE19parse_number_helperILb1ELc45EEclILm0EEEPKcSt17integral_constantImXT_EE
FNA:6,0,_ZNK5boost4json12basic_parserINS0_6detail12into_handlerIsEEE19parse_number_helperILb1ELc45EEclILm1EEEPKcSt17integral_constantImXT_EE
FNA:6,0,_ZNK5boost4json12basic_parserINS0_6detail12into_handlerIsEEE19parse_number_helperILb1ELc45EEclILm2EEEPKcSt17integral_constantImXT_EE
FNA:6,0,_ZNK5boost4json12basic_parserINS0_6detail12into_handlerIsEEE19parse_number_helperILb1ELc48EEclILm0EEEPKcSt17integral_constantImXT_EE
FNA:6,0,_ZNK5boost4json12basic_parserINS0_6detail12into_handlerIsEEE19parse_number_helperILb1ELc48EEclILm1EEEPKcSt17integral_constantImXT_EE
FNA:6,0,_ZNK5boost4json12basic_parserINS0_6detail12into_handlerIsEEE19parse_number_helperILb1ELc48EEclILm2EEEPKcSt17integral_constantImXT_EE
FNA:6,8,_ZNK5boost4json12basic_parserINS0_6detail12into_handlerItEEE19parse_number_helperILb0ELc0EEclILm0EEEPKcSt17integral_constantImXT_EE
FNA:6,0,_ZNK5boost4json12basic_parserINS0_6detail12into_handlerItEEE19parse_number_helperILb0ELc0EEclILm1EEEPKcSt17integral_constantImXT_EE
FNA:6,0,_ZNK5boost4json12basic_parserINS0_6detail12into_handlerItEEE19parse_number_helperILb0ELc0EEclILm2EEEPKcSt17integral_constantImXT_EE
FNA:6,7,_ZNK5boost4json12basic_parserINS0_6detail12into_handlerItEEE19parse_number_helperILb1ELc43EEclILm0EEEPKcSt17integral_constantImXT_EE
FNA:6,0,_ZNK5boost4json12basic_parserINS0_6detail12into_handlerItEEE19parse_number_helperILb1ELc43EEclILm1EEEPKcSt17integral_constantImXT_EE
FNA:6,0,_ZNK5boost4json12basic_parserINS0_6detail12into_handlerItEEE19parse_number_helperILb1ELc43EEclILm2EEEPKcSt17integral_constantImXT_EE
FNA:6,0,_ZNK5boost4json12basic_parserINS0_6detail12into_handlerItEEE19parse_number_helperILb1ELc45EEclILm0EEEPKcSt17integral_constantImXT_EE
FNA:6,0,_ZNK5boost4json12basic_parserINS0_6detail12into_handlerItEEE19parse_number_helperILb1ELc45EEclILm1EEEPKcSt17integral_constantImXT_EE
FNA:6,0,_ZNK5boost4json12basic_parserINS0_6detail12into_handlerItEEE19parse_number_helperILb1ELc45EEclILm2EEEPKcSt17integral_constantImXT_EE
FNA:6,0,_ZNK5boost4json12basic_parserINS0_6detail12into_handlerItEEE19parse_number_helperILb1ELc48EEclILm0EEEPKcSt17integral_constantImXT_EE
FNA:6,0,_ZNK5boost4json12basic_parserINS0_6detail12into_handlerItEEE19parse_number_helperILb1ELc48EEclILm1EEEPKcSt17integral_constantImXT_EE
FNA:6,0,_ZNK5boost4json12basic_parserINS0_6detail12into_handlerItEEE19parse_number_helperILb1ELc48EEclILm2EEEPKcSt17integral_constantImXT_EE
FNA:6,23,_ZNK5boost4json12basic_parserINS0_6detail12into_handlerIxEEE19parse_number_helperILb0ELc0EEclILm0EEEPKcSt17integral_constantImXT_EE
FNA:6,0,_ZNK5boost4json12basic_parserINS0_6detail12into_handlerIxEEE19parse_number_helperILb0ELc0EEclILm1EEEPKcSt17integral_constantImXT_EE
FNA:6,0,_ZNK5boost4json12basic_parserINS0_6detail12into_handlerIxEEE19parse_number_helperILb0ELc0EEclILm2EEEPKcSt17integral_constantImXT_EE
FNA:6,0,_ZNK5boost4json12basic_parserINS0_6detail12into_handlerIxEEE19parse_number_helperILb1ELc43EEclILm0EEEPKcSt17integral_constantImXT_EE
FNA:6,0,_ZNK5boost4json12basic_parserINS0_6detail12into_handlerIxEEE19parse_number_helperILb1ELc43EEclILm1EEEPKcSt17integral_constantImXT_EE
FNA:6,0,_ZNK5boost4json12basic_parserINS0_6detail12into_handlerIxEEE19parse_number_helperILb1ELc43EEclILm2EEEPKcSt17integral_constantImXT_EE
FNA:6,7,_ZNK5boost4json12basic_parserINS0_6detail12into_handlerIxEEE19parse_number_helperILb1ELc45EEclILm0EEEPKcSt17integral_constantImXT_EE
FNA:6,0,_ZNK5boost4json12basic_parserINS0_6detail12into_handlerIxEEE19parse_number_helperILb1ELc45EEclILm1EEEPKcSt17integral_constantImXT_EE
FNA:6,0,_ZNK5boost4json12basic_parserINS0_6detail12into_handlerIxEEE19parse_number_helperILb1ELc45EEclILm2EEEPKcSt17integral_constantImXT_EE
FNA:6,0,_ZNK5boost4json12basic_parserINS0_6detail12into_handlerIxEEE19parse_number_helperILb1ELc48EEclILm0EEEPKcSt17integral_constantImXT_EE
FNA:6,0,_ZNK5boost4json12basic_parserINS0_6detail12into_handlerIxEEE19parse_number_helperILb1ELc48EEclILm1EEEPKcSt17integral_constantImXT_EE
FNA:6,0,_ZNK5boost4json12basic_parserINS0_6detail12into_handlerIxEEE19parse_number_helperILb1ELc48EEclILm2EEEPKcSt17integral_constantImXT_EE
FNA:6,23,_ZNK5boost4json12basic_parserINS0_6detail12into_handlerIyEEE19parse_number_helperILb0ELc0EEclILm0EEEPKcSt17integral_constantImXT_EE
FNA:6,0,_ZNK5boost4json12basic_parserINS0_6detail12into_handlerIyEEE19parse_number_helperILb0ELc0EEclILm1EEEPKcSt17integral_constantImXT_EE
FNA:6,0,_ZNK5boost4json12basic_parserINS0_6detail12into_handlerIyEEE19parse_number_helperILb0ELc0EEclILm2EEEPKcSt17integral_constantImXT_EE
FNA:6,7,_ZNK5boost4json12basic_parserINS0_6detail12into_handlerIyEEE19parse_number_helperILb1ELc43EEclILm0EEEPKcSt17integral_constantImXT_EE
FNA:6,0,_ZNK5boost4json12basic_parserINS0_6detail12into_handlerIyEEE19parse_number_helperILb1ELc43EEclILm1EEEPKcSt17integral_constantImXT_EE
FNA:6,0,_ZNK5boost4json12basic_parserINS0_6detail12into_handlerIyEEE19parse_number_helperILb1ELc43EEclILm2EEEPKcSt17integral_constantImXT_EE
FNA:6,0,_ZNK5boost4json12basic_parserINS0_6detail12into_handlerIyEEE19parse_number_helperILb1ELc45EEclILm0EEEPKcSt17integral_constantImXT_EE
FNA:6,0,_ZNK5boost4json12basic_parserINS0_6detail12into_handlerIyEEE19parse_number_helperILb1ELc45EEclILm1EEEPKcSt17integral_constantImXT_EE
FNA:6,0,_ZNK5boost4json12basic_parserINS0_6detail12into_handlerIyEEE19parse_number_helperILb1ELc45EEclILm2EEEPKcSt17integral_constantImXT_EE
FNA:6,0,_ZNK5boost4json12basic_parserINS0_6detail12into_handlerIyEEE19parse_number_helperILb1ELc48EEclILm0EEEPKcSt17integral_constantImXT_EE
FNA:6,0,_ZNK5boost4json12basic_parserINS0_6detail12into_handlerIyEEE19parse_number_helperILb1ELc48EEclILm1EEEPKcSt17integral_constantImXT_EE
FNA:6,0,_ZNK5boost4json12basic_parserINS0_6detail12into_handlerIyEEE19parse_number_helperILb1ELc48EEclILm2EEEPKcSt17integral_constantImXT_EE
FNA:6,16873,_ZNK5boost4json12basic_parserINS0_6detail7handlerEE19parse_number_helperILb0ELc0EEclILm0EEEPKcSt17integral_constantImXT_EE
FNA:6,7022,_ZNK5boost4json12basic_parserINS0_6detail7handlerEE19parse_number_helperILb0ELc0EEclILm1EEEPKcSt17integral_constantImXT_EE
FNA:6,7019,_ZNK5boost4json12basic_parserINS0_6detail7handlerEE19parse_number_helperILb0ELc0EEclILm2EEEPKcSt17integral_constantImXT_EE
FNA:6,1008998,_ZNK5boost4json12basic_parserINS0_6detail7handlerEE19parse_number_helperILb1ELc43EEclILm0EEEPKcSt17integral_constantImXT_EE
FNA:6,1000969,_ZNK5boost4json12basic_parserINS0_6detail7handlerEE19parse_number_helperILb1ELc43EEclILm1EEEPKcSt17integral_constantImXT_EE
FNA:6,922,_ZNK5boost4json12basic_parserINS0_6detail7handlerEE19parse_number_helperILb1ELc43EEclILm2EEEPKcSt17integral_constantImXT_EE
FNA:6,9022,_ZNK5boost4json12basic_parserINS0_6detail7handlerEE19parse_number_helperILb1ELc45EEclILm0EEEPKcSt17integral_constantImXT_EE
FNA:6,3902,_ZNK5boost4json12basic_parserINS0_6detail7handlerEE19parse_number_helperILb1ELc45EEclILm1EEEPKcSt17integral_constantImXT_EE
FNA:6,3898,_ZNK5boost4json12basic_parserINS0_6detail7handlerEE19parse_number_helperILb1ELc45EEclILm2EEEPKcSt17integral_constantImXT_EE
FNA:6,9085,_ZNK5boost4json12basic_parserINS0_6detail7handlerEE19parse_number_helperILb1ELc48EEclILm0EEEPKcSt17integral_constantImXT_EE
FNA:6,4440,_ZNK5boost4json12basic_parserINS0_6detail7handlerEE19parse_number_helperILb1ELc48EEclILm1EEEPKcSt17integral_constantImXT_EE
FNA:6,4438,_ZNK5boost4json12basic_parserINS0_6detail7handlerEE19parse_number_helperILb1ELc48EEclILm2EEEPKcSt17integral_constantImXT_EE
FNL:7,219,234
FNA:7,29612,_ZN5boost4json12basic_parserINS0_11fail_parser7handlerEE7reserveEv
FNA:7,0,_ZN5boost4json12basic_parserINS0_11null_parser7handlerEE7reserveEv
FNA:7,29424,_ZN5boost4json12basic_parserINS0_12throw_parser7handlerEE7reserveEv
FNA:7,15,_ZN5boost4json12basic_parserINS0_17basic_parser_test11utf8_parser7handlerEE7reserveEv
FNA:7,0,_ZN5boost4json12basic_parserINS0_17basic_parser_test14comment_parser7handlerEE7reserveEv
FNA:7,172,_ZN5boost4json12basic_parserINS0_17basic_parser_test14literal_parser7handlerEE7reserveEv
FNA:7,0,_ZN5boost4json12basic_parserINS0_17basic_parser_test15std_null_parser7handlerEE7reserveEv
FNA:7,48,_ZN5boost4json12basic_parserINS0_6detail12into_handlerIDnEEE7reserveEv
FNA:7,0,_ZN5boost4json12basic_parserINS0_6detail12into_handlerINS0_6stringEEEE7reserveEv
FNA:7,2,_ZN5boost4json12basic_parserINS0_6detail12into_handlerINS_8variant27variantIJNS4_9monostateEEEEEEE7reserveEv
FNA:7,60,_ZN5boost4json12basic_parserINS0_6detail12into_handlerINS_8variant27variantIJNS4_9monostateESt6vectorIiSaIiEEEEEEEE7reserveEv
FNA:7,145,_ZN5boost4json12basic_parserINS0_6detail12into_handlerINS_8variant27variantIJNS4_9monostateEiNSt7__cxx1112basic_stringIcSt11char_traitsIcESaIcEEEEEEEEE7reserveEv
FNA:7,2,_ZN5boost4json12basic_parserINS0_6detail12into_handlerINS_8variant27variantIJNS4_9monostateEibEEEEEE7reserveEv
FNA:7,60,_ZN5boost4json12basic_parserINS0_6detail12into_handlerINS_8variant27variantIJSt6vectorIiSaIiEEEEEEEE7reserveEv
FNA:7,122,_ZN5boost4json12basic_parserINS0_6detail12into_handlerINS_8variant27variantIJSt6vectorIiSaIiEESt5tupleIJiNSt7__cxx1112basic_stringIcSt11char_traitsIcESaIcEEESt3mapISF_iSt4lessISF_ESaISt4pairIKSF_iEEEEES9_IJiSF_SG_ISF_dSI_SaISJ_ISK_dEEEEEEEEEEE7reserveEv
FNA:7,112,_ZN5boost4json12basic_parserINS0_6detail12into_handlerINS_8variant27variantIJbmEEEEEE7reserveEv
FNA:7,47,_ZN5boost4json12basic_parserINS0_6detail12into_handlerINS_8variant27variantIJiEEEEEE7reserveEv
FNA:7,97,_ZN5boost4json12basic_parserINS0_6detail12into_handlerINS_8variant27variantIJiNSt7__cxx1112basic_stringIcSt11char_traitsIcESaIcEEEEEEEEE7reserveEv
FNA:7,97,_ZN5boost4json12basic_parserINS0_6detail12into_handlerINSt7__cxx1112basic_stringIcSt11char_traitsIcESaIcEEEEEE7reserveEv
FNA:7,164,_ZN5boost4json12basic_parserINS0_6detail12into_handlerISt3mapINSt7__cxx1112basic_stringIcSt11char_traitsIcESaIcEEES4_ISA_iSt4lessISA_ESaISt4pairIKSA_iEEESC_SaISD_ISE_SH_EEEEEE7reserveEv
FNA:7,13,_ZN5boost4json12basic_parserINS0_6detail12into_handlerISt3mapINSt7__cxx1112basic_stringIcSt11char_traitsIcESaIcEEESt5tupleIJiiEESt4lessISA_ESaISt4pairIKSA_SC_EEEEEE7reserveEv
FNA:7,198,_ZN5boost4json12basic_parserINS0_6detail12into_handlerISt3mapINSt7__cxx1112basic_stringIcSt11char_traitsIcESaIcEEESt6vectorISt4pairIiiESaISD_EESt4lessISA_ESaISC_IKSA_SF_EEEEEE7reserveEv
FNA:7,130,_ZN5boost4json12basic_parserINS0_6detail12into_handlerISt3mapINSt7__cxx1112basic_stringIcSt11char_traitsIcESaIcEEESt6vectorIiSaIiEESt4lessISA_ESaISt4pairIKSA_SD_EEEEEE7reserveEv
FNA:7,234,_ZN5boost4json12basic_parserINS0_6detail12into_handlerISt3mapINSt7__cxx1112basic_stringIcSt11char_traitsIcESaIcEEEiSt4lessISA_ESaISt4pairIKSA_iEEEEEE7reserveEv
FNA:7,94,_ZN5boost4json12basic_parserINS0_6detail12into_handlerISt4pairIDnmEEEE7reserveEv
FNA:7,162,_ZN5boost4json12basic_parserINS0_6detail12into_handlerISt4pairISt6vectorIiSaIiEESt3mapINSt7__cxx1112basic_stringIcSt11char_traitsIcESaIcEEES4_IibESt4lessISE_ESaIS4_IKSE_SF_EEEEEEE7reserveEv
FNA:7,7,_ZN5boost4json12basic_parserINS0_6detail12into_handlerISt4pairIiiEEEE7reserveEv
FNA:7,89,_ZN5boost4json12basic_parserINS0_6detail12into_handlerISt5arrayIiLm4EEEEE7reserveEv
FNA:7,13,_ZN5boost4json12basic_parserINS0_6detail12into_handlerISt5tupleIJSt6vectorIiSaIiEEEEEEE7reserveEv
FNA:7,160,_ZN5boost4json12basic_parserINS0_6detail12into_handlerISt5tupleIJifNSt7__cxx1112basic_stringIcSt11char_traitsIcESaIcEEEEEEEE7reserveEv
FNA:7,6,_ZN5boost4json12basic_parserINS0_6detail12into_handlerISt5tupleIJiiiEEEEE7reserveEv
FNA:7,61,_ZN5boost4json12basic_parserINS0_6detail12into_handlerISt6vectorIDnSaIDnEEEEE7reserveEv
FNA:7,96,_ZN5boost4json12basic_parserINS0_6detail12into_handlerISt6vectorINS_8variant27variantIJiNSt7__cxx1112basic_stringIcSt11char_traitsIcESaIcEEEEEESaISD_EEEEE7reserveEv
FNA:7,125,_ZN5boost4json12basic_parserINS0_6detail12into_handlerISt6vectorINSt7__cxx1112basic_stringIcSt11char_traitsIcESaIcEEESaISA_EEEEE7reserveEv
FNA:7,250,_ZN5boost4json12basic_parserINS0_6detail12into_handlerISt6vectorIS4_ISt4pairIiiESaIS6_EESaIS8_EEEEE7reserveEv
FNA:7,132,_ZN5boost4json12basic_parserINS0_6detail12into_handlerISt6vectorIS4_IiSaIiEESaIS6_EEEEE7reserveEv
FNA:7,98,_ZN5boost4json12basic_parserINS0_6detail12into_handlerISt6vectorISt3mapINSt7__cxx1112basic_stringIcSt11char_traitsIcESaIcEEEiSt4lessISB_ESaISt4pairIKSB_iEEESaISI_EEEEE7reserveEv
FNA:7,115,_ZN5boost4json12basic_parserINS0_6detail12into_handlerISt6vectorISt4pairIiiESaIS6_EEEEE7reserveEv
FNA:7,147,_ZN5boost4json12basic_parserINS0_6detail12into_handlerISt6vectorISt5arrayIiLm4EESaIS6_EEEEE7reserveEv
FNA:7,109,_ZN5boost4json12basic_parserINS0_6detail12into_handlerISt6vectorIbSaIbEEEEE7reserveEv
FNA:7,1,_ZN5boost4json12basic_parserINS0_6detail12into_handlerISt6vectorIcSaIcEEEEE7reserveEv
FNA:7,210,_ZN5boost4json12basic_parserINS0_6detail12into_handlerISt6vectorIfSaIfEEEEE7reserveEv
FNA:7,100,_ZN5boost4json12basic_parserINS0_6detail12into_handlerISt6vectorIiSaIiEEEEE7reserveEv
FNA:7,92,_ZN5boost4json12basic_parserINS0_6detail12into_handlerISt6vectorImSaImEEEEE7reserveEv
FNA:7,48,_ZN5boost4json12basic_parserINS0_6detail12into_handlerIaEEE7reserveEv
FNA:7,100,_ZN5boost4json12basic_parserINS0_6detail12into_handlerIbEEE7reserveEv
FNA:7,46,_ZN5boost4json12basic_parserINS0_6detail12into_handlerIcEEE7reserveEv
FNA:7,51,_ZN5boost4json12basic_parserINS0_6detail12into_handlerIdEEE7reserveEv
FNA:7,50,_ZN5boost4json12basic_parserINS0_6detail12into_handlerIfEEE7reserveEv
FNA:7,47,_ZN5boost4json12basic_parserINS0_6detail12into_handlerIhEEE7reserveEv
FNA:7,94,_ZN5boost4json12basic_parserINS0_6detail12into_handlerIiEEE7reserveEv
FNA:7,49,_ZN5boost4json12basic_parserINS0_6detail12into_handlerIjEEE7reserveEv
FNA:7,64,_ZN5boost4json12basic_parserINS0_6detail12into_handlerIlEEE7reserveEv
FNA:7,64,_ZN5boost4json12basic_parserINS0_6detail12into_handlerImEEE7reserveEv
FNA:7,50,_ZN5boost4json12basic_parserINS0_6detail12into_handlerIsEEE7reserveEv
FNA:7,49,_ZN5boost4json12basic_parserINS0_6detail12into_handlerItEEE7reserveEv
FNA:7,64,_ZN5boost4json12basic_parserINS0_6detail12into_handlerIxEEE7reserveEv
FNA:7,64,_ZN5boost4json12basic_parserINS0_6detail12into_handlerIyEEE7reserveEv
FNA:7,146858,_ZN5boost4json12basic_parserINS0_6detail7handlerEE7reserveEv
FNL:8,245,252
FNA:8,361701,_ZN5boost4json12basic_parserINS0_11fail_parser7handlerEE8sentinelEv
FNA:8,88,_ZN5boost4json12basic_parserINS0_11null_parser7handlerEE8sentinelEv
FNA:8,198794,_ZN5boost4json12basic_parserINS0_12throw_parser7handlerEE8sentinelEv
FNA:8,93,_ZN5boost4json12basic_parserINS0_17basic_parser_test11utf8_parser7handlerEE8sentinelEv
FNA:8,120,_ZN5boost4json12basic_parserINS0_17basic_parser_test14comment_parser7handlerEE8sentinelEv
FNA:8,1242,_ZN5boost4json12basic_parserINS0_17basic_parser_test14literal_parser7handlerEE8sentinelEv
FNA:8,2,_ZN5boost4json12basic_parserINS0_17basic_parser_test15std_null_parser7handlerEE8sentinelEv
FNA:8,256,_ZN5boost4json12basic_parserINS0_6detail12into_handlerIDnEEE8sentinelEv
FNA:8,10,_ZN5boost4json12basic_parserINS0_6detail12into_handlerINS0_6stringEEEE8sentinelEv
FNA:8,20,_ZN5boost4json12basic_parserINS0_6detail12into_handlerINS_8variant27variantIJNS4_9monostateEEEEEEE8sentinelEv
FNA:8,326,_ZN5boost4json12basic_parserINS0_6detail12into_handlerINS_8variant27variantIJNS4_9monostateESt6vectorIiSaIiEEEEEEEE8sentinelEv
FNA:8,751,_ZN5boost4json12basic_parserINS0_6detail12into_handlerINS_8variant27variantIJNS4_9monostateEiNSt7__cxx1112basic_stringIcSt11char_traitsIcESaIcEEEEEEEEE8sentinelEv
FNA:8,20,_ZN5boost4json12basic_parserINS0_6detail12into_handlerINS_8variant27variantIJNS4_9monostateEibEEEEEE8sentinelEv
FNA:8,326,_ZN5boost4json12basic_parserINS0_6detail12into_handlerINS_8variant27variantIJSt6vectorIiSaIiEEEEEEEE8sentinelEv
FNA:8,533,_ZN5boost4json12basic_parserINS0_6detail12into_handlerINS_8variant27variantIJSt6vectorIiSaIiEESt5tupleIJiNSt7__cxx1112basic_stringIcSt11char_traitsIcESaIcEEESt3mapISF_iSt4lessISF_ESaISt4pairIKSF_iEEEEES9_IJiSF_SG_ISF_dSI_SaISJ_ISK_dEEEEEEEEEEE8sentinelEv
FNA:8,580,_ZN5boost4json12basic_parserINS0_6detail12into_handlerINS_8variant27variantIJbmEEEEEE8sentinelEv
FNA:8,259,_ZN5boost4json12basic_parserINS0_6detail12into_handlerINS_8variant27variantIJiEEEEEE8sentinelEv
FNA:8,505,_ZN5boost4json12basic_parserINS0_6detail12into_handlerINS_8variant27variantIJiNSt7__cxx1112basic_stringIcSt11char_traitsIcESaIcEEEEEEEEE8sentinelEv
FNA:8,501,_ZN5boost4json12basic_parserINS0_6detail12into_handlerINSt7__cxx1112basic_stringIcSt11char_traitsIcESaIcEEEEEE8sentinelEv
FNA:8,812,_ZN5boost4json12basic_parserINS0_6detail12into_handlerISt3mapINSt7__cxx1112basic_stringIcSt11char_traitsIcESaIcEEES4_ISA_iSt4lessISA_ESaISt4pairIKSA_iEEESC_SaISD_ISE_SH_EEEEEE8sentinelEv
FNA:8,66,_ZN5boost4json12basic_parserINS0_6detail12into_handlerISt3mapINSt7__cxx1112basic_stringIcSt11char_traitsIcESaIcEEESt5tupleIJiiEESt4lessISA_ESaISt4pairIKSA_SC_EEEEEE8sentinelEv
FNA:8,979,_ZN5boost4json12basic_parserINS0_6detail12into_handlerISt3mapINSt7__cxx1112basic_stringIcSt11char_traitsIcESaIcEEESt6vectorISt4pairIiiESaISD_EESt4lessISA_ESaISC_IKSA_SF_EEEEEE8sentinelEv
FNA:8,672,_ZN5boost4json12basic_parserINS0_6detail12into_handlerISt3mapINSt7__cxx1112basic_stringIcSt11char_traitsIcESaIcEEESt6vectorIiSaIiEESt4lessISA_ESaISt4pairIKSA_SD_EEEEEE8sentinelEv
FNA:8,1214,_ZN5boost4json12basic_parserINS0_6detail12into_handlerISt3mapINSt7__cxx1112basic_stringIcSt11char_traitsIcESaIcEEEiSt4lessISA_ESaISt4pairIKSA_iEEEEEE8sentinelEv
FNA:8,421,_ZN5boost4json12basic_parserINS0_6detail12into_handlerISt4pairIDnmEEEE8sentinelEv
FNA:8,776,_ZN5boost4json12basic_parserINS0_6detail12into_handlerISt4pairISt6vectorIiSaIiEESt3mapINSt7__cxx1112basic_stringIcSt11char_traitsIcESaIcEEES4_IibESt4lessISE_ESaIS4_IKSE_SF_EEEEEEE8sentinelEv
FNA:8,57,_ZN5boost4json12basic_parserINS0_6detail12into_handlerISt4pairIiiEEEE8sentinelEv
FNA:8,469,_ZN5boost4json12basic_parserINS0_6detail12into_handlerISt5arrayIiLm4EEEEE8sentinelEv
FNA:8,67,_ZN5boost4json12basic_parserINS0_6detail12into_handlerISt5tupleIJSt6vectorIiSaIiEEEEEEE8sentinelEv
FNA:8,761,_ZN5boost4json12basic_parserINS0_6detail12into_handlerISt5tupleIJifNSt7__cxx1112basic_stringIcSt11char_traitsIcESaIcEEEEEEEE8sentinelEv
FNA:8,38,_ZN5boost4json12basic_parserINS0_6detail12into_handlerISt5tupleIJiiiEEEEE8sentinelEv
FNA:8,307,_ZN5boost4json12basic_parserINS0_6detail12into_handlerISt6vectorIDnSaIDnEEEEE8sentinelEv
FNA:8,482,_ZN5boost4json12basic_parserINS0_6detail12into_handlerISt6vectorINS_8variant27variantIJiNSt7__cxx1112basic_stringIcSt11char_traitsIcESaIcEEEEEESaISD_EEEEE8sentinelEv
FNA:8,616,_ZN5boost4json12basic_parserINS0_6detail12into_handlerISt6vectorINSt7__cxx1112basic_stringIcSt11char_traitsIcESaIcEEESaISA_EEEEE8sentinelEv
FNA:8,1199,_ZN5boost4json12basic_parserINS0_6detail12into_handlerISt6vectorIS4_ISt4pairIiiESaIS6_EESaIS8_EEEEE8sentinelEv
FNA:8,699,_ZN5boost4json12basic_parserINS0_6detail12into_handlerISt6vectorIS4_IiSaIiEESaIS6_EEEEE8sentinelEv
FNA:8,475,_ZN5boost4json12basic_parserINS0_6detail12into_handlerISt6vectorISt3mapINSt7__cxx1112basic_stringIcSt11char_traitsIcESaIcEEEiSt4lessISB_ESaISt4pairIKSB_iEEESaISI_EEEEE8sentinelEv
FNA:8,593,_ZN5boost4json12basic_parserINS0_6detail12into_handlerISt6vectorISt4pairIiiESaIS6_EEEEE8sentinelEv
FNA:8,666,_ZN5boost4json12basic_parserINS0_6detail12into_handlerISt6vectorISt5arrayIiLm4EESaIS6_EEEEE8sentinelEv
FNA:8,550,_ZN5boost4json12basic_parserINS0_6detail12into_handlerISt6vectorIbSaIbEEEEE8sentinelEv
FNA:8,15,_ZN5boost4json12basic_parserINS0_6detail12into_handlerISt6vectorIcSaIcEEEEE8sentinelEv
FNA:8,909,_ZN5boost4json12basic_parserINS0_6detail12into_handlerISt6vectorIfSaIfEEEEE8sentinelEv
FNA:8,545,_ZN5boost4json12basic_parserINS0_6detail12into_handlerISt6vectorIiSaIiEEEEE8sentinelEv
FNA:8,421,_ZN5boost4json12basic_parserINS0_6detail12into_handlerISt6vectorImSaImEEEEE8sentinelEv
FNA:8,254,_ZN5boost4json12basic_parserINS0_6detail12into_handlerIaEEE8sentinelEv
FNA:8,522,_ZN5boost4json12basic_parserINS0_6detail12into_handlerIbEEE8sentinelEv
FNA:8,244,_ZN5boost4json12basic_parserINS0_6detail12into_handlerIcEEE8sentinelEv
FNA:8,283,_ZN5boost4json12basic_parserINS0_6detail12into_handlerIdEEE8sentinelEv
FNA:8,264,_ZN5boost4json12basic_parserINS0_6detail12into_handlerIfEEE8sentinelEv
FNA:8,249,_ZN5boost4json12basic_parserINS0_6detail12into_handlerIhEEE8sentinelEv
FNA:8,538,_ZN5boost4json12basic_parserINS0_6detail12into_handlerIiEEE8sentinelEv
FNA:8,259,_ZN5boost4json12basic_parserINS0_6detail12into_handlerIjEEE8sentinelEv
FNA:8,334,_ZN5boost4json12basic_parserINS0_6detail12into_handlerIlEEE8sentinelEv
FNA:8,334,_ZN5boost4json12basic_parserINS0_6detail12into_handlerImEEE8sentinelEv
FNA:8,264,_ZN5boost4json12basic_parserINS0_6detail12into_handlerIsEEE8sentinelEv
FNA:8,259,_ZN5boost4json12basic_parserINS0_6detail12into_handlerItEEE8sentinelEv
FNA:8,334,_ZN5boost4json12basic_parserINS0_6detail12into_handlerIxEEE8sentinelEv
FNA:8,334,_ZN5boost4json12basic_parserINS0_6detail12into_handlerIyEEE8sentinelEv
FNA:8,4756455,_ZN5boost4json12basic_parserINS0_6detail7handlerEE8sentinelEv
FNL:9,256,261
FNA:9,140192,_ZN5boost4json12basic_parserINS0_11fail_parser7handlerEE10incompleteERKNS0_6detail20const_stream_wrapperE
FNA:9,42,_ZN5boost4json12basic_parserINS0_11null_parser7handlerEE10incompleteERKNS0_6detail20const_stream_wrapperE
FNA:9,89784,_ZN5boost4json12basic_parserINS0_12throw_parser7handlerEE10incompleteERKNS0_6detail20const_stream_wrapperE
FNA:9,24,_ZN5boost4json12basic_parserINS0_17basic_parser_test11utf8_parser7handlerEE10incompleteERKNS0_6detail20const_stream_wrapperE
FNA:9,99,_ZN5boost4json12basic_parserINS0_17basic_parser_test14comment_parser7handlerEE10incompleteERKNS0_6detail20const_stream_wrapperE
FNA:9,363,_ZN5boost4json12basic_parserINS0_17basic_parser_test14literal_parser7handlerEE10incompleteERKNS0_6detail20const_stream_wrapperE
FNA:9,1,_ZN5boost4json12basic_parserINS0_17basic_parser_test15std_null_parser7handlerEE10incompleteERKNS0_6detail20const_stream_wrapperE
FNA:9,53,_ZN5boost4json12basic_parserINS0_6detail12into_handlerIDnEEE10incompleteERKNS2_20const_stream_wrapperE
FNA:9,2,_ZN5boost4json12basic_parserINS0_6detail12into_handlerINS0_6stringEEEE10incompleteERKNS2_20const_stream_wrapperE
FNA:9,4,_ZN5boost4json12basic_parserINS0_6detail12into_handlerINS_8variant27variantIJNS4_9monostateEEEEEEE10incompleteERKNS2_20const_stream_wrapperE
FNA:9,98,_ZN5boost4json12basic_parserINS0_6detail12into_handlerINS_8variant27variantIJNS4_9monostateESt6vectorIiSaIiEEEEEEEE10incompleteERKNS2_20const_stream_wrapperE
FNA:9,158,_ZN5boost4json12basic_parserINS0_6detail12into_handlerINS_8variant27variantIJNS4_9monostateEiNSt7__cxx1112basic_stringIcSt11char_traitsIcESaIcEEEEEEEEE10incompleteERKNS2_20const_stream_wrapperE
FNA:9,4,_ZN5boost4json12basic_parserINS0_6detail12into_handlerINS_8variant27variantIJNS4_9monostateEibEEEEEE10incompleteERKNS2_20const_stream_wrapperE
FNA:9,98,_ZN5boost4json12basic_parserINS0_6detail12into_handlerINS_8variant27variantIJSt6vectorIiSaIiEEEEEEEE10incompleteERKNS2_20const_stream_wrapperE
FNA:9,174,_ZN5boost4json12basic_parserINS0_6detail12into_handlerINS_8variant27variantIJSt6vectorIiSaIiEESt5tupleIJiNSt7__cxx1112basic_stringIcSt11char_traitsIcESaIcEEESt3mapISF_iSt4lessISF_ESaISt4pairIKSF_iEEEEES9_IJiSF_SG_ISF_dSI_SaISJ_ISK_dEEEEEEEEEEE10incompleteERKNS2_20const_stream_wrapperE
FNA:9,122,_ZN5boost4json12basic_parserINS0_6detail12into_handlerINS_8variant27variantIJbmEEEEEE10incompleteERKNS2_20const_stream_wrapperE
FNA:9,56,_ZN5boost4json12basic_parserINS0_6detail12into_handlerINS_8variant27variantIJiEEEEEE10incompleteERKNS2_20const_stream_wrapperE
FNA:9,107,_ZN5boost4json12basic_parserINS0_6detail12into_handlerINS_8variant27variantIJiNSt7__cxx1112basic_stringIcSt11char_traitsIcESaIcEEEEEEEEE10incompleteERKNS2_20const_stream_wrapperE
FNA:9,105,_ZN5boost4json12basic_parserINS0_6detail12into_handlerINSt7__cxx1112basic_stringIcSt11char_traitsIcESaIcEEEEEE10incompleteERKNS2_20const_stream_wrapperE
FNA:9,236,_ZN5boost4json12basic_parserINS0_6detail12into_handlerISt3mapINSt7__cxx1112basic_stringIcSt11char_traitsIcESaIcEEES4_ISA_iSt4lessISA_ESaISt4pairIKSA_iEEESC_SaISD_ISE_SH_EEEEEE10incompleteERKNS2_20const_stream_wrapperE
FNA:9,19,_ZN5boost4json12basic_parserINS0_6detail12into_handlerISt3mapINSt7__cxx1112basic_stringIcSt11char_traitsIcESaIcEEESt5tupleIJiiEESt4lessISA_ESaISt4pairIKSA_SC_EEEEEE10incompleteERKNS2_20const_stream_wrapperE
FNA:9,277,_ZN5boost4json12basic_parserINS0_6detail12into_handlerISt3mapINSt7__cxx1112basic_stringIcSt11char_traitsIcESaIcEEESt6vectorISt4pairIiiESaISD_EESt4lessISA_ESaISC_IKSA_SF_EEEEEE10incompleteERKNS2_20const_stream_wrapperE
FNA:9,196,_ZN5boost4json12basic_parserINS0_6detail12into_handlerISt3mapINSt7__cxx1112basic_stringIcSt11char_traitsIcESaIcEEESt6vectorIiSaIiEESt4lessISA_ESaISt4pairIKSA_SD_EEEEEE10incompleteERKNS2_20const_stream_wrapperE
FNA:9,316,_ZN5boost4json12basic_parserINS0_6detail12into_handlerISt3mapINSt7__cxx1112basic_stringIcSt11char_traitsIcESaIcEEEiSt4lessISA_ESaISt4pairIKSA_iEEEEEE10incompleteERKNS2_20const_stream_wrapperE
FNA:9,111,_ZN5boost4json12basic_parserINS0_6detail12into_handlerISt4pairIDnmEEEE10incompleteERKNS2_20const_stream_wrapperE
FNA:9,245,_ZN5boost4json12basic_parserINS0_6detail12into_handlerISt4pairISt6vectorIiSaIiEESt3mapINSt7__cxx1112basic_stringIcSt11char_traitsIcESaIcEEES4_IibESt4lessISE_ESaIS4_IKSE_SF_EEEEEEE10incompleteERKNS2_20const_stream_wrapperE
FNA:9,17,_ZN5boost4json12basic_parserINS0_6detail12into_handlerISt4pairIiiEEEE10incompleteERKNS2_20const_stream_wrapperE
FNA:9,140,_ZN5boost4json12basic_parserINS0_6detail12into_handlerISt5arrayIiLm4EEEEE10incompleteERKNS2_20const_stream_wrapperE
FNA:9,23,_ZN5boost4json12basic_parserINS0_6detail12into_handlerISt5tupleIJSt6vectorIiSaIiEEEEEEE10incompleteERKNS2_20const_stream_wrapperE
FNA:9,208,_ZN5boost4json12basic_parserINS0_6detail12into_handlerISt5tupleIJifNSt7__cxx1112basic_stringIcSt11char_traitsIcESaIcEEEEEEEE10incompleteERKNS2_20const_stream_wrapperE
FNA:9,12,_ZN5boost4json12basic_parserINS0_6detail12into_handlerISt5tupleIJiiiEEEEE10incompleteERKNS2_20const_stream_wrapperE
FNA:9,78,_ZN5boost4json12basic_parserINS0_6detail12into_handlerISt6vectorIDnSaIDnEEEEE10incompleteERKNS2_20const_stream_wrapperE
FNA:9,155,_ZN5boost4json12basic_parserINS0_6detail12into_handlerISt6vectorINS_8variant27variantIJiNSt7__cxx1112basic_stringIcSt11char_traitsIcESaIcEEEEEESaISD_EEEEE10incompleteERKNS2_20const_stream_wrapperE
FNA:9,152,_ZN5boost4json12basic_parserINS0_6detail12into_handlerISt6vectorINSt7__cxx1112basic_stringIcSt11char_traitsIcESaIcEEESaISA_EEEEE10incompleteERKNS2_20const_stream_wrapperE
FNA:9,406,_ZN5boost4json12basic_parserINS0_6detail12into_handlerISt6vectorIS4_ISt4pairIiiESaIS6_EESaIS8_EEEEE10incompleteERKNS2_20const_stream_wrapperE
FNA:9,212,_ZN5boost4json12basic_parserINS0_6detail12into_handlerISt6vectorIS4_IiSaIiEESaIS6_EEEEE10incompleteERKNS2_20const_stream_wrapperE
FNA:9,164,_ZN5boost4json12basic_parserINS0_6detail12into_handlerISt6vectorISt3mapINSt7__cxx1112basic_stringIcSt11char_traitsIcESaIcEEEiSt4lessISB_ESaISt4pairIKSB_iEEESaISI_EEEEE10incompleteERKNS2_20const_stream_wrapperE
FNA:9,163,_ZN5boost4json12basic_parserINS0_6detail12into_handlerISt6vectorISt4pairIiiESaIS6_EEEEE10incompleteERKNS2_20const_stream_wrapperE
FNA:9,255,_ZN5boost4json12basic_parserINS0_6detail12into_handlerISt6vectorISt5arrayIiLm4EESaIS6_EEEEE10incompleteERKNS2_20const_stream_wrapperE
FNA:9,129,_ZN5boost4json12basic_parserINS0_6detail12into_handlerISt6vectorIbSaIbEEEEE10incompleteERKNS2_20const_stream_wrapperE
FNA:9,3,_ZN5boost4json12basic_parserINS0_6detail12into_handlerISt6vectorIcSaIcEEEEE10incompleteERKNS2_20const_stream_wrapperE
FNA:9,237,_ZN5boost4json12basic_parserINS0_6detail12into_handlerISt6vectorIfSaIfEEEEE10incompleteERKNS2_20const_stream_wrapperE
FNA:9,138,_ZN5boost4json12basic_parserINS0_6detail12into_handlerISt6vectorIiSaIiEEEEE10incompleteERKNS2_20const_stream_wrapperE
FNA:9,116,_ZN5boost4json12basic_parserINS0_6detail12into_handlerISt6vectorImSaImEEEEE10incompleteERKNS2_20const_stream_wrapperE
FNA:9,55,_ZN5boost4json12basic_parserINS0_6detail12into_handlerIaEEE10incompleteERKNS2_20const_stream_wrapperE
FNA:9,108,_ZN5boost4json12basic_parserINS0_6detail12into_handlerIbEEE10incompleteERKNS2_20const_stream_wrapperE
FNA:9,53,_ZN5boost4json12basic_parserINS0_6detail12into_handlerIcEEE10incompleteERKNS2_20const_stream_wrapperE
FNA:9,62,_ZN5boost4json12basic_parserINS0_6detail12into_handlerIdEEE10incompleteERKNS2_20const_stream_wrapperE
FNA:9,57,_ZN5boost4json12basic_parserINS0_6detail12into_handlerIfEEE10incompleteERKNS2_20const_stream_wrapperE
FNA:9,54,_ZN5boost4json12basic_parserINS0_6detail12into_handlerIhEEE10incompleteERKNS2_20const_stream_wrapperE
FNA:9,113,_ZN5boost4json12basic_parserINS0_6detail12into_handlerIiEEE10incompleteERKNS2_20const_stream_wrapperE
FNA:9,56,_ZN5boost4json12basic_parserINS0_6detail12into_handlerIjEEE10incompleteERKNS2_20const_stream_wrapperE
FNA:9,71,_ZN5boost4json12basic_parserINS0_6detail12into_handlerIlEEE10incompleteERKNS2_20const_stream_wrapperE
FNA:9,71,_ZN5boost4json12basic_parserINS0_6detail12into_handlerImEEE10incompleteERKNS2_20const_stream_wrapperE
FNA:9,57,_ZN5boost4json12basic_parserINS0_6detail12into_handlerIsEEE10incompleteERKNS2_20const_stream_wrapperE
FNA:9,56,_ZN5boost4json12basic_parserINS0_6detail12into_handlerItEEE10incompleteERKNS2_20const_stream_wrapperE
FNA:9,71,_ZN5boost4json12basic_parserINS0_6detail12into_handlerIxEEE10incompleteERKNS2_20const_stream_wrapperE
FNA:9,71,_ZN5boost4json12basic_parserINS0_6detail12into_handlerIyEEE10incompleteERKNS2_20const_stream_wrapperE
FNA:9,2223372,_ZN5boost4json12basic_parserINS0_6detail7handlerEE10incompleteERKNS2_20const_stream_wrapperE
FNL:10,2762,2769
FNA:10,46630,_ZN5boost4json12basic_parserINS0_11fail_parser7handlerEEC2IJEEERKNS0_13parse_optionsEDpOT_
FNA:10,7,_ZN5boost4json12basic_parserINS0_11null_parser7handlerEEC2IJEEERKNS0_13parse_optionsEDpOT_
FNA:10,40340,_ZN5boost4json12basic_parserINS0_12throw_parser7handlerEEC2IJEEERKNS0_13parse_optionsEDpOT_
FNA:10,9,_ZN5boost4json12basic_parserINS0_17basic_parser_test11utf8_parser7handlerEEC2IJEEERKNS0_13parse_optionsEDpOT_
FNA:10,15,_ZN5boost4json12basic_parserINS0_17basic_parser_test14comment_parser7handlerEEC2IJEEERKNS0_13parse_optionsEDpOT_
FNA:10,191,_ZN5boost4json12basic_parserINS0_17basic_parser_test14literal_parser7handlerEEC2IJEEERKNS0_13parse_optionsEDpOT_
FNA:10,1,_ZN5boost4json12basic_parserINS0_17basic_parser_test15std_null_parser7handlerEEC2IJEEERKNS0_13parse_optionsEDpOT_
FNA:10,9,_ZN5boost4json12basic_parserINS0_6detail12into_handlerIDnEEEC2IJPDnEEERKNS0_13parse_optionsEDpOT_
FNA:10,2,_ZN5boost4json12basic_parserINS0_6detail12into_handlerINS0_6stringEEEEC2IJPS4_EEERKNS0_13parse_optionsEDpOT_
FNA:10,2,_ZN5boost4json12basic_parserINS0_6detail12into_handlerINS_8variant27variantIJNS4_9monostateEEEEEEEC2IJPS7_EEERKNS0_13parse_optionsEDpOT_
FNA:10,7,_ZN5boost4json12basic_parserINS0_6detail12into_handlerINS_8variant27variantIJNS4_9monostateESt6vectorIiSaIiEEEEEEEEC2IJPSA_EEERKNS0_13parse_optionsEDpOT_
FNA:10,21,_ZN5boost4json12basic_parserINS0_6detail12into_handlerINS_8variant27variantIJNS4_9monostateEiNSt7__cxx1112basic_stringIcSt11char_traitsIcESaIcEEEEEEEEEC2IJPSD_EEERKNS0_13parse_optionsEDpOT_
FNA:10,2,_ZN5boost4json12basic_parserINS0_6detail12into_handlerINS_8variant27variantIJNS4_9monostateEibEEEEEEC2IJPS7_EEERKNS0_13parse_optionsEDpOT_
FNA:10,7,_ZN5boost4json12basic_parserINS0_6detail12into_handlerINS_8variant27variantIJSt6vectorIiSaIiEEEEEEEEC2IJPS9_EEERKNS0_13parse_optionsEDpOT_
FNA:10,7,_ZN5boost4json12basic_parserINS0_6detail12into_handlerINS_8variant27variantIJSt6vectorIiSaIiEESt5tupleIJiNSt7__cxx1112basic_stringIcSt11char_traitsIcESaIcEEESt3mapISF_iSt4lessISF_ESaISt4pairIKSF_iEEEEES9_IJiSF_SG_ISF_dSI_SaISJ_ISK_dEEEEEEEEEEEC2IJPST_EEERKNS0_13parse_optionsEDpOT_
FNA:10,14,_ZN5boost4json12basic_parserINS0_6detail12into_handlerINS_8variant27variantIJbmEEEEEEC2IJPS6_EEERKNS0_13parse_optionsEDpOT_
FNA:10,9,_ZN5boost4json12basic_parserINS0_6detail12into_handlerINS_8variant27variantIJiEEEEEEC2IJPS6_EEERKNS0_13parse_optionsEDpOT_
FNA:10,14,_ZN5boost4json12basic_parserINS0_6detail12into_handlerINS_8variant27variantIJiNSt7__cxx1112basic_stringIcSt11char_traitsIcESaIcEEEEEEEEEC2IJPSC_EEERKNS0_13parse_optionsEDpOT_
FNA:10,16,_ZN5boost4json12basic_parserINS0_6detail12into_handlerINSt7__cxx1112basic_stringIcSt11char_traitsIcESaIcEEEEEEC2IJPS9_EEERKNS0_13parse_optionsEDpOT_
FNA:10,16,_ZN5boost4json12basic_parserINS0_6detail12into_handlerISt3mapINSt7__cxx1112basic_stringIcSt11char_traitsIcESaIcEEES4_ISA_iSt4lessISA_ESaISt4pairIKSA_iEEESC_SaISD_ISE_SH_EEEEEEC2IJPSK_EEERKNS0_13parse_optionsEDpOT_
FNA:10,2,_ZN5boost4json12basic_parserINS0_6detail12into_handlerISt3mapINSt7__cxx1112basic_stringIcSt11char_traitsIcESaIcEEESt5tupleIJiiEESt4lessISA_ESaISt4pairIKSA_SC_EEEEEEC2IJPSJ_EEERKNS0_13parse_optionsEDpOT_
FNA:10,21,_ZN5boost4json12basic_parserINS0_6detail12into_handlerISt3mapINSt7__cxx1112basic_stringIcSt11char_traitsIcESaIcEEESt6vectorISt4pairIiiESaISD_EESt4lessISA_ESaISC_IKSA_SF_EEEEEEC2IJPSL_EEERKNS0_13parse_optionsEDpOT_
FNA:10,15,_ZN5boost4json12basic_parserINS0_6detail12into_handlerISt3mapINSt7__cxx1112basic_stringIcSt11char_traitsIcESaIcEEESt6vectorIiSaIiEESt4lessISA_ESaISt4pairIKSA_SD_EEEEEEC2IJPSK_EEERKNS0_13parse_optionsEDpOT_
FNA:10,32,_ZN5boost4json12basic_parserINS0_6detail12into_handlerISt3mapINSt7__cxx1112basic_stringIcSt11char_traitsIcESaIcEEEiSt4lessISA_ESaISt4pairIKSA_iEEEEEEC2IJPSH_EEERKNS0_13parse_optionsEDpOT_
FNA:10,7,_ZN5boost4json12basic_parserINS0_6detail12into_handlerISt4pairIDnmEEEEC2IJPS5_EEERKNS0_13parse_optionsEDpOT_
FNA:10,14,_ZN5boost4json12basic_parserINS0_6detail12into_handlerISt4pairISt6vectorIiSaIiEESt3mapINSt7__cxx1112basic_stringIcSt11char_traitsIcESaIcEEES4_IibESt4lessISE_ESaIS4_IKSE_SF_EEEEEEEC2IJPSM_EEERKNS0_13parse_optionsEDpOT_
FNA:10,4,_ZN5boost4json12basic_parserINS0_6detail12into_handlerISt4pairIiiEEEEC2IJPS5_EEERKNS0_13parse_optionsEDpOT_
FNA:10,11,_ZN5boost4json12basic_parserINS0_6detail12into_handlerISt5arrayIiLm4EEEEEC2IJPS5_EEERKNS0_13parse_optionsEDpOT_
FNA:10,2,_ZN5boost4json12basic_parserINS0_6detail12into_handlerISt5tupleIJSt6vectorIiSaIiEEEEEEEC2IJPS8_EEERKNS0_13parse_optionsEDpOT_
FNA:10,14,_ZN5boost4json12basic_parserINS0_6detail12into_handlerISt5tupleIJifNSt7__cxx1112basic_stringIcSt11char_traitsIcESaIcEEEEEEEEC2IJPSB_EEERKNS0_13parse_optionsEDpOT_
FNA:10,2,_ZN5boost4json12basic_parserINS0_6detail12into_handlerISt5tupleIJiiiEEEEEC2IJPS5_EEERKNS0_13parse_optionsEDpOT_
FNA:10,7,_ZN5boost4json12basic_parserINS0_6detail12into_handlerISt6vectorIDnSaIDnEEEEEC2IJPS6_EEERKNS0_13parse_optionsEDpOT_
FNA:10,7,_ZN5boost4json12basic_parserINS0_6detail12into_handlerISt6vectorINS_8variant27variantIJiNSt7__cxx1112basic_stringIcSt11char_traitsIcESaIcEEEEEESaISD_EEEEEC2IJPSF_EEERKNS0_13parse_optionsEDpOT_
FNA:10,14,_ZN5boost4json12basic_parserINS0_6detail12into_handlerISt6vectorINSt7__cxx1112basic_stringIcSt11char_traitsIcESaIcEEESaISA_EEEEEC2IJPSC_EEERKNS0_13parse_optionsEDpOT_
FNA:10,21,_ZN5boost4json12basic_parserINS0_6detail12into_handlerISt6vectorIS4_ISt4pairIiiESaIS6_EESaIS8_EEEEEC2IJPSA_EEERKNS0_13parse_optionsEDpOT_
FNA:10,16,_ZN5boost4json12basic_parserINS0_6detail12into_handlerISt6vectorIS4_IiSaIiEESaIS6_EEEEEC2IJPS8_EEERKNS0_13parse_optionsEDpOT_
FNA:10,7,_ZN5boost4json12basic_parserINS0_6detail12into_handlerISt6vectorISt3mapINSt7__cxx1112basic_stringIcSt11char_traitsIcESaIcEEEiSt4lessISB_ESaISt4pairIKSB_iEEESaISI_EEEEEC2IJPSK_EEERKNS0_13parse_optionsEDpOT_
FNA:10,14,_ZN5boost4json12basic_parserINS0_6detail12into_handlerISt6vectorISt4pairIiiESaIS6_EEEEEC2IJPS8_EEERKNS0_13parse_optionsEDpOT_
FNA:10,7,_ZN5boost4json12basic_parserINS0_6detail12into_handlerISt6vectorISt5arrayIiLm4EESaIS6_EEEEEC2IJPS8_EEERKNS0_13parse_optionsEDpOT_
FNA:10,14,_ZN5boost4json12basic_parserINS0_6detail12into_handlerISt6vectorIbSaIbEEEEEC2IJPS6_EEERKNS0_13parse_optionsEDpOT_
FNA:10,2,_ZN5boost4json12basic_parserINS0_6detail12into_handlerISt6vectorIcSaIcEEEEEC2IJPS6_EEERKNS0_13parse_optionsEDpOT_
FNA:10,14,_ZN5boost4json12basic_parserINS0_6detail12into_handlerISt6vectorIfSaIfEEEEEC2IJPS6_EEERKNS0_13parse_optionsEDpOT_
FNA:10,18,_ZN5boost4json12basic_parserINS0_6detail12into_handlerISt6vectorIiSaIiEEEEEC2IJPS6_EEERKNS0_13parse_optionsEDpOT_
FNA:10,7,_ZN5boost4json12basic_parserINS0_6detail12into_handlerISt6vectorImSaImEEEEEC2IJPS6_EEERKNS0_13parse_optionsEDpOT_
FNA:10,7,_ZN5boost4json12basic_parserINS0_6detail12into_handlerIaEEEC2IJPaEEERKNS0_13parse_optionsEDpOT_
FNA:10,16,_ZN5boost4json12basic_parserINS0_6detail12into_handlerIbEEEC2IJPbEEERKNS0_13parse_optionsEDpOT_
FNA:10,7,_ZN5boost4json12basic_parserINS0_6detail12into_handlerIcEEEC2IJPcEEERKNS0_13parse_optionsEDpOT_
FNA:10,11,_ZN5boost4json12basic_parserINS0_6detail12into_handlerIdEEEC2IJPdEEERKNS0_13parse_optionsEDpOT_
FNA:10,7,_ZN5boost4json12basic_parserINS0_6detail12into_handlerIfEEEC2IJPfEEERKNS0_13parse_optionsEDpOT_
FNA:10,7,_ZN5boost4json12basic_parserINS0_6detail12into_handlerIhEEEC2IJPhEEERKNS0_13parse_optionsEDpOT_
FNA:10,20,_ZN5boost4json12basic_parserINS0_6detail12into_handlerIiEEEC2IJPiEEERKNS0_13parse_optionsEDpOT_
FNA:10,7,_ZN5boost4json12basic_parserINS0_6detail12into_handlerIjEEEC2IJPjEEERKNS0_13parse_optionsEDpOT_
FNA:10,7,_ZN5boost4json12basic_parserINS0_6detail12into_handlerIlEEEC2IJPlEEERKNS0_13parse_optionsEDpOT_
FNA:10,7,_ZN5boost4json12basic_parserINS0_6detail12into_handlerImEEEC2IJPmEEERKNS0_13parse_optionsEDpOT_
FNA:10,7,_ZN5boost4json12basic_parserINS0_6detail12into_handlerIsEEEC2IJPsEEERKNS0_13parse_optionsEDpOT_
FNA:10,7,_ZN5boost4json12basic_parserINS0_6detail12into_handlerItEEEC2IJPtEEERKNS0_13parse_optionsEDpOT_
FNA:10,7,_ZN5boost4json12basic_parserINS0_6detail12into_handlerIxEEEC2IJPxEEERKNS0_13parse_optionsEDpOT_
FNA:10,7,_ZN5boost4json12basic_parserINS0_6detail12into_handlerIyEEEC2IJPyEEERKNS0_13parse_optionsEDpOT_
FNA:10,75359,_ZN5boost4json12basic_parserINS0_6detail7handlerEEC2IJNS0_11storage_ptrEDniEEERKNS0_13parse_optionsEDpOT_
FNA:10,2001530,_ZN5boost4json12basic_parserINS0_6detail7handlerEEC2IJNS0_11storage_ptrERPhRmEEERKNS0_13parse_optionsEDpOT_
FNL:11,2775,2784
FNA:11,1,_ZN5boost4json12basic_parserINS0_11fail_parser7handlerEE5resetEv
FNA:11,1,_ZN5boost4json12basic_parserINS0_11null_parser7handlerEE5resetEv
FNA:11,4153125,_ZN5boost4json12basic_parserINS0_6detail7handlerEE5resetEv
FNL:12,2788,2802
FNA:12,16,_ZN5boost4json12basic_parserINS0_6detail7handlerEE4failENS_6system10error_codeE
FNL:13,2808,2889
FNA:13,64955,_ZN5boost4json12basic_parserINS0_11fail_parser7handlerEE10write_someEbPKcmRNS_6system10error_codeE
FNA:13,9,_ZN5boost4json12basic_parserINS0_11null_parser7handlerEE10write_someEbPKcmRNS_6system10error_codeE
FNA:13,58662,_ZN5boost4json12basic_parserINS0_12throw_parser7handlerEE10write_someEbPKcmRNS_6system10error_codeE
FNA:13,24,_ZN5boost4json12basic_parserINS0_17basic_parser_test11utf8_parser7handlerEE10write_someEbPKcmRNS_6system10error_codeE
FNA:13,15,_ZN5boost4json12basic_parserINS0_17basic_parser_test14comment_parser7handlerEE10write_someEbPKcmRNS_6system10error_codeE
FNA:13,363,_ZN5boost4json12basic_parserINS0_17basic_parser_test14literal_parser7handlerEE10write_someEbPKcmRNS_6system10error_codeE
FNA:13,1,_ZN5boost4json12basic_parserINS0_17basic_parser_test15std_null_parser7handlerEE10write_someEbPKcmRNS_6system10error_codeE
FNA:13,37,_ZN5boost4json12basic_parserINS0_6detail12into_handlerIDnEEE10write_someEbPKcmRNS_6system10error_codeE
FNA:13,2,_ZN5boost4json12basic_parserINS0_6detail12into_handlerINS0_6stringEEEE10write_someEbPKcmRNS_6system10error_codeE
FNA:13,4,_ZN5boost4json12basic_parserINS0_6detail12into_handlerINS_8variant27variantIJNS4_9monostateEEEEEEE10write_someEbPKcmRNS_6system10error_codeE
FNA:13,42,_ZN5boost4json12basic_parserINS0_6detail12into_handlerINS_8variant27variantIJNS4_9monostateESt6vectorIiSaIiEEEEEEEE10write_someEbPKcmRNS_6system10error_codeE
FNA:13,106,_ZN5boost4json12basic_parserINS0_6detail12into_handlerINS_8variant27variantIJNS4_9monostateEiNSt7__cxx1112basic_stringIcSt11char_traitsIcESaIcEEEEEEEEE10write_someEbPKcmRNS_6system10error_codeE
FNA:13,4,_ZN5boost4json12basic_parserINS0_6detail12into_handlerINS_8variant27variantIJNS4_9monostateEibEEEEEE10write_someEbPKcmRNS_6system10error_codeE
FNA:13,42,_ZN5boost4json12basic_parserINS0_6detail12into_handlerINS_8variant27variantIJSt6vectorIiSaIiEEEEEEEE10write_someEbPKcmRNS_6system10error_codeE
FNA:13,65,_ZN5boost4json12basic_parserINS0_6detail12into_handlerINS_8variant27variantIJSt6vectorIiSaIiEESt5tupleIJiNSt7__cxx1112basic_stringIcSt11char_traitsIcESaIcEEESt3mapISF_iSt4lessISF_ESaISt4pairIKSF_iEEEEES9_IJiSF_SG_ISF_dSI_SaISJ_ISK_dEEEEEEEEEEE10write_someEbPKcmRNS_6system10error_codeE
FNA:13,86,_ZN5boost4json12basic_parserINS0_6detail12into_handlerINS_8variant27variantIJbmEEEEEE10write_someEbPKcmRNS_6system10error_codeE
FNA:13,36,_ZN5boost4json12basic_parserINS0_6detail12into_handlerINS_8variant27variantIJiEEEEEE10write_someEbPKcmRNS_6system10error_codeE
FNA:13,71,_ZN5boost4json12basic_parserINS0_6detail12into_handlerINS_8variant27variantIJiNSt7__cxx1112basic_stringIcSt11char_traitsIcESaIcEEEEEEEEE10write_someEbPKcmRNS_6system10error_codeE
FNA:13,73,_ZN5boost4json12basic_parserINS0_6detail12into_handlerINSt7__cxx1112basic_stringIcSt11char_traitsIcESaIcEEEEEE10write_someEbPKcmRNS_6system10error_codeE
FNA:13,108,_ZN5boost4json12basic_parserINS0_6detail12into_handlerISt3mapINSt7__cxx1112basic_stringIcSt11char_traitsIcESaIcEEES4_ISA_iSt4lessISA_ESaISt4pairIKSA_iEEESC_SaISD_ISE_SH_EEEEEE10write_someEbPKcmRNS_6system10error_codeE
FNA:13,10,_ZN5boost4json12basic_parserINS0_6detail12into_handlerISt3mapINSt7__cxx1112basic_stringIcSt11char_traitsIcESaIcEEESt5tupleIJiiEESt4lessISA_ESaISt4pairIKSA_SC_EEEEEE10write_someEbPKcmRNS_6system10error_codeE
FNA:13,126,_ZN5boost4json12basic_parserINS0_6detail12into_handlerISt3mapINSt7__cxx1112basic_stringIcSt11char_traitsIcESaIcEEESt6vectorISt4pairIiiESaISD_EESt4lessISA_ESaISC_IKSA_SF_EEEEEE10write_someEbPKcmRNS_6system10error_codeE
FNA:13,88,_ZN5boost4json12basic_parserINS0_6detail12into_handlerISt3mapINSt7__cxx1112basic_stringIcSt11char_traitsIcESaIcEEESt6vectorIiSaIiEESt4lessISA_ESaISt4pairIKSA_SD_EEEEEE10write_someEbPKcmRNS_6system10error_codeE
FNA:13,166,_ZN5boost4json12basic_parserINS0_6detail12into_handlerISt3mapINSt7__cxx1112basic_stringIcSt11char_traitsIcESaIcEEEiSt4lessISA_ESaISt4pairIKSA_iEEEEEE10write_someEbPKcmRNS_6system10error_codeE
FNA:13,58,_ZN5boost4json12basic_parserINS0_6detail12into_handlerISt4pairIDnmEEEE10write_someEbPKcmRNS_6system10error_codeE
FNA:13,95,_ZN5boost4json12basic_parserINS0_6detail12into_handlerISt4pairISt6vectorIiSaIiEESt3mapINSt7__cxx1112basic_stringIcSt11char_traitsIcESaIcEEES4_IibESt4lessISE_ESaIS4_IKSE_SF_EEEEEEE10write_someEbPKcmRNS_6system10error_codeE
FNA:13,9,_ZN5boost4json12basic_parserINS0_6detail12into_handlerISt4pairIiiEEEE10write_someEbPKcmRNS_6system10error_codeE
FNA:13,64,_ZN5boost4json12basic_parserINS0_6detail12into_handlerISt5arrayIiLm4EEEEE10write_someEbPKcmRNS_6system10error_codeE
FNA:13,9,_ZN5boost4json12basic_parserINS0_6detail12into_handlerISt5tupleIJSt6vectorIiSaIiEEEEEEE10write_someEbPKcmRNS_6system10error_codeE
FNA:13,103,_ZN5boost4json12basic_parserINS0_6detail12into_handlerISt5tupleIJifNSt7__cxx1112basic_stringIcSt11char_traitsIcESaIcEEEEEEEE10write_someEbPKcmRNS_6system10error_codeE
FNA:13,6,_ZN5boost4json12basic_parserINS0_6detail12into_handlerISt5tupleIJiiiEEEEE10write_someEbPKcmRNS_6system10error_codeE
FNA:13,42,_ZN5boost4json12basic_parserINS0_6detail12into_handlerISt6vectorIDnSaIDnEEEEE10write_someEbPKcmRNS_6system10error_codeE
FNA:13,63,_ZN5boost4json12basic_parserINS0_6detail12into_handlerISt6vectorINS_8variant27variantIJiNSt7__cxx1112basic_stringIcSt11char_traitsIcESaIcEEEEEESaISD_EEEEE10write_someEbPKcmRNS_6system10error_codeE
FNA:13,85,_ZN5boost4json12basic_parserINS0_6detail12into_handlerISt6vectorINSt7__cxx1112basic_stringIcSt11char_traitsIcESaIcEEESaISA_EEEEE10write_someEbPKcmRNS_6system10error_codeE
FNA:13,139,_ZN5boost4json12basic_parserINS0_6detail12into_handlerISt6vectorIS4_ISt4pairIiiESaIS6_EESaIS8_EEEEE10write_someEbPKcmRNS_6system10error_codeE
FNA:13,89,_ZN5boost4json12basic_parserINS0_6detail12into_handlerISt6vectorIS4_IiSaIiEESaIS6_EEEEE10write_someEbPKcmRNS_6system10error_codeE
FNA:13,57,_ZN5boost4json12basic_parserINS0_6detail12into_handlerISt6vectorISt3mapINSt7__cxx1112basic_stringIcSt11char_traitsIcESaIcEEEiSt4lessISB_ESaISt4pairIKSB_iEEESaISI_EEEEE10write_someEbPKcmRNS_6system10error_codeE
FNA:13,77,_ZN5boost4json12basic_parserINS0_6detail12into_handlerISt6vectorISt4pairIiiESaIS6_EEEEE10write_someEbPKcmRNS_6system10error_codeE
FNA:13,74,_ZN5boost4json12basic_parserINS0_6detail12into_handlerISt6vectorISt5arrayIiLm4EESaIS6_EEEEE10write_someEbPKcmRNS_6system10error_codeE
FNA:13,76,_ZN5boost4json12basic_parserINS0_6detail12into_handlerISt6vectorIbSaIbEEEEE10write_someEbPKcmRNS_6system10error_codeE
FNA:13,3,_ZN5boost4json12basic_parserINS0_6detail12into_handlerISt6vectorIcSaIcEEEEE10write_someEbPKcmRNS_6system10error_codeE
FNA:13,126,_ZN5boost4json12basic_parserINS0_6detail12into_handlerISt6vectorIfSaIfEEEEE10write_someEbPKcmRNS_6system10error_codeE
FNA:13,75,_ZN5boost4json12basic_parserINS0_6detail12into_handlerISt6vectorIiSaIiEEEEE10write_someEbPKcmRNS_6system10error_codeE
FNA:13,57,_ZN5boost4json12basic_parserINS0_6detail12into_handlerISt6vectorImSaImEEEEE10write_someEbPKcmRNS_6system10error_codeE
FNA:13,35,_ZN5boost4json12basic_parserINS0_6detail12into_handlerIaEEE10write_someEbPKcmRNS_6system10error_codeE
FNA:13,76,_ZN5boost4json12basic_parserINS0_6detail12into_handlerIbEEE10write_someEbPKcmRNS_6system10error_codeE
FNA:13,33,_ZN5boost4json12basic_parserINS0_6detail12into_handlerIcEEE10write_someEbPKcmRNS_6system10error_codeE
FNA:13,42,_ZN5boost4json12basic_parserINS0_6detail12into_handlerIdEEE10write_someEbPKcmRNS_6system10error_codeE
FNA:13,37,_ZN5boost4json12basic_parserINS0_6detail12into_handlerIfEEE10write_someEbPKcmRNS_6system10error_codeE
FNA:13,34,_ZN5boost4json12basic_parserINS0_6detail12into_handlerIhEEE10write_someEbPKcmRNS_6system10error_codeE
FNA:13,93,_ZN5boost4json12basic_parserINS0_6detail12into_handlerIiEEE10write_someEbPKcmRNS_6system10error_codeE
FNA:13,36,_ZN5boost4json12basic_parserINS0_6detail12into_handlerIjEEE10write_someEbPKcmRNS_6system10error_codeE
FNA:13,51,_ZN5boost4json12basic_parserINS0_6detail12into_handlerIlEEE10write_someEbPKcmRNS_6system10error_codeE
FNA:13,51,_ZN5boost4json12basic_parserINS0_6detail12into_handlerImEEE10write_someEbPKcmRNS_6system10error_codeE
FNA:13,37,_ZN5boost4json12basic_parserINS0_6detail12into_handlerIsEEE10write_someEbPKcmRNS_6system10error_codeE
FNA:13,36,_ZN5boost4json12basic_parserINS0_6detail12into_handlerItEEE10write_someEbPKcmRNS_6system10error_codeE
FNA:13,51,_ZN5boost4json12basic_parserINS0_6detail12into_handlerIxEEE10write_someEbPKcmRNS_6system10error_codeE
FNA:13,51,_ZN5boost4json12basic_parserINS0_6detail12into_handlerIyEEE10write_someEbPKcmRNS_6system10error_codeE
FNA:13,2207126,_ZN5boost4json12basic_parserINS0_6detail7handlerEE10write_someEbPKcmRNS_6system10error_codeE
FNL:14,287,301
FNA:14,28683,_ZN5boost4json12basic_parserINS0_11fail_parser7handlerEE15suspend_or_failENS4_5stateEm
FNA:14,17,_ZN5boost4json12basic_parserINS0_11null_parser7handlerEE15suspend_or_failENS4_5stateEm
FNA:14,10262,_ZN5boost4json12basic_parserINS0_12throw_parser7handlerEE15suspend_or_failENS4_5stateEm
FNA:14,0,_ZN5boost4json12basic_parserINS0_17basic_parser_test11utf8_parser7handlerEE15suspend_or_failENS5_5stateEm
FNA:14,0,_ZN5boost4json12basic_parserINS0_17basic_parser_test14comment_parser7handlerEE15suspend_or_failENS5_5stateEm
FNA:14,0,_ZN5boost4json12basic_parserINS0_17basic_parser_test14literal_parser7handlerEE15suspend_or_failENS5_5stateEm
FNA:14,0,_ZN5boost4json12basic_parserINS0_17basic_parser_test15std_null_parser7handlerEE15suspend_or_failENS5_5stateEm
FNA:14,0,_ZN5boost4json12basic_parserINS0_6detail12into_handlerIDnEEE15suspend_or_failENS5_5stateEm
FNA:14,0,_ZN5boost4json12basic_parserINS0_6detail12into_handlerINS0_6stringEEEE15suspend_or_failENS6_5stateEm
FNA:14,0,_ZN5boost4json12basic_parserINS0_6detail12into_handlerINS_8variant27variantIJNS4_9monostateEEEEEEE15suspend_or_failENS9_5stateEm
FNA:14,5,_ZN5boost4json12basic_parserINS0_6detail12into_handlerINS_8variant27variantIJNS4_9monostateESt6vectorIiSaIiEEEEEEEE15suspend_or_failENSC_5stateEm
FNA:14,0,_ZN5boost4json12basic_parserINS0_6detail12into_handlerINS_8variant27variantIJNS4_9monostateEiNSt7__cxx1112basic_stringIcSt11char_traitsIcESaIcEEEEEEEEE15suspend_or_failENSF_5stateEm
FNA:14,0,_ZN5boost4json12basic_parserINS0_6detail12into_handlerINS_8variant27variantIJNS4_9monostateEibEEEEEE15suspend_or_failENS9_5stateEm
FNA:14,5,_ZN5boost4json12basic_parserINS0_6detail12into_handlerINS_8variant27variantIJSt6vectorIiSaIiEEEEEEEE15suspend_or_failENSB_5stateEm
FNA:14,44,_ZN5boost4json12basic_parserINS0_6detail12into_handlerINS_8variant27variantIJSt6vectorIiSaIiEESt5tupleIJiNSt7__cxx1112basic_stringIcSt11char_traitsIcESaIcEEESt3mapISF_iSt4lessISF_ESaISt4pairIKSF_iEEEEES9_IJiSF_SG_ISF_dSI_SaISJ_ISK_dEEEEEEEEEEE15suspend_or_failENSV_5stateEm
FNA:14,0,_ZN5boost4json12basic_parserINS0_6detail12into_handlerINS_8variant27variantIJbmEEEEEE15suspend_or_failENS8_5stateEm
FNA:14,0,_ZN5boost4json12basic_parserINS0_6detail12into_handlerINS_8variant27variantIJiEEEEEE15suspend_or_failENS8_5stateEm
FNA:14,0,_ZN5boost4json12basic_parserINS0_6detail12into_handlerINS_8variant27variantIJiNSt7__cxx1112basic_stringIcSt11char_traitsIcESaIcEEEEEEEEE15suspend_or_failENSE_5stateEm
FNA:14,0,_ZN5boost4json12basic_parserINS0_6detail12into_handlerINSt7__cxx1112basic_stringIcSt11char_traitsIcESaIcEEEEEE15suspend_or_failENSB_5stateEm
FNA:14,34,_ZN5boost4json12basic_parserINS0_6detail12into_handlerISt3mapINSt7__cxx1112basic_stringIcSt11char_traitsIcESaIcEEES4_ISA_iSt4lessISA_ESaISt4pairIKSA_iEEESC_SaISD_ISE_SH_EEEEEE15suspend_or_failENSM_5stateEm
FNA:14,7,_ZN5boost4json12basic_parserINS0_6detail12into_handlerISt3mapINSt7__cxx1112basic_stringIcSt11char_traitsIcESaIcEEESt5tupleIJiiEESt4lessISA_ESaISt4pairIKSA_SC_EEEEEE15suspend_or_failENSL_5stateEm
FNA:14,33,_ZN5boost4json12basic_parserINS0_6detail12into_handlerISt3mapINSt7__cxx1112basic_stringIcSt11char_traitsIcESaIcEEESt6vectorISt4pairIiiESaISD_EESt4lessISA_ESaISC_IKSA_SF_EEEEEE15suspend_or_failENSN_5stateEm
FNA:14,17,_ZN5boost4json12basic_parserINS0_6detail12into_handlerISt3mapINSt7__cxx1112basic_stringIcSt11char_traitsIcESaIcEEESt6vectorIiSaIiEESt4lessISA_ESaISt4pairIKSA_SD_EEEEEE15suspend_or_failENSM_5stateEm
FNA:14,20,_ZN5boost4json12basic_parserINS0_6detail12into_handlerISt3mapINSt7__cxx1112basic_stringIcSt11char_traitsIcESaIcEEEiSt4lessISA_ESaISt4pairIKSA_iEEEEEE15suspend_or_failENSJ_5stateEm
FNA:14,23,_ZN5boost4json12basic_parserINS0_6detail12into_handlerISt4pairIDnmEEEE15suspend_or_failENS7_5stateEm
FNA:14,41,_ZN5boost4json12basic_parserINS0_6detail12into_handlerISt4pairISt6vectorIiSaIiEESt3mapINSt7__cxx1112basic_stringIcSt11char_traitsIcESaIcEEES4_IibESt4lessISE_ESaIS4_IKSE_SF_EEEEEEE15suspend_or_failENSO_5stateEm
FNA:14,4,_ZN5boost4json12basic_parserINS0_6detail12into_handlerISt4pairIiiEEEE15suspend_or_failENS7_5stateEm
FNA:14,18,_ZN5boost4json12basic_parserINS0_6detail12into_handlerISt5arrayIiLm4EEEEE15suspend_or_failENS7_5stateEm
FNA:14,8,_ZN5boost4json12basic_parserINS0_6detail12into_handlerISt5tupleIJSt6vectorIiSaIiEEEEEEE15suspend_or_failENSA_5stateEm
FNA:14,31,_ZN5boost4json12basic_parserINS0_6detail12into_handlerISt5tupleIJifNSt7__cxx1112basic_stringIcSt11char_traitsIcESaIcEEEEEEEE15suspend_or_failENSD_5stateEm
FNA:14,2,_ZN5boost4json12basic_parserINS0_6detail12into_handlerISt5tupleIJiiiEEEEE15suspend_or_failENS7_5stateEm
FNA:14,6,_ZN5boost4json12basic_parserINS0_6detail12into_handlerISt6vectorIDnSaIDnEEEEE15suspend_or_failENS8_5stateEm
FNA:14,20,_ZN5boost4json12basic_parserINS0_6detail12into_handlerISt6vectorINS_8variant27variantIJiNSt7__cxx1112basic_stringIcSt11char_traitsIcESaIcEEEEEESaISD_EEEEE15suspend_or_failENSH_5stateEm
FNA:14,14,_ZN5boost4json12basic_parserINS0_6detail12into_handlerISt6vectorINSt7__cxx1112basic_stringIcSt11char_traitsIcESaIcEEESaISA_EEEEE15suspend_or_failENSE_5stateEm
FNA:14,72,_ZN5boost4json12basic_parserINS0_6detail12into_handlerISt6vectorIS4_ISt4pairIiiESaIS6_EESaIS8_EEEEE15suspend_or_failENSC_5stateEm
FNA:14,21,_ZN5boost4json12basic_parserINS0_6detail12into_handlerISt6vectorIS4_IiSaIiEESaIS6_EEEEE15suspend_or_failENSA_5stateEm
FNA:14,28,_ZN5boost4json12basic_parserINS0_6detail12into_handlerISt6vectorISt3mapINSt7__cxx1112basic_stringIcSt11char_traitsIcESaIcEEEiSt4lessISB_ESaISt4pairIKSB_iEEESaISI_EEEEE15suspend_or_failENSM_5stateEm
FNA:14,12,_ZN5boost4json12basic_parserINS0_6detail12into_handlerISt6vectorISt4pairIiiESaIS6_EEEEE15suspend_or_failENSA_5stateEm
FNA:14,60,_ZN5boost4json12basic_parserINS0_6detail12into_handlerISt6vectorISt5arrayIiLm4EESaIS6_EEEEE15suspend_or_failENSA_5stateEm
FNA:14,7,_ZN5boost4json12basic_parserINS0_6detail12into_handlerISt6vectorIbSaIbEEEEE15suspend_or_failENS8_5stateEm
FNA:14,0,_ZN5boost4json12basic_parserINS0_6detail12into_handlerISt6vectorIcSaIcEEEEE15suspend_or_failENS8_5stateEm
FNA:14,58,_ZN5boost4json12basic_parserINS0_6detail12into_handlerISt6vectorIfSaIfEEEEE15suspend_or_failENS8_5stateEm
FNA:14,3,_ZN5boost4json12basic_parserINS0_6detail12into_handlerISt6vectorIiSaIiEEEEE15suspend_or_failENS8_5stateEm
FNA:14,22,_ZN5boost4json12basic_parserINS0_6detail12into_handlerISt6vectorImSaImEEEEE15suspend_or_failENS8_5stateEm
FNA:14,0,_ZN5boost4json12basic_parserINS0_6detail12into_handlerIaEEE15suspend_or_failENS5_5stateEm
FNA:14,0,_ZN5boost4json12basic_parserINS0_6detail12into_handlerIbEEE15suspend_or_failENS5_5stateEm
FNA:14,0,_ZN5boost4json12basic_parserINS0_6detail12into_handlerIcEEE15suspend_or_failENS5_5stateEm
FNA:14,0,_ZN5boost4json12basic_parserINS0_6detail12into_handlerIdEEE15suspend_or_failENS5_5stateEm
FNA:14,0,_ZN5boost4json12basic_parserINS0_6detail12into_handlerIfEEE15suspend_or_failENS5_5stateEm
FNA:14,0,_ZN5boost4json12basic_parserINS0_6detail12into_handlerIhEEE15suspend_or_failENS5_5stateEm
FNA:14,0,_ZN5boost4json12basic_parserINS0_6detail12into_handlerIiEEE15suspend_or_failENS5_5stateEm
FNA:14,0,_ZN5boost4json12basic_parserINS0_6detail12into_handlerIjEEE15suspend_or_failENS5_5stateEm
FNA:14,0,_ZN5boost4json12basic_parserINS0_6detail12into_handlerIlEEE15suspend_or_failENS5_5stateEm
FNA:14,0,_ZN5boost4json12basic_parserINS0_6detail12into_handlerImEEE15suspend_or_failENS5_5stateEm
FNA:14,0,_ZN5boost4json12basic_parserINS0_6detail12into_handlerIsEEE15suspend_or_failENS5_5stateEm
FNA:14,0,_ZN5boost4json12basic_parserINS0_6detail12into_handlerItEEE15suspend_or_failENS5_5stateEm
FNA:14,0,_ZN5boost4json12basic_parserINS0_6detail12into_handlerIxEEE15suspend_or_failENS5_5stateEm
FNA:14,0,_ZN5boost4json12basic_parserINS0_6detail12into_handlerIyEEE15suspend_or_failENS5_5stateEm
FNA:14,16573,_ZN5boost4json12basic_parserINS0_6detail7handlerEE15suspend_or_failENS4_5stateEm
FNL:15,2893,2904
FNA:15,1,_ZN5boost4json12basic_parserINS0_17basic_parser_test15std_null_parser7handlerEE10write_someEbPKcmRSt10error_code
FNL:16,306,312
FNA:16,18957,_ZN5boost4json12basic_parserINS0_11fail_parser7handlerEE4failEPKc
FNA:16,0,_ZN5boost4json12basic_parserINS0_11null_parser7handlerEE4failEPKc
FNA:16,0,_ZN5boost4json12basic_parserINS0_12throw_parser7handlerEE4failEPKc
FNA:16,0,_ZN5boost4json12basic_parserINS0_17basic_parser_test11utf8_parser7handlerEE4failEPKc
FNA:16,0,_ZN5boost4json12basic_parserINS0_17basic_parser_test14comment_parser7handlerEE4failEPKc
FNA:16,0,_ZN5boost4json12basic_parserINS0_17basic_parser_test14literal_parser7handlerEE4failEPKc
FNA:16,0,_ZN5boost4json12basic_parserINS0_17basic_parser_test15std_null_parser7handlerEE4failEPKc
FNA:16,2,_ZN5boost4json12basic_parserINS0_6detail12into_handlerIDnEEE4failEPKc
FNA:16,2,_ZN5boost4json12basic_parserINS0_6detail12into_handlerINS0_6stringEEEE4failEPKc
FNA:16,2,_ZN5boost4json12basic_parserINS0_6detail12into_handlerINS_8variant27variantIJNS4_9monostateEEEEEEE4failEPKc
FNA:16,0,_ZN5boost4json12basic_parserINS0_6detail12into_handlerINS_8variant27variantIJNS4_9monostateESt6vectorIiSaIiEEEEEEEE4failEPKc
FNA:16,0,_ZN5boost4json12basic_parserINS0_6detail12into_handlerINS_8variant27variantIJNS4_9monostateEiNSt7__cxx1112basic_stringIcSt11char_traitsIcESaIcEEEEEEEEE4failEPKc
FNA:16,2,_ZN5boost4json12basic_parserINS0_6detail12into_handlerINS_8variant27variantIJNS4_9monostateEibEEEEEE4failEPKc
FNA:16,0,_ZN5boost4json12basic_parserINS0_6detail12into_handlerINS_8variant27variantIJSt6vectorIiSaIiEEEEEEEE4failEPKc
FNA:16,0,_ZN5boost4json12basic_parserINS0_6detail12into_handlerINS_8variant27variantIJSt6vectorIiSaIiEESt5tupleIJiNSt7__cxx1112basic_stringIcSt11char_traitsIcESaIcEEESt3mapISF_iSt4lessISF_ESaISt4pairIKSF_iEEEEES9_IJiSF_SG_ISF_dSI_SaISJ_ISK_dEEEEEEEEEEE4failEPKc
FNA:16,0,_ZN5boost4json12basic_parserINS0_6detail12into_handlerINS_8variant27variantIJbmEEEEEE4failEPKc
FNA:16,2,_ZN5boost4json12basic_parserINS0_6detail12into_handlerINS_8variant27variantIJiEEEEEE4failEPKc
FNA:16,0,_ZN5boost4json12basic_parserINS0_6detail12into_handlerINS_8variant27variantIJiNSt7__cxx1112basic_stringIcSt11char_traitsIcESaIcEEEEEEEEE4failEPKc
FNA:16,0,_ZN5boost4json12basic_parserINS0_6detail12into_handlerINSt7__cxx1112basic_stringIcSt11char_traitsIcESaIcEEEEEE4failEPKc
FNA:16,2,_ZN5boost4json12basic_parserINS0_6detail12into_handlerISt3mapINSt7__cxx1112basic_stringIcSt11char_traitsIcESaIcEEES4_ISA_iSt4lessISA_ESaISt4pairIKSA_iEEESC_SaISD_ISE_SH_EEEEEE4failEPKc
FNA:16,2,_ZN5boost4json12basic_parserINS0_6detail12into_handlerISt3mapINSt7__cxx1112basic_stringIcSt11char_traitsIcESaIcEEESt5tupleIJiiEESt4lessISA_ESaISt4pairIKSA_SC_EEEEEE4failEPKc
FNA:16,0,_ZN5boost4json12basic_parserINS0_6detail12into_handlerISt3mapINSt7__cxx1112basic_stringIcSt11char_traitsIcESaIcEEESt6vectorISt4pairIiiESaISD_EESt4lessISA_ESaISC_IKSA_SF_EEEEEE4failEPKc
FNA:16,0,_ZN5boost4json12basic_parserINS0_6detail12into_handlerISt3mapINSt7__cxx1112basic_stringIcSt11char_traitsIcESaIcEEESt6vectorIiSaIiEESt4lessISA_ESaISt4pairIKSA_SD_EEEEEE4failEPKc
FNA:16,2,_ZN5boost4json12basic_parserINS0_6detail12into_handlerISt3mapINSt7__cxx1112basic_stringIcSt11char_traitsIcESaIcEEEiSt4lessISA_ESaISt4pairIKSA_iEEEEEE4failEPKc
FNA:16,0,_ZN5boost4json12basic_parserINS0_6detail12into_handlerISt4pairIDnmEEEE4failEPKc
FNA:16,0,_ZN5boost4json12basic_parserINS0_6detail12into_handlerISt4pairISt6vectorIiSaIiEESt3mapINSt7__cxx1112basic_stringIcSt11char_traitsIcESaIcEEES4_IibESt4lessISE_ESaIS4_IKSE_SF_EEEEEEE4failEPKc
FNA:16,4,_ZN5boost4json12basic_parserINS0_6detail12into_handlerISt4pairIiiEEEE4failEPKc
FNA:16,4,_ZN5boost4json12basic_parserINS0_6detail12into_handlerISt5arrayIiLm4EEEEE4failEPKc
FNA:16,2,_ZN5boost4json12basic_parserINS0_6detail12into_handlerISt5tupleIJSt6vectorIiSaIiEEEEEEE4failEPKc
FNA:16,0,_ZN5boost4json12basic_parserINS0_6detail12into_handlerISt5tupleIJifNSt7__cxx1112basic_stringIcSt11char_traitsIcESaIcEEEEEEEE4failEPKc
FNA:16,2,_ZN5boost4json12basic_parserINS0_6detail12into_handlerISt5tupleIJiiiEEEEE4failEPKc
FNA:16,0,_ZN5boost4json12basic_parserINS0_6detail12into_handlerISt6vectorIDnSaIDnEEEEE4failEPKc
FNA:16,0,_ZN5boost4json12basic_parserINS0_6detail12into_handlerISt6vectorINS_8variant27variantIJiNSt7__cxx1112basic_stringIcSt11char_traitsIcESaIcEEEEEESaISD_EEEEE4failEPKc
FNA:16,0,_ZN5boost4json12basic_parserINS0_6detail12into_handlerISt6vectorINSt7__cxx1112basic_stringIcSt11char_traitsIcESaIcEEESaISA_EEEEE4failEPKc
FNA:16,0,_ZN5boost4json12basic_parserINS0_6detail12into_handlerISt6vectorIS4_ISt4pairIiiESaIS6_EESaIS8_EEEEE4failEPKc
FNA:16,2,_ZN5boost4json12basic_parserINS0_6detail12into_handlerISt6vectorIS4_IiSaIiEESaIS6_EEEEE4failEPKc
FNA:16,0,_ZN5boost4json12basic_parserINS0_6detail12into_handlerISt6vectorISt3mapINSt7__cxx1112basic_stringIcSt11char_traitsIcESaIcEEEiSt4lessISB_ESaISt4pairIKSB_iEEESaISI_EEEEE4failEPKc
FNA:16,0,_ZN5boost4json12basic_parserINS0_6detail12into_handlerISt6vectorISt4pairIiiESaIS6_EEEEE4failEPKc
FNA:16,0,_ZN5boost4json12basic_parserINS0_6detail12into_handlerISt6vectorISt5arrayIiLm4EESaIS6_EEEEE4failEPKc
FNA:16,0,_ZN5boost4json12basic_parserINS0_6detail12into_handlerISt6vectorIbSaIbEEEEE4failEPKc
FNA:16,2,_ZN5boost4json12basic_parserINS0_6detail12into_handlerISt6vectorIcSaIcEEEEE4failEPKc
FNA:16,0,_ZN5boost4json12basic_parserINS0_6detail12into_handlerISt6vectorIfSaIfEEEEE4failEPKc
FNA:16,2,_ZN5boost4json12basic_parserINS0_6detail12into_handlerISt6vectorIiSaIiEEEEE4failEPKc
FNA:16,0,_ZN5boost4json12basic_parserINS0_6detail12into_handlerISt6vectorImSaImEEEEE4failEPKc
FNA:16,0,_ZN5boost4json12basic_parserINS0_6detail12into_handlerIaEEE4failEPKc
FNA:16,2,_ZN5boost4json12basic_parserINS0_6detail12into_handlerIbEEE4failEPKc
FNA:16,0,_ZN5boost4json12basic_parserINS0_6detail12into_handlerIcEEE4failEPKc
FNA:16,2,_ZN5boost4json12basic_parserINS0_6detail12into_handlerIdEEE4failEPKc
FNA:16,0,_ZN5boost4json12basic_parserINS0_6detail12into_handlerIfEEE4failEPKc
FNA:16,0,_ZN5boost4json12basic_parserINS0_6detail12into_handlerIhEEE4failEPKc
FNA:16,10,_ZN5boost4json12basic_parserINS0_6detail12into_handlerIiEEE4failEPKc
FNA:16,0,_ZN5boost4json12basic_parserINS0_6detail12into_handlerIjEEE4failEPKc
FNA:16,0,_ZN5boost4json12basic_parserINS0_6detail12into_handlerIlEEE4failEPKc
FNA:16,0,_ZN5boost4json12basic_parserINS0_6detail12into_handlerImEEE4failEPKc
FNA:16,0,_ZN5boost4json12basic_parserINS0_6detail12into_handlerIsEEE4failEPKc
FNA:16,0,_ZN5boost4json12basic_parserINS0_6detail12into_handlerItEEE4failEPKc
FNA:16,0,_ZN5boost4json12basic_parserINS0_6detail12into_handlerIxEEE4failEPKc
FNA:16,0,_ZN5boost4json12basic_parserINS0_6detail12into_handlerIyEEE4failEPKc
FNA:16,0,_ZN5boost4json12basic_parserINS0_6detail7handlerEE4failEPKc
FNL:17,316,326
FNA:17,5485,_ZN5boost4json12basic_parserINS0_11fail_parser7handlerEE4failEPKcNS0_5errorEPKNS_15source_locationE
FNA:17,6,_ZN5boost4json12basic_parserINS0_11null_parser7handlerEE4failEPKcNS0_5errorEPKNS_15source_locationE
FNA:17,2259,_ZN5boost4json12basic_parserINS0_12throw_parser7handlerEE4failEPKcNS0_5errorEPKNS_15source_locationE
FNA:17,0,_ZN5boost4json12basic_parserINS0_17basic_parser_test11utf8_parser7handlerEE4failEPKcNS0_5errorEPKNS_15source_locationE
FNA:17,0,_ZN5boost4json12basic_parserINS0_17basic_parser_test14comment_parser7handlerEE4failEPKcNS0_5errorEPKNS_15source_locationE
FNA:17,0,_ZN5boost4json12basic_parserINS0_17basic_parser_test14literal_parser7handlerEE4failEPKcNS0_5errorEPKNS_15source_locationE
FNA:17,0,_ZN5boost4json12basic_parserINS0_17basic_parser_test15std_null_parser7handlerEE4failEPKcNS0_5errorEPKNS_15source_locationE
FNA:17,0,_ZN5boost4json12basic_parserINS0_6detail12into_handlerIDnEEE4failEPKcNS0_5errorEPKNS_15source_locationE
FNA:17,0,_ZN5boost4json12basic_parserINS0_6detail12into_handlerINS0_6stringEEEE4failEPKcNS0_5errorEPKNS_15source_locationE
FNA:17,0,_ZN5boost4json12basic_parserINS0_6detail12into_handlerINS_8variant27variantIJNS4_9monostateEEEEEEE4failEPKcNS0_5errorEPKNS_15source_locationE
FNA:17,0,_ZN5boost4json12basic_parserINS0_6detail12into_handlerINS_8variant27variantIJNS4_9monostateESt6vectorIiSaIiEEEEEEEE4failEPKcNS0_5errorEPKNS_15source_locationE
FNA:17,0,_ZN5boost4json12basic_parserINS0_6detail12into_handlerINS_8variant27variantIJNS4_9monostateEiNSt7__cxx1112basic_stringIcSt11char_traitsIcESaIcEEEEEEEEE4failEPKcNS0_5errorEPKNS_15source_locationE
FNA:17,0,_ZN5boost4json12basic_parserINS0_6detail12into_handlerINS_8variant27variantIJNS4_9monostateEibEEEEEE4failEPKcNS0_5errorEPKNS_15source_locationE
FNA:17,0,_ZN5boost4json12basic_parserINS0_6detail12into_handlerINS_8variant27variantIJSt6vectorIiSaIiEEEEEEEE4failEPKcNS0_5errorEPKNS_15source_locationE
FNA:17,0,_ZN5boost4json12basic_parserINS0_6detail12into_handlerINS_8variant27variantIJSt6vectorIiSaIiEESt5tupleIJiNSt7__cxx1112basic_stringIcSt11char_traitsIcESaIcEEESt3mapISF_iSt4lessISF_ESaISt4pairIKSF_iEEEEES9_IJiSF_SG_ISF_dSI_SaISJ_ISK_dEEEEEEEEEEE4failEPKcNS0_5errorEPKNS_15source_locationE
FNA:17,0,_ZN5boost4json12basic_parserINS0_6detail12into_handlerINS_8variant27variantIJbmEEEEEE4failEPKcNS0_5errorEPKNS_15source_locationE
FNA:17,0,_ZN5boost4json12basic_parserINS0_6detail12into_handlerINS_8variant27variantIJiEEEEEE4failEPKcNS0_5errorEPKNS_15source_locationE
FNA:17,0,_ZN5boost4json12basic_parserINS0_6detail12into_handlerINS_8variant27variantIJiNSt7__cxx1112basic_stringIcSt11char_traitsIcESaIcEEEEEEEEE4failEPKcNS0_5errorEPKNS_15source_locationE
FNA:17,0,_ZN5boost4json12basic_parserINS0_6detail12into_handlerINSt7__cxx1112basic_stringIcSt11char_traitsIcESaIcEEEEEE4failEPKcNS0_5errorEPKNS_15source_locationE
FNA:17,0,_ZN5boost4json12basic_parserINS0_6detail12into_handlerISt3mapINSt7__cxx1112basic_stringIcSt11char_traitsIcESaIcEEES4_ISA_iSt4lessISA_ESaISt4pairIKSA_iEEESC_SaISD_ISE_SH_EEEEEE4failEPKcNS0_5errorEPKNS_15source_locationE
FNA:17,0,_ZN5boost4json12basic_parserINS0_6detail12into_handlerISt3mapINSt7__cxx1112basic_stringIcSt11char_traitsIcESaIcEEESt5tupleIJiiEESt4lessISA_ESaISt4pairIKSA_SC_EEEEEE4failEPKcNS0_5errorEPKNS_15source_locationE
FNA:17,0,_ZN5boost4json12basic_parserINS0_6detail12into_handlerISt3mapINSt7__cxx1112basic_stringIcSt11char_traitsIcESaIcEEESt6vectorISt4pairIiiESaISD_EESt4lessISA_ESaISC_IKSA_SF_EEEEEE4failEPKcNS0_5errorEPKNS_15source_locationE
FNA:17,0,_ZN5boost4json12basic_parserINS0_6detail12into_handlerISt3mapINSt7__cxx1112basic_stringIcSt11char_traitsIcESaIcEEESt6vectorIiSaIiEESt4lessISA_ESaISt4pairIKSA_SD_EEEEEE4failEPKcNS0_5errorEPKNS_15source_locationE
FNA:17,0,_ZN5boost4json12basic_parserINS0_6detail12into_handlerISt3mapINSt7__cxx1112basic_stringIcSt11char_traitsIcESaIcEEEiSt4lessISA_ESaISt4pairIKSA_iEEEEEE4failEPKcNS0_5errorEPKNS_15source_locationE
FNA:17,0,_ZN5boost4json12basic_parserINS0_6detail12into_handlerISt4pairIDnmEEEE4failEPKcNS0_5errorEPKNS_15source_locationE
FNA:17,0,_ZN5boost4json12basic_parserINS0_6detail12into_handlerISt4pairISt6vectorIiSaIiEESt3mapINSt7__cxx1112basic_stringIcSt11char_traitsIcESaIcEEES4_IibESt4lessISE_ESaIS4_IKSE_SF_EEEEEEE4failEPKcNS0_5errorEPKNS_15source_locationE
FNA:17,0,_ZN5boost4json12basic_parserINS0_6detail12into_handlerISt4pairIiiEEEE4failEPKcNS0_5errorEPKNS_15source_locationE
FNA:17,0,_ZN5boost4json12basic_parserINS0_6detail12into_handlerISt5arrayIiLm4EEEEE4failEPKcNS0_5errorEPKNS_15source_locationE
FNA:17,0,_ZN5boost4json12basic_parserINS0_6detail12into_handlerISt5tupleIJSt6vectorIiSaIiEEEEEEE4failEPKcNS0_5errorEPKNS_15source_locationE
FNA:17,0,_ZN5boost4json12basic_parserINS0_6detail12into_handlerISt5tupleIJifNSt7__cxx1112basic_stringIcSt11char_traitsIcESaIcEEEEEEEE4failEPKcNS0_5errorEPKNS_15source_locationE
FNA:17,0,_ZN5boost4json12basic_parserINS0_6detail12into_handlerISt5tupleIJiiiEEEEE4failEPKcNS0_5errorEPKNS_15source_locationE
FNA:17,0,_ZN5boost4json12basic_parserINS0_6detail12into_handlerISt6vectorIDnSaIDnEEEEE4failEPKcNS0_5errorEPKNS_15source_locationE
FNA:17,0,_ZN5boost4json12basic_parserINS0_6detail12into_handlerISt6vectorINS_8variant27variantIJiNSt7__cxx1112basic_stringIcSt11char_traitsIcESaIcEEEEEESaISD_EEEEE4failEPKcNS0_5errorEPKNS_15source_locationE
FNA:17,0,_ZN5boost4json12basic_parserINS0_6detail12into_handlerISt6vectorINSt7__cxx1112basic_stringIcSt11char_traitsIcESaIcEEESaISA_EEEEE4failEPKcNS0_5errorEPKNS_15source_locationE
FNA:17,0,_ZN5boost4json12basic_parserINS0_6detail12into_handlerISt6vectorIS4_ISt4pairIiiESaIS6_EESaIS8_EEEEE4failEPKcNS0_5errorEPKNS_15source_locationE
FNA:17,0,_ZN5boost4json12basic_parserINS0_6detail12into_handlerISt6vectorIS4_IiSaIiEESaIS6_EEEEE4failEPKcNS0_5errorEPKNS_15source_locationE
FNA:17,0,_ZN5boost4json12basic_parserINS0_6detail12into_handlerISt6vectorISt3mapINSt7__cxx1112basic_stringIcSt11char_traitsIcESaIcEEEiSt4lessISB_ESaISt4pairIKSB_iEEESaISI_EEEEE4failEPKcNS0_5errorEPKNS_15source_locationE
FNA:17,0,_ZN5boost4json12basic_parserINS0_6detail12into_handlerISt6vectorISt4pairIiiESaIS6_EEEEE4failEPKcNS0_5errorEPKNS_15source_locationE
FNA:17,0,_ZN5boost4json12basic_parserINS0_6detail12into_handlerISt6vectorISt5arrayIiLm4EESaIS6_EEEEE4failEPKcNS0_5errorEPKNS_15source_locationE
FNA:17,0,_ZN5boost4json12basic_parserINS0_6detail12into_handlerISt6vectorIbSaIbEEEEE4failEPKcNS0_5errorEPKNS_15source_locationE
FNA:17,0,_ZN5boost4json12basic_parserINS0_6detail12into_handlerISt6vectorIcSaIcEEEEE4failEPKcNS0_5errorEPKNS_15source_locationE
FNA:17,0,_ZN5boost4json12basic_parserINS0_6detail12into_handlerISt6vectorIfSaIfEEEEE4failEPKcNS0_5errorEPKNS_15source_locationE
FNA:17,0,_ZN5boost4json12basic_parserINS0_6detail12into_handlerISt6vectorIiSaIiEEEEE4failEPKcNS0_5errorEPKNS_15source_locationE
FNA:17,0,_ZN5boost4json12basic_parserINS0_6detail12into_handlerISt6vectorImSaImEEEEE4failEPKcNS0_5errorEPKNS_15source_locationE
FNA:17,0,_ZN5boost4json12basic_parserINS0_6detail12into_handlerIaEEE4failEPKcNS0_5errorEPKNS_15source_locationE
FNA:17,0,_ZN5boost4json12basic_parserINS0_6detail12into_handlerIbEEE4failEPKcNS0_5errorEPKNS_15source_locationE
FNA:17,0,_ZN5boost4json12basic_parserINS0_6detail12into_handlerIcEEE4failEPKcNS0_5errorEPKNS_15source_locationE
FNA:17,0,_ZN5boost4json12basic_parserINS0_6detail12into_handlerIdEEE4failEPKcNS0_5errorEPKNS_15source_locationE
FNA:17,0,_ZN5boost4json12basic_parserINS0_6detail12into_handlerIfEEE4failEPKcNS0_5errorEPKNS_15source_locationE
FNA:17,0,_ZN5boost4json12basic_parserINS0_6detail12into_handlerIhEEE4failEPKcNS0_5errorEPKNS_15source_locationE
FNA:17,0,_ZN5boost4json12basic_parserINS0_6detail12into_handlerIiEEE4failEPKcNS0_5errorEPKNS_15source_locationE
FNA:17,0,_ZN5boost4json12basic_parserINS0_6detail12into_handlerIjEEE4failEPKcNS0_5errorEPKNS_15source_locationE
FNA:17,0,_ZN5boost4json12basic_parserINS0_6detail12into_handlerIlEEE4failEPKcNS0_5errorEPKNS_15source_locationE
FNA:17,0,_ZN5boost4json12basic_parserINS0_6detail12into_handlerImEEE4failEPKcNS0_5errorEPKNS_15source_locationE
FNA:17,0,_ZN5boost4json12basic_parserINS0_6detail12into_handlerIsEEE4failEPKcNS0_5errorEPKNS_15source_locationE
FNA:17,0,_ZN5boost4json12basic_parserINS0_6detail12into_handlerItEEE4failEPKcNS0_5errorEPKNS_15source_locationE
FNA:17,0,_ZN5boost4json12basic_parserINS0_6detail12into_handlerIxEEE4failEPKcNS0_5errorEPKNS_15source_locationE
FNA:17,0,_ZN5boost4json12basic_parserINS0_6detail12into_handlerIyEEE4failEPKcNS0_5errorEPKNS_15source_locationE
FNA:17,22,_ZN5boost4json12basic_parserINS0_6detail7handlerEE4failEPKcNS0_5errorEPKNS_15source_locationE
FNL:18,330,344
FNA:18,4221,_ZN5boost4json12basic_parserINS0_11fail_parser7handlerEE13maybe_suspendEPKcNS4_5stateE
FNA:18,0,_ZN5boost4json12basic_parserINS0_11null_parser7handlerEE13maybe_suspendEPKcNS4_5stateE
FNA:18,3850,_ZN5boost4json12basic_parserINS0_12throw_parser7handlerEE13maybe_suspendEPKcNS4_5stateE
FNA:18,0,_ZN5boost4json12basic_parserINS0_17basic_parser_test11utf8_parser7handlerEE13maybe_suspendEPKcNS5_5stateE
FNA:18,0,_ZN5boost4json12basic_parserINS0_17basic_parser_test14comment_parser7handlerEE13maybe_suspendEPKcNS5_5stateE
FNA:18,0,_ZN5boost4json12basic_parserINS0_17basic_parser_test14literal_parser7handlerEE13maybe_suspendEPKcNS5_5stateE
FNA:18,0,_ZN5boost4json12basic_parserINS0_17basic_parser_test15std_null_parser7handlerEE13maybe_suspendEPKcNS5_5stateE
FNA:18,44,_ZN5boost4json12basic_parserINS0_6detail12into_handlerIDnEEE13maybe_suspendEPKcNS5_5stateE
FNA:18,0,_ZN5boost4json12basic_parserINS0_6detail12into_handlerINS0_6stringEEEE13maybe_suspendEPKcNS6_5stateE
FNA:18,0,_ZN5boost4json12basic_parserINS0_6detail12into_handlerINS_8variant27variantIJNS4_9monostateEEEEEEE13maybe_suspendEPKcNS9_5stateE
FNA:18,41,_ZN5boost4json12basic_parserINS0_6detail12into_handlerINS_8variant27variantIJNS4_9monostateESt6vectorIiSaIiEEEEEEEE13maybe_suspendEPKcNSC_5stateE
FNA:18,126,_ZN5boost4json12basic_parserINS0_6detail12into_handlerINS_8variant27variantIJNS4_9monostateEiNSt7__cxx1112basic_stringIcSt11char_traitsIcESaIcEEEEEEEEE13maybe_suspendEPKcNSF_5stateE
FNA:18,0,_ZN5boost4json12basic_parserINS0_6detail12into_handlerINS_8variant27variantIJNS4_9monostateEibEEEEEE13maybe_suspendEPKcNS9_5stateE
FNA:18,41,_ZN5boost4json12basic_parserINS0_6detail12into_handlerINS_8variant27variantIJSt6vectorIiSaIiEEEEEEEE13maybe_suspendEPKcNSB_5stateE
FNA:18,41,_ZN5boost4json12basic_parserINS0_6detail12into_handlerINS_8variant27variantIJSt6vectorIiSaIiEESt5tupleIJiNSt7__cxx1112basic_stringIcSt11char_traitsIcESaIcEEESt3mapISF_iSt4lessISF_ESaISt4pairIKSF_iEEEEES9_IJiSF_SG_ISF_dSI_SaISJ_ISK_dEEEEEEEEEEE13maybe_suspendEPKcNSV_5stateE
FNA:18,85,_ZN5boost4json12basic_parserINS0_6detail12into_handlerINS_8variant27variantIJbmEEEEEE13maybe_suspendEPKcNS8_5stateE
FNA:18,41,_ZN5boost4json12basic_parserINS0_6detail12into_handlerINS_8variant27variantIJiEEEEEE13maybe_suspendEPKcNS8_5stateE
FNA:18,82,_ZN5boost4json12basic_parserINS0_6detail12into_handlerINS_8variant27variantIJiNSt7__cxx1112basic_stringIcSt11char_traitsIcESaIcEEEEEEEEE13maybe_suspendEPKcNSE_5stateE
FNA:18,82,_ZN5boost4json12basic_parserINS0_6detail12into_handlerINSt7__cxx1112basic_stringIcSt11char_traitsIcESaIcEEEEEE13maybe_suspendEPKcNSB_5stateE
FNA:18,82,_ZN5boost4json12basic_parserINS0_6detail12into_handlerISt3mapINSt7__cxx1112basic_stringIcSt11char_traitsIcESaIcEEES4_ISA_iSt4lessISA_ESaISt4pairIKSA_iEEESC_SaISD_ISE_SH_EEEEEE13maybe_suspendEPKcNSM_5stateE
FNA:18,0,_ZN5boost4json12basic_parserINS0_6detail12into_handlerISt3mapINSt7__cxx1112basic_stringIcSt11char_traitsIcESaIcEEESt5tupleIJiiEESt4lessISA_ESaISt4pairIKSA_SC_EEEEEE13maybe_suspendEPKcNSL_5stateE
FNA:18,123,_ZN5boost4json12basic_parserINS0_6detail12into_handlerISt3mapINSt7__cxx1112basic_stringIcSt11char_traitsIcESaIcEEESt6vectorISt4pairIiiESaISD_EESt4lessISA_ESaISC_IKSA_SF_EEEEEE13maybe_suspendEPKcNSN_5stateE
FNA:18,82,_ZN5boost4json12basic_parserINS0_6detail12into_handlerISt3mapINSt7__cxx1112basic_stringIcSt11char_traitsIcESaIcEEESt6vectorIiSaIiEESt4lessISA_ESaISt4pairIKSA_SD_EEEEEE13maybe_suspendEPKcNSM_5stateE
FNA:18,164,_ZN5boost4json12basic_parserINS0_6detail12into_handlerISt3mapINSt7__cxx1112basic_stringIcSt11char_traitsIcESaIcEEEiSt4lessISA_ESaISt4pairIKSA_iEEEEEE13maybe_suspendEPKcNSJ_5stateE
FNA:18,44,_ZN5boost4json12basic_parserINS0_6detail12into_handlerISt4pairIDnmEEEE13maybe_suspendEPKcNS7_5stateE
FNA:18,85,_ZN5boost4json12basic_parserINS0_6detail12into_handlerISt4pairISt6vectorIiSaIiEESt3mapINSt7__cxx1112basic_stringIcSt11char_traitsIcESaIcEEES4_IibESt4lessISE_ESaIS4_IKSE_SF_EEEEEEE13maybe_suspendEPKcNSO_5stateE
FNA:18,0,_ZN5boost4json12basic_parserINS0_6detail12into_handlerISt4pairIiiEEEE13maybe_suspendEPKcNS7_5stateE
FNA:18,41,_ZN5boost4json12basic_parserINS0_6detail12into_handlerISt5arrayIiLm4EEEEE13maybe_suspendEPKcNS7_5stateE
FNA:18,0,_ZN5boost4json12basic_parserINS0_6detail12into_handlerISt5tupleIJSt6vectorIiSaIiEEEEEEE13maybe_suspendEPKcNSA_5stateE
FNA:18,82,_ZN5boost4json12basic_parserINS0_6detail12into_handlerISt5tupleIJifNSt7__cxx1112basic_stringIcSt11char_traitsIcESaIcEEEEEEEE13maybe_suspendEPKcNSD_5stateE
FNA:18,0,_ZN5boost4json12basic_parserINS0_6detail12into_handlerISt5tupleIJiiiEEEEE13maybe_suspendEPKcNS7_5stateE
FNA:18,47,_ZN5boost4json12basic_parserINS0_6detail12into_handlerISt6vectorIDnSaIDnEEEEE13maybe_suspendEPKcNS8_5stateE
FNA:18,41,_ZN5boost4json12basic_parserINS0_6detail12into_handlerISt6vectorINS_8variant27variantIJiNSt7__cxx1112basic_stringIcSt11char_traitsIcESaIcEEEEEESaISD_EEEEE13maybe_suspendEPKcNSH_5stateE
FNA:18,82,_ZN5boost4json12basic_parserINS0_6detail12into_handlerISt6vectorINSt7__cxx1112basic_stringIcSt11char_traitsIcESaIcEEESaISA_EEEEE13maybe_suspendEPKcNSE_5stateE
FNA:18,123,_ZN5boost4json12basic_parserINS0_6detail12into_handlerISt6vectorIS4_ISt4pairIiiESaIS6_EESaIS8_EEEEE13maybe_suspendEPKcNSC_5stateE
FNA:18,82,_ZN5boost4json12basic_parserINS0_6detail12into_handlerISt6vectorIS4_IiSaIiEESaIS6_EEEEE13maybe_suspendEPKcNSA_5stateE
FNA:18,41,_ZN5boost4json12basic_parserINS0_6detail12into_handlerISt6vectorISt3mapINSt7__cxx1112basic_stringIcSt11char_traitsIcESaIcEEEiSt4lessISB_ESaISt4pairIKSB_iEEESaISI_EEEEE13maybe_suspendEPKcNSM_5stateE
FNA:18,82,_ZN5boost4json12basic_parserINS0_6detail12into_handlerISt6vectorISt4pairIiiESaIS6_EEEEE13maybe_suspendEPKcNSA_5stateE
FNA:18,41,_ZN5boost4json12basic_parserINS0_6detail12into_handlerISt6vectorISt5arrayIiLm4EESaIS6_EEEEE13maybe_suspendEPKcNSA_5stateE
FNA:18,89,_ZN5boost4json12basic_parserINS0_6detail12into_handlerISt6vectorIbSaIbEEEEE13maybe_suspendEPKcNS8_5stateE
FNA:18,0,_ZN5boost4json12basic_parserINS0_6detail12into_handlerISt6vectorIcSaIcEEEEE13maybe_suspendEPKcNS8_5stateE
FNA:18,82,_ZN5boost4json12basic_parserINS0_6detail12into_handlerISt6vectorIfSaIfEEEEE13maybe_suspendEPKcNS8_5stateE
FNA:18,82,_ZN5boost4json12basic_parserINS0_6detail12into_handlerISt6vectorIiSaIiEEEEE13maybe_suspendEPKcNS8_5stateE
FNA:18,41,_ZN5boost4json12basic_parserINS0_6detail12into_handlerISt6vectorImSaImEEEEE13maybe_suspendEPKcNS8_5stateE
FNA:18,41,_ZN5boost4json12basic_parserINS0_6detail12into_handlerIaEEE13maybe_suspendEPKcNS5_5stateE
FNA:18,92,_ZN5boost4json12basic_parserINS0_6detail12into_handlerIbEEE13maybe_suspendEPKcNS5_5stateE
FNA:18,41,_ZN5boost4json12basic_parserINS0_6detail12into_handlerIcEEE13maybe_suspendEPKcNS5_5stateE
FNA:18,41,_ZN5boost4json12basic_parserINS0_6detail12into_handlerIdEEE13maybe_suspendEPKcNS5_5stateE
FNA:18,41,_ZN5boost4json12basic_parserINS0_6detail12into_handlerIfEEE13maybe_suspendEPKcNS5_5stateE
FNA:18,41,_ZN5boost4json12basic_parserINS0_6detail12into_handlerIhEEE13maybe_suspendEPKcNS5_5stateE
FNA:18,44,_ZN5boost4json12basic_parserINS0_6detail12into_handlerIiEEE13maybe_suspendEPKcNS5_5stateE
FNA:18,41,_ZN5boost4json12basic_parserINS0_6detail12into_handlerIjEEE13maybe_suspendEPKcNS5_5stateE
FNA:18,41,_ZN5boost4json12basic_parserINS0_6detail12into_handlerIlEEE13maybe_suspendEPKcNS5_5stateE
FNA:18,41,_ZN5boost4json12basic_parserINS0_6detail12into_handlerImEEE13maybe_suspendEPKcNS5_5stateE
FNA:18,41,_ZN5boost4json12basic_parserINS0_6detail12into_handlerIsEEE13maybe_suspendEPKcNS5_5stateE
FNA:18,41,_ZN5boost4json12basic_parserINS0_6detail12into_handlerItEEE13maybe_suspendEPKcNS5_5stateE
FNA:18,41,_ZN5boost4json12basic_parserINS0_6detail12into_handlerIxEEE13maybe_suspendEPKcNS5_5stateE
FNA:18,41,_ZN5boost4json12basic_parserINS0_6detail12into_handlerIyEEE13maybe_suspendEPKcNS5_5stateE
FNA:18,471,_ZN5boost4json12basic_parserINS0_6detail7handlerEE13maybe_suspendEPKcNS4_5stateE
FNL:19,348,364
FNA:19,10523,_ZN5boost4json12basic_parserINS0_11fail_parser7handlerEE13maybe_suspendEPKcNS4_5stateEm
FNA:19,1,_ZN5boost4json12basic_parserINS0_11null_parser7handlerEE13maybe_suspendEPKcNS4_5stateEm
FNA:19,10142,_ZN5boost4json12basic_parserINS0_12throw_parser7handlerEE13maybe_suspendEPKcNS4_5stateEm
FNA:19,15,_ZN5boost4json12basic_parserINS0_17basic_parser_test11utf8_parser7handlerEE13maybe_suspendEPKcNS5_5stateEm
FNA:19,0,_ZN5boost4json12basic_parserINS0_17basic_parser_test14comment_parser7handlerEE13maybe_suspendEPKcNS5_5stateEm
FNA:19,0,_ZN5boost4json12basic_parserINS0_17basic_parser_test14literal_parser7handlerEE13maybe_suspendEPKcNS5_5stateEm
FNA:19,0,_ZN5boost4json12basic_parserINS0_17basic_parser_test15std_null_parser7handlerEE13maybe_suspendEPKcNS5_5stateEm
FNA:19,0,_ZN5boost4json12basic_parserINS0_6detail12into_handlerIDnEEE13maybe_suspendEPKcNS5_5stateEm
FNA:19,0,_ZN5boost4json12basic_parserINS0_6detail12into_handlerINS0_6stringEEEE13maybe_suspendEPKcNS6_5stateEm
FNA:19,2,_ZN5boost4json12basic_parserINS0_6detail12into_handlerINS_8variant27variantIJNS4_9monostateEEEEEEE13maybe_suspendEPKcNS9_5stateEm
FNA:19,5,_ZN5boost4json12basic_parserINS0_6detail12into_handlerINS_8variant27variantIJNS4_9monostateESt6vectorIiSaIiEEEEEEEE13maybe_suspendEPKcNSC_5stateEm
FNA:19,7,_ZN5boost4json12basic_parserINS0_6detail12into_handlerINS_8variant27variantIJNS4_9monostateEiNSt7__cxx1112basic_stringIcSt11char_traitsIcESaIcEEEEEEEEE13maybe_suspendEPKcNSF_5stateEm
FNA:19,2,_ZN5boost4json12basic_parserINS0_6detail12into_handlerINS_8variant27variantIJNS4_9monostateEibEEEEEE13maybe_suspendEPKcNS9_5stateEm
FNA:19,5,_ZN5boost4json12basic_parserINS0_6detail12into_handlerINS_8variant27variantIJSt6vectorIiSaIiEEEEEEEE13maybe_suspendEPKcNSB_5stateEm
FNA:19,23,_ZN5boost4json12basic_parserINS0_6detail12into_handlerINS_8variant27variantIJSt6vectorIiSaIiEESt5tupleIJiNSt7__cxx1112basic_stringIcSt11char_traitsIcESaIcEEESt3mapISF_iSt4lessISF_ESaISt4pairIKSF_iEEEEES9_IJiSF_SG_ISF_dSI_SaISJ_ISK_dEEEEEEEEEEE13maybe_suspendEPKcNSV_5stateEm
FNA:19,0,_ZN5boost4json12basic_parserINS0_6detail12into_handlerINS_8variant27variantIJbmEEEEEE13maybe_suspendEPKcNS8_5stateEm
FNA:19,2,_ZN5boost4json12basic_parserINS0_6detail12into_handlerINS_8variant27variantIJiEEEEEE13maybe_suspendEPKcNS8_5stateEm
FNA:19,7,_ZN5boost4json12basic_parserINS0_6detail12into_handlerINS_8variant27variantIJiNSt7__cxx1112basic_stringIcSt11char_traitsIcESaIcEEEEEEEEE13maybe_suspendEPKcNSE_5stateEm
FNA:19,7,_ZN5boost4json12basic_parserINS0_6detail12into_handlerINSt7__cxx1112basic_stringIcSt11char_traitsIcESaIcEEEEEE13maybe_suspendEPKcNSB_5stateEm
FNA:19,40,_ZN5boost4json12basic_parserINS0_6detail12into_handlerISt3mapINSt7__cxx1112basic_stringIcSt11char_traitsIcESaIcEEES4_ISA_iSt4lessISA_ESaISt4pairIKSA_iEEESC_SaISD_ISE_SH_EEEEEE13maybe_suspendEPKcNSM_5stateEm
FNA:19,8,_ZN5boost4json12basic_parserINS0_6detail12into_handlerISt3mapINSt7__cxx1112basic_stringIcSt11char_traitsIcESaIcEEESt5tupleIJiiEESt4lessISA_ESaISt4pairIKSA_SC_EEEEEE13maybe_suspendEPKcNSL_5stateEm
FNA:19,26,_ZN5boost4json12basic_parserINS0_6detail12into_handlerISt3mapINSt7__cxx1112basic_stringIcSt11char_traitsIcESaIcEEESt6vectorISt4pairIiiESaISD_EESt4lessISA_ESaISC_IKSA_SF_EEEEEE13maybe_suspendEPKcNSN_5stateEm
FNA:19,20,_ZN5boost4json12basic_parserINS0_6detail12into_handlerISt3mapINSt7__cxx1112basic_stringIcSt11char_traitsIcESaIcEEESt6vectorIiSaIiEESt4lessISA_ESaISt4pairIKSA_SD_EEEEEE13maybe_suspendEPKcNSM_5stateEm
FNA:19,30,_ZN5boost4json12basic_parserINS0_6detail12into_handlerISt3mapINSt7__cxx1112basic_stringIcSt11char_traitsIcESaIcEEEiSt4lessISA_ESaISt4pairIKSA_iEEEEEE13maybe_suspendEPKcNSJ_5stateEm
FNA:19,3,_ZN5boost4json12basic_parserINS0_6detail12into_handlerISt4pairIDnmEEEE13maybe_suspendEPKcNS7_5stateEm
FNA:19,24,_ZN5boost4json12basic_parserINS0_6detail12into_handlerISt4pairISt6vectorIiSaIiEESt3mapINSt7__cxx1112basic_stringIcSt11char_traitsIcESaIcEEES4_IibESt4lessISE_ESaIS4_IKSE_SF_EEEEEEE13maybe_suspendEPKcNSO_5stateEm
FNA:19,3,_ZN5boost4json12basic_parserINS0_6detail12into_handlerISt4pairIiiEEEE13maybe_suspendEPKcNS7_5stateEm
FNA:19,12,_ZN5boost4json12basic_parserINS0_6detail12into_handlerISt5arrayIiLm4EEEEE13maybe_suspendEPKcNS7_5stateEm
FNA:19,5,_ZN5boost4json12basic_parserINS0_6detail12into_handlerISt5tupleIJSt6vectorIiSaIiEEEEEEE13maybe_suspendEPKcNSA_5stateEm
FNA:19,15,_ZN5boost4json12basic_parserINS0_6detail12into_handlerISt5tupleIJifNSt7__cxx1112basic_stringIcSt11char_traitsIcESaIcEEEEEEEE13maybe_suspendEPKcNSD_5stateEm
FNA:19,2,_ZN5boost4json12basic_parserINS0_6detail12into_handlerISt5tupleIJiiiEEEEE13maybe_suspendEPKcNS7_5stateEm
FNA:19,4,_ZN5boost4json12basic_parserINS0_6detail12into_handlerISt6vectorIDnSaIDnEEEEE13maybe_suspendEPKcNS8_5stateEm
FNA:19,26,_ZN5boost4json12basic_parserINS0_6detail12into_handlerISt6vectorINS_8variant27variantIJiNSt7__cxx1112basic_stringIcSt11char_traitsIcESaIcEEEEEESaISD_EEEEE13maybe_suspendEPKcNSH_5stateEm
FNA:19,21,_ZN5boost4json12basic_parserINS0_6detail12into_handlerISt6vectorINSt7__cxx1112basic_stringIcSt11char_traitsIcESaIcEEESaISA_EEEEE13maybe_suspendEPKcNSE_5stateEm
FNA:19,31,_ZN5boost4json12basic_parserINS0_6detail12into_handlerISt6vectorIS4_ISt4pairIiiESaIS6_EESaIS8_EEEEE13maybe_suspendEPKcNSC_5stateEm
FNA:19,17,_ZN5boost4json12basic_parserINS0_6detail12into_handlerISt6vectorIS4_IiSaIiEESaIS6_EEEEE13maybe_suspendEPKcNSA_5stateEm
FNA:19,22,_ZN5boost4json12basic_parserINS0_6detail12into_handlerISt6vectorISt3mapINSt7__cxx1112basic_stringIcSt11char_traitsIcESaIcEEEiSt4lessISB_ESaISt4pairIKSB_iEEESaISI_EEEEE13maybe_suspendEPKcNSM_5stateEm
FNA:19,9,_ZN5boost4json12basic_parserINS0_6detail12into_handlerISt6vectorISt4pairIiiESaIS6_EEEEE13maybe_suspendEPKcNSA_5stateEm
FNA:19,18,_ZN5boost4json12basic_parserINS0_6detail12into_handlerISt6vectorISt5arrayIiLm4EESaIS6_EEEEE13maybe_suspendEPKcNSA_5stateEm
FNA:19,5,_ZN5boost4json12basic_parserINS0_6detail12into_handlerISt6vectorIbSaIbEEEEE13maybe_suspendEPKcNS8_5stateEm
FNA:19,1,_ZN5boost4json12basic_parserINS0_6detail12into_handlerISt6vectorIcSaIcEEEEE13maybe_suspendEPKcNS8_5stateEm
FNA:19,4,_ZN5boost4json12basic_parserINS0_6detail12into_handlerISt6vectorIfSaIfEEEEE13maybe_suspendEPKcNS8_5stateEm
FNA:19,4,_ZN5boost4json12basic_parserINS0_6detail12into_handlerISt6vectorIiSaIiEEEEE13maybe_suspendEPKcNS8_5stateEm
FNA:19,3,_ZN5boost4json12basic_parserINS0_6detail12into_handlerISt6vectorImSaImEEEEE13maybe_suspendEPKcNS8_5stateEm
FNA:19,0,_ZN5boost4json12basic_parserINS0_6detail12into_handlerIaEEE13maybe_suspendEPKcNS5_5stateEm
FNA:19,0,_ZN5boost4json12basic_parserINS0_6detail12into_handlerIbEEE13maybe_suspendEPKcNS5_5stateEm
FNA:19,0,_ZN5boost4json12basic_parserINS0_6detail12into_handlerIcEEE13maybe_suspendEPKcNS5_5stateEm
FNA:19,0,_ZN5boost4json12basic_parserINS0_6detail12into_handlerIdEEE13maybe_suspendEPKcNS5_5stateEm
FNA:19,0,_ZN5boost4json12basic_parserINS0_6detail12into_handlerIfEEE13maybe_suspendEPKcNS5_5stateEm
FNA:19,0,_ZN5boost4json12basic_parserINS0_6detail12into_handlerIhEEE13maybe_suspendEPKcNS5_5stateEm
FNA:19,1,_ZN5boost4json12basic_parserINS0_6detail12into_handlerIiEEE13maybe_suspendEPKcNS5_5stateEm
FNA:19,0,_ZN5boost4json12basic_parserINS0_6detail12into_handlerIjEEE13maybe_suspendEPKcNS5_5stateEm
FNA:19,0,_ZN5boost4json12basic_parserINS0_6detail12into_handlerIlEEE13maybe_suspendEPKcNS5_5stateEm
FNA:19,0,_ZN5boost4json12basic_parserINS0_6detail12into_handlerImEEE13maybe_suspendEPKcNS5_5stateEm
FNA:19,0,_ZN5boost4json12basic_parserINS0_6detail12into_handlerIsEEE13maybe_suspendEPKcNS5_5stateEm
FNA:19,0,_ZN5boost4json12basic_parserINS0_6detail12into_handlerItEEE13maybe_suspendEPKcNS5_5stateEm
FNA:19,0,_ZN5boost4json12basic_parserINS0_6detail12into_handlerIxEEE13maybe_suspendEPKcNS5_5stateEm
FNA:19,0,_ZN5boost4json12basic_parserINS0_6detail12into_handlerIyEEE13maybe_suspendEPKcNS5_5stateEm
FNA:19,17128,_ZN5boost4json12basic_parserINS0_6detail7handlerEE13maybe_suspendEPKcNS4_5stateEm
FNL:20,368,384
FNA:20,294,_ZN5boost4json12basic_parserINS0_11fail_parser7handlerEE13maybe_suspendEPKcNS4_5stateERKNS4_6numberE
FNA:20,0,_ZN5boost4json12basic_parserINS0_11null_parser7handlerEE13maybe_suspendEPKcNS4_5stateERKNS4_6numberE
FNA:20,294,_ZN5boost4json12basic_parserINS0_12throw_parser7handlerEE13maybe_suspendEPKcNS4_5stateERKNS4_6numberE
FNA:20,0,_ZN5boost4json12basic_parserINS0_17basic_parser_test11utf8_parser7handlerEE13maybe_suspendEPKcNS5_5stateERKNS5_6numberE
FNA:20,0,_ZN5boost4json12basic_parserINS0_17basic_parser_test14comment_parser7handlerEE13maybe_suspendEPKcNS5_5stateERKNS5_6numberE
FNA:20,10,_ZN5boost4json12basic_parserINS0_17basic_parser_test14literal_parser7handlerEE13maybe_suspendEPKcNS5_5stateERKNS5_6numberE
FNA:20,0,_ZN5boost4json12basic_parserINS0_17basic_parser_test15std_null_parser7handlerEE13maybe_suspendEPKcNS5_5stateERKNS5_6numberE
FNA:20,0,_ZN5boost4json12basic_parserINS0_6detail12into_handlerIDnEEE13maybe_suspendEPKcNS5_5stateERKNS5_6numberE
FNA:20,0,_ZN5boost4json12basic_parserINS0_6detail12into_handlerINS0_6stringEEEE13maybe_suspendEPKcNS6_5stateERKNS6_6numberE
FNA:20,0,_ZN5boost4json12basic_parserINS0_6detail12into_handlerINS_8variant27variantIJNS4_9monostateEEEEEEE13maybe_suspendEPKcNS9_5stateERKNS9_6numberE
FNA:20,0,_ZN5boost4json12basic_parserINS0_6detail12into_handlerINS_8variant27variantIJNS4_9monostateESt6vectorIiSaIiEEEEEEEE13maybe_suspendEPKcNSC_5stateERKNSC_6numberE
FNA:20,0,_ZN5boost4json12basic_parserINS0_6detail12into_handlerINS_8variant27variantIJNS4_9monostateEiNSt7__cxx1112basic_stringIcSt11char_traitsIcESaIcEEEEEEEEE13maybe_suspendEPKcNSF_5stateERKNSF_6numberE
FNA:20,0,_ZN5boost4json12basic_parserINS0_6detail12into_handlerINS_8variant27variantIJNS4_9monostateEibEEEEEE13maybe_suspendEPKcNS9_5stateERKNS9_6numberE
FNA:20,0,_ZN5boost4json12basic_parserINS0_6detail12into_handlerINS_8variant27variantIJSt6vectorIiSaIiEEEEEEEE13maybe_suspendEPKcNSB_5stateERKNSB_6numberE
FNA:20,2,_ZN5boost4json12basic_parserINS0_6detail12into_handlerINS_8variant27variantIJSt6vectorIiSaIiEESt5tupleIJiNSt7__cxx1112basic_stringIcSt11char_traitsIcESaIcEEESt3mapISF_iSt4lessISF_ESaISt4pairIKSF_iEEEEES9_IJiSF_SG_ISF_dSI_SaISJ_ISK_dEEEEEEEEEEE13maybe_suspendEPKcNSV_5stateERKNSV_6numberE
FNA:20,0,_ZN5boost4json12basic_parserINS0_6detail12into_handlerINS_8variant27variantIJbmEEEEEE13maybe_suspendEPKcNS8_5stateERKNS8_6numberE
FNA:20,0,_ZN5boost4json12basic_parserINS0_6detail12into_handlerINS_8variant27variantIJiEEEEEE13maybe_suspendEPKcNS8_5stateERKNS8_6numberE
FNA:20,0,_ZN5boost4json12basic_parserINS0_6detail12into_handlerINS_8variant27variantIJiNSt7__cxx1112basic_stringIcSt11char_traitsIcESaIcEEEEEEEEE13maybe_suspendEPKcNSE_5stateERKNSE_6numberE
FNA:20,0,_ZN5boost4json12basic_parserINS0_6detail12into_handlerINSt7__cxx1112basic_stringIcSt11char_traitsIcESaIcEEEEEE13maybe_suspendEPKcNSB_5stateERKNSB_6numberE
FNA:20,0,_ZN5boost4json12basic_parserINS0_6detail12into_handlerISt3mapINSt7__cxx1112basic_stringIcSt11char_traitsIcESaIcEEES4_ISA_iSt4lessISA_ESaISt4pairIKSA_iEEESC_SaISD_ISE_SH_EEEEEE13maybe_suspendEPKcNSM_5stateERKNSM_6numberE
FNA:20,0,_ZN5boost4json12basic_parserINS0_6detail12into_handlerISt3mapINSt7__cxx1112basic_stringIcSt11char_traitsIcESaIcEEESt5tupleIJiiEESt4lessISA_ESaISt4pairIKSA_SC_EEEEEE13maybe_suspendEPKcNSL_5stateERKNSL_6numberE
FNA:20,0,_ZN5boost4json12basic_parserINS0_6detail12into_handlerISt3mapINSt7__cxx1112basic_stringIcSt11char_traitsIcESaIcEEESt6vectorISt4pairIiiESaISD_EESt4lessISA_ESaISC_IKSA_SF_EEEEEE13maybe_suspendEPKcNSN_5stateERKNSN_6numberE
FNA:20,0,_ZN5boost4json12basic_parserINS0_6detail12into_handlerISt3mapINSt7__cxx1112basic_stringIcSt11char_traitsIcESaIcEEESt6vectorIiSaIiEESt4lessISA_ESaISt4pairIKSA_SD_EEEEEE13maybe_suspendEPKcNSM_5stateERKNSM_6numberE
FNA:20,0,_ZN5boost4json12basic_parserINS0_6detail12into_handlerISt3mapINSt7__cxx1112basic_stringIcSt11char_traitsIcESaIcEEEiSt4lessISA_ESaISt4pairIKSA_iEEEEEE13maybe_suspendEPKcNSJ_5stateERKNSJ_6numberE
FNA:20,0,_ZN5boost4json12basic_parserINS0_6detail12into_handlerISt4pairIDnmEEEE13maybe_suspendEPKcNS7_5stateERKNS7_6numberE
FNA:20,0,_ZN5boost4json12basic_parserINS0_6detail12into_handlerISt4pairISt6vectorIiSaIiEESt3mapINSt7__cxx1112basic_stringIcSt11char_traitsIcESaIcEEES4_IibESt4lessISE_ESaIS4_IKSE_SF_EEEEEEE13maybe_suspendEPKcNSO_5stateERKNSO_6numberE
FNA:20,0,_ZN5boost4json12basic_parserINS0_6detail12into_handlerISt4pairIiiEEEE13maybe_suspendEPKcNS7_5stateERKNS7_6numberE
FNA:20,0,_ZN5boost4json12basic_parserINS0_6detail12into_handlerISt5arrayIiLm4EEEEE13maybe_suspendEPKcNS7_5stateERKNS7_6numberE
FNA:20,0,_ZN5boost4json12basic_parserINS0_6detail12into_handlerISt5tupleIJSt6vectorIiSaIiEEEEEEE13maybe_suspendEPKcNSA_5stateERKNSA_6numberE
FNA:20,2,_ZN5boost4json12basic_parserINS0_6detail12into_handlerISt5tupleIJifNSt7__cxx1112basic_stringIcSt11char_traitsIcESaIcEEEEEEEE13maybe_suspendEPKcNSD_5stateERKNSD_6numberE
FNA:20,0,_ZN5boost4json12basic_parserINS0_6detail12into_handlerISt5tupleIJiiiEEEEE13maybe_suspendEPKcNS7_5stateERKNS7_6numberE
FNA:20,0,_ZN5boost4json12basic_parserINS0_6detail12into_handlerISt6vectorIDnSaIDnEEEEE13maybe_suspendEPKcNS8_5stateERKNS8_6numberE
FNA:20,0,_ZN5boost4json12basic_parserINS0_6detail12into_handlerISt6vectorINS_8variant27variantIJiNSt7__cxx1112basic_stringIcSt11char_traitsIcESaIcEEEEEESaISD_EEEEE13maybe_suspendEPKcNSH_5stateERKNSH_6numberE
FNA:20,0,_ZN5boost4json12basic_parserINS0_6detail12into_handlerISt6vectorINSt7__cxx1112basic_stringIcSt11char_traitsIcESaIcEEESaISA_EEEEE13maybe_suspendEPKcNSE_5stateERKNSE_6numberE
FNA:20,0,_ZN5boost4json12basic_parserINS0_6detail12into_handlerISt6vectorIS4_ISt4pairIiiESaIS6_EESaIS8_EEEEE13maybe_suspendEPKcNSC_5stateERKNSC_6numberE
FNA:20,0,_ZN5boost4json12basic_parserINS0_6detail12into_handlerISt6vectorIS4_IiSaIiEESaIS6_EEEEE13maybe_suspendEPKcNSA_5stateERKNSA_6numberE
FNA:20,0,_ZN5boost4json12basic_parserINS0_6detail12into_handlerISt6vectorISt3mapINSt7__cxx1112basic_stringIcSt11char_traitsIcESaIcEEEiSt4lessISB_ESaISt4pairIKSB_iEEESaISI_EEEEE13maybe_suspendEPKcNSM_5stateERKNSM_6numberE
FNA:20,0,_ZN5boost4json12basic_parserINS0_6detail12into_handlerISt6vectorISt4pairIiiESaIS6_EEEEE13maybe_suspendEPKcNSA_5stateERKNSA_6numberE
FNA:20,0,_ZN5boost4json12basic_parserINS0_6detail12into_handlerISt6vectorISt5arrayIiLm4EESaIS6_EEEEE13maybe_suspendEPKcNSA_5stateERKNSA_6numberE
FNA:20,0,_ZN5boost4json12basic_parserINS0_6detail12into_handlerISt6vectorIbSaIbEEEEE13maybe_suspendEPKcNS8_5stateERKNS8_6numberE
FNA:20,0,_ZN5boost4json12basic_parserINS0_6detail12into_handlerISt6vectorIcSaIcEEEEE13maybe_suspendEPKcNS8_5stateERKNS8_6numberE
FNA:20,3,_ZN5boost4json12basic_parserINS0_6detail12into_handlerISt6vectorIfSaIfEEEEE13maybe_suspendEPKcNS8_5stateERKNS8_6numberE
FNA:20,0,_ZN5boost4json12basic_parserINS0_6detail12into_handlerISt6vectorIiSaIiEEEEE13maybe_suspendEPKcNS8_5stateERKNS8_6numberE
FNA:20,0,_ZN5boost4json12basic_parserINS0_6detail12into_handlerISt6vectorImSaImEEEEE13maybe_suspendEPKcNS8_5stateERKNS8_6numberE
FNA:20,1,_ZN5boost4json12basic_parserINS0_6detail12into_handlerIaEEE13maybe_suspendEPKcNS5_5stateERKNS5_6numberE
FNA:20,0,_ZN5boost4json12basic_parserINS0_6detail12into_handlerIbEEE13maybe_suspendEPKcNS5_5stateERKNS5_6numberE
FNA:20,0,_ZN5boost4json12basic_parserINS0_6detail12into_handlerIcEEE13maybe_suspendEPKcNS5_5stateERKNS5_6numberE
FNA:20,1,_ZN5boost4json12basic_parserINS0_6detail12into_handlerIdEEE13maybe_suspendEPKcNS5_5stateERKNS5_6numberE
FNA:20,1,_ZN5boost4json12basic_parserINS0_6detail12into_handlerIfEEE13maybe_suspendEPKcNS5_5stateERKNS5_6numberE
FNA:20,0,_ZN5boost4json12basic_parserINS0_6detail12into_handlerIhEEE13maybe_suspendEPKcNS5_5stateERKNS5_6numberE
FNA:20,2,_ZN5boost4json12basic_parserINS0_6detail12into_handlerIiEEE13maybe_suspendEPKcNS5_5stateERKNS5_6numberE
FNA:20,0,_ZN5boost4json12basic_parserINS0_6detail12into_handlerIjEEE13maybe_suspendEPKcNS5_5stateERKNS5_6numberE
FNA:20,1,_ZN5boost4json12basic_parserINS0_6detail12into_handlerIlEEE13maybe_suspendEPKcNS5_5stateERKNS5_6numberE
FNA:20,0,_ZN5boost4json12basic_parserINS0_6detail12into_handlerImEEE13maybe_suspendEPKcNS5_5stateERKNS5_6numberE
FNA:20,1,_ZN5boost4json12basic_parserINS0_6detail12into_handlerIsEEE13maybe_suspendEPKcNS5_5stateERKNS5_6numberE
FNA:20,0,_ZN5boost4json12basic_parserINS0_6detail12into_handlerItEEE13maybe_suspendEPKcNS5_5stateERKNS5_6numberE
FNA:20,1,_ZN5boost4json12basic_parserINS0_6detail12into_handlerIxEEE13maybe_suspendEPKcNS5_5stateERKNS5_6numberE
FNA:20,0,_ZN5boost4json12basic_parserINS0_6detail12into_handlerIyEEE13maybe_suspendEPKcNS5_5stateERKNS5_6numberE
FNA:20,510,_ZN5boost4json12basic_parserINS0_6detail7handlerEE13maybe_suspendEPKcNS4_5stateERKNS4_6numberE
FNL:21,388,399
FNA:21,3334,_ZN5boost4json12basic_parserINS0_11fail_parser7handlerEE7suspendEPKcNS4_5stateE
FNA:21,0,_ZN5boost4json12basic_parserINS0_11null_parser7handlerEE7suspendEPKcNS4_5stateE
FNA:21,3319,_ZN5boost4json12basic_parserINS0_12throw_parser7handlerEE7suspendEPKcNS4_5stateE
FNA:21,0,_ZN5boost4json12basic_parserINS0_17basic_parser_test11utf8_parser7handlerEE7suspendEPKcNS5_5stateE
FNA:21,0,_ZN5boost4json12basic_parserINS0_17basic_parser_test14comment_parser7handlerEE7suspendEPKcNS5_5stateE
FNA:21,0,_ZN5boost4json12basic_parserINS0_17basic_parser_test14literal_parser7handlerEE7suspendEPKcNS5_5stateE
FNA:21,0,_ZN5boost4json12basic_parserINS0_17basic_parser_test15std_null_parser7handlerEE7suspendEPKcNS5_5stateE
FNA:21,4,_ZN5boost4json12basic_parserINS0_6detail12into_handlerIDnEEE7suspendEPKcNS5_5stateE
FNA:21,0,_ZN5boost4json12basic_parserINS0_6detail12into_handlerINS0_6stringEEEE7suspendEPKcNS6_5stateE
FNA:21,0,_ZN5boost4json12basic_parserINS0_6detail12into_handlerINS_8variant27variantIJNS4_9monostateEEEEEEE7suspendEPKcNS9_5stateE
FNA:21,4,_ZN5boost4json12basic_parserINS0_6detail12into_handlerINS_8variant27variantIJNS4_9monostateESt6vectorIiSaIiEEEEEEEE7suspendEPKcNSC_5stateE
FNA:21,8,_ZN5boost4json12basic_parserINS0_6detail12into_handlerINS_8variant27variantIJNS4_9monostateEiNSt7__cxx1112basic_stringIcSt11char_traitsIcESaIcEEEEEEEEE7suspendEPKcNSF_5stateE
FNA:21,0,_ZN5boost4json12basic_parserINS0_6detail12into_handlerINS_8variant27variantIJNS4_9monostateEibEEEEEE7suspendEPKcNS9_5stateE
FNA:21,4,_ZN5boost4json12basic_parserINS0_6detail12into_handlerINS_8variant27variantIJSt6vectorIiSaIiEEEEEEEE7suspendEPKcNSB_5stateE
FNA:21,4,_ZN5boost4json12basic_parserINS0_6detail12into_handlerINS_8variant27variantIJSt6vectorIiSaIiEESt5tupleIJiNSt7__cxx1112basic_stringIcSt11char_traitsIcESaIcEEESt3mapISF_iSt4lessISF_ESaISt4pairIKSF_iEEEEES9_IJiSF_SG_ISF_dSI_SaISJ_ISK_dEEEEEEEEEEE7suspendEPKcNSV_5stateE
FNA:21,4,_ZN5boost4json12basic_parserINS0_6detail12into_handlerINS_8variant27variantIJbmEEEEEE7suspendEPKcNS8_5stateE
FNA:21,0,_ZN5boost4json12basic_parserINS0_6detail12into_handlerINS_8variant27variantIJiEEEEEE7suspendEPKcNS8_5stateE
FNA:21,4,_ZN5boost4json12basic_parserINS0_6detail12into_handlerINS_8variant27variantIJiNSt7__cxx1112basic_stringIcSt11char_traitsIcESaIcEEEEEEEEE7suspendEPKcNSE_5stateE
FNA:21,8,_ZN5boost4json12basic_parserINS0_6detail12into_handlerINSt7__cxx1112basic_stringIcSt11char_traitsIcESaIcEEEEEE7suspendEPKcNSB_5stateE
FNA:21,8,_ZN5boost4json12basic_parserINS0_6detail12into_handlerISt3mapINSt7__cxx1112basic_stringIcSt11char_traitsIcESaIcEEES4_ISA_iSt4lessISA_ESaISt4pairIKSA_iEEESC_SaISD_ISE_SH_EEEEEE7suspendEPKcNSM_5stateE
FNA:21,0,_ZN5boost4json12basic_parserINS0_6detail12into_handlerISt3mapINSt7__cxx1112basic_stringIcSt11char_traitsIcESaIcEEESt5tupleIJiiEESt4lessISA_ESaISt4pairIKSA_SC_EEEEEE7suspendEPKcNSL_5stateE
FNA:21,12,_ZN5boost4json12basic_parserINS0_6detail12into_handlerISt3mapINSt7__cxx1112basic_stringIcSt11char_traitsIcESaIcEEESt6vectorISt4pairIiiESaISD_EESt4lessISA_ESaISC_IKSA_SF_EEEEEE7suspendEPKcNSN_5stateE
FNA:21,8,_ZN5boost4json12basic_parserINS0_6detail12into_handlerISt3mapINSt7__cxx1112basic_stringIcSt11char_traitsIcESaIcEEESt6vectorIiSaIiEESt4lessISA_ESaISt4pairIKSA_SD_EEEEEE7suspendEPKcNSM_5stateE
FNA:21,16,_ZN5boost4json12basic_parserINS0_6detail12into_handlerISt3mapINSt7__cxx1112basic_stringIcSt11char_traitsIcESaIcEEEiSt4lessISA_ESaISt4pairIKSA_iEEEEEE7suspendEPKcNSJ_5stateE
FNA:21,4,_ZN5boost4json12basic_parserINS0_6detail12into_handlerISt4pairIDnmEEEE7suspendEPKcNS7_5stateE
FNA:21,8,_ZN5boost4json12basic_parserINS0_6detail12into_handlerISt4pairISt6vectorIiSaIiEESt3mapINSt7__cxx1112basic_stringIcSt11char_traitsIcESaIcEEES4_IibESt4lessISE_ESaIS4_IKSE_SF_EEEEEEE7suspendEPKcNSO_5stateE
FNA:21,0,_ZN5boost4json12basic_parserINS0_6detail12into_handlerISt4pairIiiEEEE7suspendEPKcNS7_5stateE
FNA:21,4,_ZN5boost4json12basic_parserINS0_6detail12into_handlerISt5arrayIiLm4EEEEE7suspendEPKcNS7_5stateE
FNA:21,0,_ZN5boost4json12basic_parserINS0_6detail12into_handlerISt5tupleIJSt6vectorIiSaIiEEEEEEE7suspendEPKcNSA_5stateE
FNA:21,8,_ZN5boost4json12basic_parserINS0_6detail12into_handlerISt5tupleIJifNSt7__cxx1112basic_stringIcSt11char_traitsIcESaIcEEEEEEEE7suspendEPKcNSD_5stateE
FNA:21,0,_ZN5boost4json12basic_parserINS0_6detail12into_handlerISt5tupleIJiiiEEEEE7suspendEPKcNS7_5stateE
FNA:21,4,_ZN5boost4json12basic_parserINS0_6detail12into_handlerISt6vectorIDnSaIDnEEEEE7suspendEPKcNS8_5stateE
FNA:21,4,_ZN5boost4json12basic_parserINS0_6detail12into_handlerISt6vectorINS_8variant27variantIJiNSt7__cxx1112basic_stringIcSt11char_traitsIcESaIcEEEEEESaISD_EEEEE7suspendEPKcNSH_5stateE
FNA:21,8,_ZN5boost4json12basic_parserINS0_6detail12into_handlerISt6vectorINSt7__cxx1112basic_stringIcSt11char_traitsIcESaIcEEESaISA_EEEEE7suspendEPKcNSE_5stateE
FNA:21,12,_ZN5boost4json12basic_parserINS0_6detail12into_handlerISt6vectorIS4_ISt4pairIiiESaIS6_EESaIS8_EEEEE7suspendEPKcNSC_5stateE
FNA:21,8,_ZN5boost4json12basic_parserINS0_6detail12into_handlerISt6vectorIS4_IiSaIiEESaIS6_EEEEE7suspendEPKcNSA_5stateE
FNA:21,4,_ZN5boost4json12basic_parserINS0_6detail12into_handlerISt6vectorISt3mapINSt7__cxx1112basic_stringIcSt11char_traitsIcESaIcEEEiSt4lessISB_ESaISt4pairIKSB_iEEESaISI_EEEEE7suspendEPKcNSM_5stateE
FNA:21,8,_ZN5boost4json12basic_parserINS0_6detail12into_handlerISt6vectorISt4pairIiiESaIS6_EEEEE7suspendEPKcNSA_5stateE
FNA:21,4,_ZN5boost4json12basic_parserINS0_6detail12into_handlerISt6vectorISt5arrayIiLm4EESaIS6_EEEEE7suspendEPKcNSA_5stateE
FNA:21,8,_ZN5boost4json12basic_parserINS0_6detail12into_handlerISt6vectorIbSaIbEEEEE7suspendEPKcNS8_5stateE
FNA:21,0,_ZN5boost4json12basic_parserINS0_6detail12into_handlerISt6vectorIcSaIcEEEEE7suspendEPKcNS8_5stateE
FNA:21,8,_ZN5boost4json12basic_parserINS0_6detail12into_handlerISt6vectorIfSaIfEEEEE7suspendEPKcNS8_5stateE
FNA:21,8,_ZN5boost4json12basic_parserINS0_6detail12into_handlerISt6vectorIiSaIiEEEEE7suspendEPKcNS8_5stateE
FNA:21,4,_ZN5boost4json12basic_parserINS0_6detail12into_handlerISt6vectorImSaImEEEEE7suspendEPKcNS8_5stateE
FNA:21,0,_ZN5boost4json12basic_parserINS0_6detail12into_handlerIaEEE7suspendEPKcNS5_5stateE
FNA:21,8,_ZN5boost4json12basic_parserINS0_6detail12into_handlerIbEEE7suspendEPKcNS5_5stateE
FNA:21,0,_ZN5boost4json12basic_parserINS0_6detail12into_handlerIcEEE7suspendEPKcNS5_5stateE
FNA:21,0,_ZN5boost4json12basic_parserINS0_6detail12into_handlerIdEEE7suspendEPKcNS5_5stateE
FNA:21,0,_ZN5boost4json12basic_parserINS0_6detail12into_handlerIfEEE7suspendEPKcNS5_5stateE
FNA:21,0,_ZN5boost4json12basic_parserINS0_6detail12into_handlerIhEEE7suspendEPKcNS5_5stateE
FNA:21,0,_ZN5boost4json12basic_parserINS0_6detail12into_handlerIiEEE7suspendEPKcNS5_5stateE
FNA:21,0,_ZN5boost4json12basic_parserINS0_6detail12into_handlerIjEEE7suspendEPKcNS5_5stateE
FNA:21,0,_ZN5boost4json12basic_parserINS0_6detail12into_handlerIlEEE7suspendEPKcNS5_5stateE
FNA:21,0,_ZN5boost4json12basic_parserINS0_6detail12into_handlerImEEE7suspendEPKcNS5_5stateE
FNA:21,0,_ZN5boost4json12basic_parserINS0_6detail12into_handlerIsEEE7suspendEPKcNS5_5stateE
FNA:21,0,_ZN5boost4json12basic_parserINS0_6detail12into_handlerItEEE7suspendEPKcNS5_5stateE
FNA:21,0,_ZN5boost4json12basic_parserINS0_6detail12into_handlerIxEEE7suspendEPKcNS5_5stateE
FNA:21,0,_ZN5boost4json12basic_parserINS0_6detail12into_handlerIyEEE7suspendEPKcNS5_5stateE
FNA:21,81807,_ZN5boost4json12basic_parserINS0_6detail7handlerEE7suspendEPKcNS4_5stateE
FNL:22,403,416
FNA:22,2514,_ZN5boost4json12basic_parserINS0_11fail_parser7handlerEE7suspendEPKcNS4_5stateERKNS4_6numberE
FNA:22,0,_ZN5boost4json12basic_parserINS0_11null_parser7handlerEE7suspendEPKcNS4_5stateERKNS4_6numberE
FNA:22,2511,_ZN5boost4json12basic_parserINS0_12throw_parser7handlerEE7suspendEPKcNS4_5stateERKNS4_6numberE
FNA:22,0,_ZN5boost4json12basic_parserINS0_17basic_parser_test11utf8_parser7handlerEE7suspendEPKcNS5_5stateERKNS5_6numberE
FNA:22,0,_ZN5boost4json12basic_parserINS0_17basic_parser_test14comment_parser7handlerEE7suspendEPKcNS5_5stateERKNS5_6numberE
FNA:22,162,_ZN5boost4json12basic_parserINS0_17basic_parser_test14literal_parser7handlerEE7suspendEPKcNS5_5stateERKNS5_6numberE
FNA:22,0,_ZN5boost4json12basic_parserINS0_17basic_parser_test15std_null_parser7handlerEE7suspendEPKcNS5_5stateERKNS5_6numberE
FNA:22,0,_ZN5boost4json12basic_parserINS0_6detail12into_handlerIDnEEE7suspendEPKcNS5_5stateERKNS5_6numberE
FNA:22,0,_ZN5boost4json12basic_parserINS0_6detail12into_handlerINS0_6stringEEEE7suspendEPKcNS6_5stateERKNS6_6numberE
FNA:22,0,_ZN5boost4json12basic_parserINS0_6detail12into_handlerINS_8variant27variantIJNS4_9monostateEEEEEEE7suspendEPKcNS9_5stateERKNS9_6numberE
FNA:22,5,_ZN5boost4json12basic_parserINS0_6detail12into_handlerINS_8variant27variantIJNS4_9monostateESt6vectorIiSaIiEEEEEEEE7suspendEPKcNSC_5stateERKNSC_6numberE
FNA:22,4,_ZN5boost4json12basic_parserINS0_6detail12into_handlerINS_8variant27variantIJNS4_9monostateEiNSt7__cxx1112basic_stringIcSt11char_traitsIcESaIcEEEEEEEEE7suspendEPKcNSF_5stateERKNSF_6numberE
FNA:22,0,_ZN5boost4json12basic_parserINS0_6detail12into_handlerINS_8variant27variantIJNS4_9monostateEibEEEEEE7suspendEPKcNS9_5stateERKNS9_6numberE
FNA:22,5,_ZN5boost4json12basic_parserINS0_6detail12into_handlerINS_8variant27variantIJSt6vectorIiSaIiEEEEEEEE7suspendEPKcNSB_5stateERKNSB_6numberE
FNA:22,8,_ZN5boost4json12basic_parserINS0_6detail12into_handlerINS_8variant27variantIJSt6vectorIiSaIiEESt5tupleIJiNSt7__cxx1112basic_stringIcSt11char_traitsIcESaIcEEESt3mapISF_iSt4lessISF_ESaISt4pairIKSF_iEEEEES9_IJiSF_SG_ISF_dSI_SaISJ_ISK_dEEEEEEEEEEE7suspendEPKcNSV_5stateERKNSV_6numberE
FNA:22,23,_ZN5boost4json12basic_parserINS0_6detail12into_handlerINS_8variant27variantIJbmEEEEEE7suspendEPKcNS8_5stateERKNS8_6numberE
FNA:22,4,_ZN5boost4json12basic_parserINS0_6detail12into_handlerINS_8variant27variantIJiEEEEEE7suspendEPKcNS8_5stateERKNS8_6numberE
FNA:22,4,_ZN5boost4json12basic_parserINS0_6detail12into_handlerINS_8variant27variantIJiNSt7__cxx1112basic_stringIcSt11char_traitsIcESaIcEEEEEEEEE7suspendEPKcNSE_5stateERKNSE_6numberE
FNA:22,0,_ZN5boost4json12basic_parserINS0_6detail12into_handlerINSt7__cxx1112basic_stringIcSt11char_traitsIcESaIcEEEEEE7suspendEPKcNSB_5stateERKNSB_6numberE
FNA:22,2,_ZN5boost4json12basic_parserINS0_6detail12into_handlerISt3mapINSt7__cxx1112basic_stringIcSt11char_traitsIcESaIcEEES4_ISA_iSt4lessISA_ESaISt4pairIKSA_iEEESC_SaISD_ISE_SH_EEEEEE7suspendEPKcNSM_5stateERKNSM_6numberE
FNA:22,0,_ZN5boost4json12basic_parserINS0_6detail12into_handlerISt3mapINSt7__cxx1112basic_stringIcSt11char_traitsIcESaIcEEESt5tupleIJiiEESt4lessISA_ESaISt4pairIKSA_SC_EEEEEE7suspendEPKcNSL_5stateERKNSL_6numberE
FNA:22,4,_ZN5boost4json12basic_parserINS0_6detail12into_handlerISt3mapINSt7__cxx1112basic_stringIcSt11char_traitsIcESaIcEEESt6vectorISt4pairIiiESaISD_EESt4lessISA_ESaISC_IKSA_SF_EEEEEE7suspendEPKcNSN_5stateERKNSN_6numberE
FNA:22,3,_ZN5boost4json12basic_parserINS0_6detail12into_handlerISt3mapINSt7__cxx1112basic_stringIcSt11char_traitsIcESaIcEEESt6vectorIiSaIiEESt4lessISA_ESaISt4pairIKSA_SD_EEEEEE7suspendEPKcNSM_5stateERKNSM_6numberE
FNA:22,4,_ZN5boost4json12basic_parserINS0_6detail12into_handlerISt3mapINSt7__cxx1112basic_stringIcSt11char_traitsIcESaIcEEEiSt4lessISA_ESaISt4pairIKSA_iEEEEEE7suspendEPKcNSJ_5stateERKNSJ_6numberE
FNA:22,20,_ZN5boost4json12basic_parserINS0_6detail12into_handlerISt4pairIDnmEEEE7suspendEPKcNS7_5stateERKNS7_6numberE
FNA:22,4,_ZN5boost4json12basic_parserINS0_6detail12into_handlerISt4pairISt6vectorIiSaIiEESt3mapINSt7__cxx1112basic_stringIcSt11char_traitsIcESaIcEEES4_IibESt4lessISE_ESaIS4_IKSE_SF_EEEEEEE7suspendEPKcNSO_5stateERKNSO_6numberE
FNA:22,2,_ZN5boost4json12basic_parserINS0_6detail12into_handlerISt4pairIiiEEEE7suspendEPKcNS7_5stateERKNS7_6numberE
FNA:22,16,_ZN5boost4json12basic_parserINS0_6detail12into_handlerISt5arrayIiLm4EEEEE7suspendEPKcNS7_5stateERKNS7_6numberE
FNA:22,2,_ZN5boost4json12basic_parserINS0_6detail12into_handlerISt5tupleIJSt6vectorIiSaIiEEEEEEE7suspendEPKcNSA_5stateERKNSA_6numberE
FNA:22,22,_ZN5boost4json12basic_parserINS0_6detail12into_handlerISt5tupleIJifNSt7__cxx1112basic_stringIcSt11char_traitsIcESaIcEEEEEEEE7suspendEPKcNSD_5stateERKNSD_6numberE
FNA:22,2,_ZN5boost4json12basic_parserINS0_6detail12into_handlerISt5tupleIJiiiEEEEE7suspendEPKcNS7_5stateERKNS7_6numberE
FNA:22,0,_ZN5boost4json12basic_parserINS0_6detail12into_handlerISt6vectorIDnSaIDnEEEEE7suspendEPKcNS8_5stateERKNS8_6numberE
FNA:22,5,_ZN5boost4json12basic_parserINS0_6detail12into_handlerISt6vectorINS_8variant27variantIJiNSt7__cxx1112basic_stringIcSt11char_traitsIcESaIcEEEEEESaISD_EEEEE7suspendEPKcNSH_5stateERKNSH_6numberE
FNA:22,0,_ZN5boost4json12basic_parserINS0_6detail12into_handlerISt6vectorINSt7__cxx1112basic_stringIcSt11char_traitsIcESaIcEEESaISA_EEEEE7suspendEPKcNSE_5stateERKNSE_6numberE
FNA:22,12,_ZN5boost4json12basic_parserINS0_6detail12into_handlerISt6vectorIS4_ISt4pairIiiESaIS6_EESaIS8_EEEEE7suspendEPKcNSC_5stateERKNSC_6numberE
FNA:22,6,_ZN5boost4json12basic_parserINS0_6detail12into_handlerISt6vectorIS4_IiSaIiEESaIS6_EEEEE7suspendEPKcNSA_5stateERKNSA_6numberE
FNA:22,3,_ZN5boost4json12basic_parserINS0_6detail12into_handlerISt6vectorISt3mapINSt7__cxx1112basic_stringIcSt11char_traitsIcESaIcEEEiSt4lessISB_ESaISt4pairIKSB_iEEESaISI_EEEEE7suspendEPKcNSM_5stateERKNSM_6numberE
FNA:22,4,_ZN5boost4json12basic_parserINS0_6detail12into_handlerISt6vectorISt4pairIiiESaIS6_EEEEE7suspendEPKcNSA_5stateERKNSA_6numberE
FNA:22,24,_ZN5boost4json12basic_parserINS0_6detail12into_handlerISt6vectorISt5arrayIiLm4EESaIS6_EEEEE7suspendEPKcNSA_5stateERKNSA_6numberE
FNA:22,0,_ZN5boost4json12basic_parserINS0_6detail12into_handlerISt6vectorIbSaIbEEEEE7suspendEPKcNS8_5stateERKNS8_6numberE
FNA:22,0,_ZN5boost4json12basic_parserINS0_6detail12into_handlerISt6vectorIcSaIcEEEEE7suspendEPKcNS8_5stateERKNS8_6numberE
FNA:22,55,_ZN5boost4json12basic_parserINS0_6detail12into_handlerISt6vectorIfSaIfEEEEE7suspendEPKcNS8_5stateERKNS8_6numberE
FNA:22,3,_ZN5boost4json12basic_parserINS0_6detail12into_handlerISt6vectorIiSaIiEEEEE7suspendEPKcNS8_5stateERKNS8_6numberE
FNA:22,22,_ZN5boost4json12basic_parserINS0_6detail12into_handlerISt6vectorImSaImEEEEE7suspendEPKcNS8_5stateERKNS8_6numberE
FNA:22,6,_ZN5boost4json12basic_parserINS0_6detail12into_handlerIaEEE7suspendEPKcNS5_5stateERKNS5_6numberE
FNA:22,0,_ZN5boost4json12basic_parserINS0_6detail12into_handlerIbEEE7suspendEPKcNS5_5stateERKNS5_6numberE
FNA:22,5,_ZN5boost4json12basic_parserINS0_6detail12into_handlerIcEEE7suspendEPKcNS5_5stateERKNS5_6numberE
FNA:22,9,_ZN5boost4json12basic_parserINS0_6detail12into_handlerIdEEE7suspendEPKcNS5_5stateERKNS5_6numberE
FNA:22,8,_ZN5boost4json12basic_parserINS0_6detail12into_handlerIfEEE7suspendEPKcNS5_5stateERKNS5_6numberE
FNA:22,6,_ZN5boost4json12basic_parserINS0_6detail12into_handlerIhEEE7suspendEPKcNS5_5stateERKNS5_6numberE
FNA:22,47,_ZN5boost4json12basic_parserINS0_6detail12into_handlerIiEEE7suspendEPKcNS5_5stateERKNS5_6numberE
FNA:22,8,_ZN5boost4json12basic_parserINS0_6detail12into_handlerIjEEE7suspendEPKcNS5_5stateERKNS5_6numberE
FNA:22,22,_ZN5boost4json12basic_parserINS0_6detail12into_handlerIlEEE7suspendEPKcNS5_5stateERKNS5_6numberE
FNA:22,23,_ZN5boost4json12basic_parserINS0_6detail12into_handlerImEEE7suspendEPKcNS5_5stateERKNS5_6numberE
FNA:22,8,_ZN5boost4json12basic_parserINS0_6detail12into_handlerIsEEE7suspendEPKcNS5_5stateERKNS5_6numberE
FNA:22,8,_ZN5boost4json12basic_parserINS0_6detail12into_handlerItEEE7suspendEPKcNS5_5stateERKNS5_6numberE
FNA:22,22,_ZN5boost4json12basic_parserINS0_6detail12into_handlerIxEEE7suspendEPKcNS5_5stateERKNS5_6numberE
FNA:22,23,_ZN5boost4json12basic_parserINS0_6detail12into_handlerIyEEE7suspendEPKcNS5_5stateERKNS5_6numberE
FNA:22,30404,_ZN5boost4json12basic_parserINS0_6detail7handlerEE7suspendEPKcNS4_5stateERKNS4_6numberE
FNL:23,423,523
FNA:23,3135,_ZN5boost4json12basic_parserINS0_11fail_parser7handlerEE13parse_commentILb0EEEPKcS7_St17integral_constantIbXT_EEb
FNA:23,6698,_ZN5boost4json12basic_parserINS0_11fail_parser7handlerEE13parse_commentILb1EEEPKcS7_St17integral_constantIbXT_EEb
FNA:23,0,_ZN5boost4json12basic_parserINS0_11null_parser7handlerEE13parse_commentILb0EEEPKcS7_St17integral_constantIbXT_EEb
FNA:23,0,_ZN5boost4json12basic_parserINS0_11null_parser7handlerEE13parse_commentILb1EEEPKcS7_St17integral_constantIbXT_EEb
FNA:23,3134,_ZN5boost4json12basic_parserINS0_12throw_parser7handlerEE13parse_commentILb0EEEPKcS7_St17integral_constantIbXT_EEb
FNA:23,6638,_ZN5boost4json12basic_parserINS0_12throw_parser7handlerEE13parse_commentILb1EEEPKcS7_St17integral_constantIbXT_EEb
FNA:23,0,_ZN5boost4json12basic_parserINS0_17basic_parser_test11utf8_parser7handlerEE13parse_commentILb0EEEPKcS8_St17integral_constantIbXT_EEb
FNA:23,0,_ZN5boost4json12basic_parserINS0_17basic_parser_test11utf8_parser7handlerEE13parse_commentILb1EEEPKcS8_St17integral_constantIbXT_EEb
FNA:23,0,_ZN5boost4json12basic_parserINS0_17basic_parser_test14comment_parser7handlerEE13parse_commentILb0EEEPKcS8_St17integral_constantIbXT_EEb
FNA:23,29,_ZN5boost4json12basic_parserINS0_17basic_parser_test14comment_parser7handlerEE13parse_commentILb1EEEPKcS8_St17integral_constantIbXT_EEb
FNA:23,0,_ZN5boost4json12basic_parserINS0_17basic_parser_test14literal_parser7handlerEE13parse_commentILb0EEEPKcS8_St17integral_constantIbXT_EEb
FNA:23,0,_ZN5boost4json12basic_parserINS0_17basic_parser_test14literal_parser7handlerEE13parse_commentILb1EEEPKcS8_St17integral_constantIbXT_EEb
FNA:23,0,_ZN5boost4json12basic_parserINS0_17basic_parser_test15std_null_parser7handlerEE13parse_commentILb0EEEPKcS8_St17integral_constantIbXT_EEb
FNA:23,0,_ZN5boost4json12basic_parserINS0_17basic_parser_test15std_null_parser7handlerEE13parse_commentILb1EEEPKcS8_St17integral_constantIbXT_EEb
FNA:23,20,_ZN5boost4json12basic_parserINS0_6detail12into_handlerIDnEEE13parse_commentILb0EEEPKcS8_St17integral_constantIbXT_EEb
FNA:23,1,_ZN5boost4json12basic_parserINS0_6detail12into_handlerIDnEEE13parse_commentILb1EEEPKcS8_St17integral_constantIbXT_EEb
FNA:23,0,_ZN5boost4json12basic_parserINS0_6detail12into_handlerINS0_6stringEEEE13parse_commentILb0EEEPKcS9_St17integral_constantIbXT_EEb
FNA:23,0,_ZN5boost4json12basic_parserINS0_6detail12into_handlerINS0_6stringEEEE13parse_commentILb1EEEPKcS9_St17integral_constantIbXT_EEb
FNA:23,0,_ZN5boost4json12basic_parserINS0_6detail12into_handlerINS_8variant27variantIJNS4_9monostateEEEEEEE13parse_commentILb0EEEPKcSC_St17integral_constantIbXT_EEb
FNA:23,0,_ZN5boost4json12basic_parserINS0_6detail12into_handlerINS_8variant27variantIJNS4_9monostateEEEEEEE13parse_commentILb1EEEPKcSC_St17integral_constantIbXT_EEb
FNA:23,20,_ZN5boost4json12basic_parserINS0_6detail12into_handlerINS_8variant27variantIJNS4_9monostateESt6vectorIiSaIiEEEEEEEE13parse_commentILb0EEEPKcSF_St17integral_constantIbXT_EEb
FNA:23,1,_ZN5boost4json12basic_parserINS0_6detail12into_handlerINS_8variant27variantIJNS4_9monostateESt6vectorIiSaIiEEEEEEEE13parse_commentILb1EEEPKcSF_St17integral_constantIbXT_EEb
FNA:23,60,_ZN5boost4json12basic_parserINS0_6detail12into_handlerINS_8variant27variantIJNS4_9monostateEiNSt7__cxx1112basic_stringIcSt11char_traitsIcESaIcEEEEEEEEE13parse_commentILb0EEEPKcSI_St17integral_constantIbXT_EEb
FNA:23,3,_ZN5boost4json12basic_parserINS0_6detail12into_handlerINS_8variant27variantIJNS4_9monostateEiNSt7__cxx1112basic_stringIcSt11char_traitsIcESaIcEEEEEEEEE13parse_commentILb1EEEPKcSI_St17integral_constantIbXT_EEb
FNA:23,0,_ZN5boost4json12basic_parserINS0_6detail12into_handlerINS_8variant27variantIJNS4_9monostateEibEEEEEE13parse_commentILb0EEEPKcSC_St17integral_constantIbXT_EEb
FNA:23,0,_ZN5boost4json12basic_parserINS0_6detail12into_handlerINS_8variant27variantIJNS4_9monostateEibEEEEEE13parse_commentILb1EEEPKcSC_St17integral_constantIbXT_EEb
FNA:23,20,_ZN5boost4json12basic_parserINS0_6detail12into_handlerINS_8variant27variantIJSt6vectorIiSaIiEEEEEEEE13parse_commentILb0EEEPKcSE_St17integral_constantIbXT_EEb
FNA:23,1,_ZN5boost4json12basic_parserINS0_6detail12into_handlerINS_8variant27variantIJSt6vectorIiSaIiEEEEEEEE13parse_commentILb1EEEPKcSE_St17integral_constantIbXT_EEb
FNA:23,20,_ZN5boost4json12basic_parserINS0_6detail12into_handlerINS_8variant27variantIJSt6vectorIiSaIiEESt5tupleIJiNSt7__cxx1112basic_stringIcSt11char_traitsIcESaIcEEESt3mapISF_iSt4lessISF_ESaISt4pairIKSF_iEEEEES9_IJiSF_SG_ISF_dSI_SaISJ_ISK_dEEEEEEEEEEE13parse_commentILb0EEEPKcSY_St17integral_constantIbXT_EEb
FNA:23,1,_ZN5boost4json12basic_parserINS0_6detail12into_handlerINS_8variant27variantIJSt6vectorIiSaIiEESt5tupleIJiNSt7__cxx1112basic_stringIcSt11char_traitsIcESaIcEEESt3mapISF_iSt4lessISF_ESaISt4pairIKSF_iEEEEES9_IJiSF_SG_ISF_dSI_SaISJ_ISK_dEEEEEEEEEEE13parse_commentILb1EEEPKcSY_St17integral_constantIbXT_EEb
FNA:23,40,_ZN5boost4json12basic_parserINS0_6detail12into_handlerINS_8variant27variantIJbmEEEEEE13parse_commentILb0EEEPKcSB_St17integral_constantIbXT_EEb
FNA:23,2,_ZN5boost4json12basic_parserINS0_6detail12into_handlerINS_8variant27variantIJbmEEEEEE13parse_commentILb1EEEPKcSB_St17integral_constantIbXT_EEb
FNA:23,20,_ZN5boost4json12basic_parserINS0_6detail12into_handlerINS_8variant27variantIJiEEEEEE13parse_commentILb0EEEPKcSB_St17integral_constantIbXT_EEb
FNA:23,1,_ZN5boost4json12basic_parserINS0_6detail12into_handlerINS_8variant27variantIJiEEEEEE13parse_commentILb1EEEPKcSB_St17integral_constantIbXT_EEb
FNA:23,40,_ZN5boost4json12basic_parserINS0_6detail12into_handlerINS_8variant27variantIJiNSt7__cxx1112basic_stringIcSt11char_traitsIcESaIcEEEEEEEEE13parse_commentILb0EEEPKcSH_St17integral_constantIbXT_EEb
FNA:23,2,_ZN5boost4json12basic_parserINS0_6detail12into_handlerINS_8variant27variantIJiNSt7__cxx1112basic_stringIcSt11char_traitsIcESaIcEEEEEEEEE13parse_commentILb1EEEPKcSH_St17integral_constantIbXT_EEb
FNA:23,40,_ZN5boost4json12basic_parserINS0_6detail12into_handlerINSt7__cxx1112basic_stringIcSt11char_traitsIcESaIcEEEEEE13parse_commentILb0EEEPKcSE_St17integral_constantIbXT_EEb
FNA:23,2,_ZN5boost4json12basic_parserINS0_6detail12into_handlerINSt7__cxx1112basic_stringIcSt11char_traitsIcESaIcEEEEEE13parse_commentILb1EEEPKcSE_St17integral_constantIbXT_EEb
FNA:23,40,_ZN5boost4json12basic_parserINS0_6detail12into_handlerISt3mapINSt7__cxx1112basic_stringIcSt11char_traitsIcESaIcEEES4_ISA_iSt4lessISA_ESaISt4pairIKSA_iEEESC_SaISD_ISE_SH_EEEEEE13parse_commentILb0EEEPKcSP_St17integral_constantIbXT_EEb
